Trying to open 'cosmofile'..
Loading ELF information..
FileFormat: Elf, Arch: x64

Wait a few seconds, rp++ is looking for gadgets (2 threads max)..
A total of 6969 gadgets found.
0x411dfe: aaa ; ret ; (1 found)
0x40afbf: aad 0x02 ; add byte [rcx], bh ; retn 0x850F ; (1 found)
0x422146: aad 0x20 ; mov esp, 0x930F0042 ; retn 0xB60F ; (1 found)
0x426acb: aad 0x89 ; ret ; (1 found)
0x4243f1: aad 0xFD ; dec  [rax-0x77] ; retn 0x8944 ; (1 found)
0x404f35: aam 0x48 ; mov ecx, ebx ; call r12 ; (1 found)
0x40c259: aam 0x66 ; mov  [rdi+r9+0x02], 0x8348002E ; retn 0xEB02 ; (1 found)
0x404b68: aam 0xE8 ; add ah, byte [0xFFFFFFFF89884B72] ; ret ; (1 found)
0x41209a: aas ; add eax,  [rax] ; ret ; (1 found)
0x41209b: aas ; add eax,  [rax] ; ret ; (1 found)
0x41cba1: aas ; pop rbp ; ret ; (1 found)
0x41f29a: adc  [rax+0x68], eax ; movups  [rax+0x78], xmm0 ; ret ; (1 found)
0x41f03a: adc  [rax+0x78], eax ; ret ; (1 found)
0x41f0e3: adc  [rax+0x78], eax ; ret ; (1 found)
0x41f17f: adc  [rax+0x78], eax ; ret ; (1 found)
0x41f29e: adc  [rax+0x78], eax ; ret ; (1 found)
0x42521c: adc  [rax-0x01], ecx ; retn 0x3A41 ; (1 found)
0x419547: adc  [rax-0x77], ecx ; retn 0x8348 ; (1 found)
0x412375: adc  [rax], eax ; add byte [rax-0x7D], cl ; ret ; (1 found)
0x403334: adc  [rax], eax ; add byte [rax], al ; ret ; (1 found)
0x422511: adc  [rdi], eax ; mov rax, rdi ; ret ; (1 found)
0x422538: adc  [rdi], eax ; mov rax, rdi ; ret ; (1 found)
0x424df9: adc  [rdx], eax ; add cl, cl ; ret ; (1 found)
0x4063c5: adc  [rdx], eax ; xor eax, eax ; ret ; (1 found)
0x411d5f: adc  [rsi], eax ; ret ; (1 found)
0x410094: adc al, 0x00 ; add byte [rax-0x77], cl ; retn 0x8949 ; (1 found)
0x40347c: adc al, 0x00 ; add byte [rax], al ; ret ; (1 found)
0x415a52: adc al, 0x00 ; add byte [rbx-0x6AF00008], al ; retn 0x8548 ; (1 found)
0x426c37: adc al, 0x01 ; add al, bh ; syscall ; (1 found)
0x403ef7: adc al, 0x11 ; sub eax, edx ; ret ; (1 found)
0x403f3a: adc al, 0x11 ; sub eax, edx ; ret ; (1 found)
0x41257d: adc al, 0x11 ; sub eax, edx ; ret ; (1 found)
0x4125fe: adc al, 0x11 ; sub eax, edx ; ret ; (1 found)
0x412619: adc al, 0x11 ; sub eax, edx ; ret ; (1 found)
0x4162ad: adc al, 0x11 ; sub eax, edx ; ret ; (1 found)
0x405583: adc al, 0x83 ; jmp qword [rax] ; (1 found)
0x40333f: adc al, byte [rax] ; add byte [rax], al ; ret ; (1 found)
0x40ecca: adc bl, byte [rax+0x70BF0002] ; retn 0x0043 ; (1 found)
0x400163: adc bl, ch ; ret ; (1 found)
0x419bec: adc byte [r8-0x77], cl ; retn 0x8348 ; (1 found)
0x419cbf: adc byte [r8-0x77], cl ; retn 0x8348 ; (1 found)
0x4255f7: adc byte [r9-0x7D], r8L ; retn 0x4508 ; (1 found)
0x42494b: adc byte [rax+0x01], cl ; retn 0x8948 ; (1 found)
0x421ffc: adc byte [rax+0x39], cl ; ret ; (1 found)
0x41951c: adc byte [rax+0x39], cl ; retn 0x830F ; (1 found)
0x419c80: adc byte [rax+0x39], cl ; retn 0xEA75 ; (1 found)
0x427242: adc byte [rax+rax], 0x00 ; ret ; (1 found)
0x42726a: adc byte [rax+rax], 0x00 ; ret ; (1 found)
0x42727b: adc byte [rax+rax], 0x00 ; ret ; (1 found)
0x419bed: adc byte [rax-0x77], cl ; retn 0x8348 ; (1 found)
0x419cc0: adc byte [rax-0x77], cl ; retn 0x8348 ; (1 found)
0x422f43: adc byte [rax-0x7D], cl ; retn 0x6610 ; (1 found)
0x423004: adc byte [rax-0x7D], cl ; retn 0xC510 ; (1 found)
0x422c24: adc byte [rax], al ; add byte [rax-0x007F], cl ; ret ; (1 found)
0x403289: adc byte [rax], al ; add byte [rax], al ; ret ; (1 found)
0x416447: adc byte [rbx+0x02FBF215], cl ; add dh, dh ; retn 0x7404 ; (1 found)
0x40346f: adc byte [rbx+0x0C761FFE], al ; ret ; (1 found)
0x40fed6: adc byte [rcx+0x39], cl ; ret ; (1 found)
0x40fefa: adc byte [rcx+0x39], cl ; ret ; (1 found)
0x40dbad: adc byte [rcx+0x39], cl ; ror byte [rdi+rcx+0x4F], 1 ; retn 0x0348 ; (1 found)
0x41ecef: adc byte [rcx+0x5C415BD8], cl ; pop rbp ; ret ; (1 found)
0x41ecf0: adc byte [rcx+0x5C415BD8], cl ; pop rbp ; ret ; (1 found)
0x4255f8: adc byte [rcx-0x7D], al ; retn 0x4508 ; (1 found)
0x422153: adc byte [rcx], al ; ret ; (1 found)
0x422152: adc byte [rcx], r8L ; ret ; (1 found)
0x41f2d9: adc byte [rdi+rax-0x77], dh ; ror byte [0x000000000042332C], 1 ; ret ; (1 found)
0x411d5d: adc byte [rdi], cl ; adc  [rsi], eax ; ret ; (1 found)
0x40cb9f: adc byte [rdi], cl ; mov dh, 0xD2 ; jmp qword [0x00429588+rdx*8] ; (1 found)
0x416224: adc cl, byte [rax-0x7D] ; retn 0x4101 ; (1 found)
0x423661: adc cl, byte [rbp+0x01] ; retn 0x8348 ; (1 found)
0x402ae8: adc dh, dh ; retn 0x7408 ; (1 found)
0x417c62: adc dh, dh ; retn 0x740F ; (1 found)
0x402c45: adc dh, dh ; retn 0x7420 ; (1 found)
0x423836: adc eax, 0x0000BA45 ; leave ; ret ; (1 found)
0x422d96: adc eax, 0x0000C42D ; leave ; ret ; (1 found)
0x4239f5: adc eax, 0x000146AE ; pop rbp ; ret ; (1 found)
0x4239d4: adc eax, 0x000146CF ; pop rbp ; ret ; (1 found)
0x4239b3: adc eax, 0x000146F0 ; pop rbp ; ret ; (1 found)
0x423926: adc eax, 0x0001477D ; pop rbp ; ret ; (1 found)
0x416f5c: adc eax, 0x00021147 ; pop rbp ; ret ; (1 found)
0x423ab7: adc eax, 0x00022A4C ; pop rbp ; ret ; (1 found)
0x40bfb9: adc eax, 0x00023042 ; leave ; ret ; (1 found)
0x40bf9b: adc eax, 0x000230F0 ; leave ; ret ; (1 found)
0x40c064: adc eax, 0x00023157 ; leave ; ret ; (1 found)
0x40c02b: adc eax, 0x00023158 ; leave ; ret ; (1 found)
0x40c00d: adc eax, 0x0002316E ; leave ; ret ; (1 found)
0x40b4d0: adc eax, 0x00023B33 ; leave ; ret ; (1 found)
0x40b704: adc eax, 0x00023B3F ; leave ; ret ; (1 found)
0x40b6e6: adc eax, 0x00023B55 ; leave ; ret ; (1 found)
0x40b6ad: adc eax, 0x00023B66 ; leave ; ret ; (1 found)
0x40b674: adc eax, 0x00023B67 ; leave ; ret ; (1 found)
0x40b4b2: adc eax, 0x00023B71 ; leave ; ret ; (1 found)
0x40b494: adc eax, 0x00023B87 ; leave ; ret ; (1 found)
0x40b5cf: adc eax, 0x00023B8C ; leave ; ret ; (1 found)
0x40b509: adc eax, 0x00023BA2 ; leave ; ret ; (1 found)
0x40b599: adc eax, 0x00023BA2 ; leave ; ret ; (1 found)
0x40b57b: adc eax, 0x00023BA8 ; leave ; ret ; (1 found)
0x40b527: adc eax, 0x00023BBC ; leave ; ret ; (1 found)
0x40996e: adc eax, 0x00025745 ; leave ; ret ; (1 found)
0x40999e: adc eax, 0x0002576D ; leave ; ret ; (1 found)
0x405167: adc eax, 0x00029EFC ; leave ; ret ; (1 found)
0x4051ee: adc eax, 0x00029EFD ; leave ; ret ; (1 found)
0x40525d: adc eax, 0x00029F0E ; leave ; ret ; (1 found)
0x405209: adc eax, 0x00029F2A ; leave ; ret ; (1 found)
0x4052cc: adc eax, 0x00029F87 ; leave ; ret ; (1 found)
0x405296: adc eax, 0x00029F8D ; leave ; ret ; (1 found)
0x4043e4: adc eax, 0x0002ADFF ; mov ecx, 0x0000FDE9 ; call rbx ; (1 found)
0x417397: adc eax, 0x0002F174 ; pop rbp ; ret ; (1 found)
0x42302a: adc eax, 0x00441F0F ; add byte [rax-0x7D], cl ; retn 0x0F01 ; (1 found)
0x4081c5: adc eax, 0x89480000 ; ror  [rax-0x77], 1 ; retn 0x8B48 ; (1 found)
0x40327e: adc eax, 0xC3000000 ; mov  [0x0000000000445F88], 0x00000010 ; ret ; (1 found)
0x40c880: adc eax, 0xC9FFFFFF ; ret ; (1 found)
0x41e26e: adc eax, ebp ; mov esp, 0x5D000001 ; ret ; (1 found)
0x4014b8: adc ecx,  [rax+0x39] ; retn 0x0F48 ; (1 found)
0x413ead: adc ecx,  [rax-0x77] ; fimul  [rax+0x29] ; retn 0x8B48 ; (1 found)
0x4177ed: adc ecx,  [rax-0x77] ; retn 0x8348 ; (1 found)
0x419b52: adc ecx,  [rax-0x77] ; retn 0x8948 ; (1 found)
0x41122c: adc ecx,  [rax-0x7D] ; retn 0x4810 ; (1 found)
0x41646c: adc edi,  [rax+0x000000BA] ; syscall ; (1 found)
0x416484: adc esi, esi ; retn 0x7410 ; (1 found)
0x4121ca: add  [0x000000000043CED8], 0x01 ; pop rbp ; ret ; (1 found)
0x4007b7: add  [0x004004BE], edx ; mov rax, 0x0000000000400800 ; jmp rax ; (1 found)
0x41024b: add  [r8-0x7D], ecx ; ret ; (1 found)
0x4205a8: add  [r8-0x7D], ecx ; ret ; (1 found)
0x41462d: add  [r8], r8d ; add byte [rax-0x77], cl ; ret ; (1 found)
0x423928: add  [r8], r8d ; pop rbp ; ret ; (1 found)
0x402095: add  [r9+0x03ADE305], ecx ; add byte [rax-0x7D], cl ; ret ; (1 found)
0x405ae2: add  [r9-0x7D], ecx ; retn 0x4D02 ; (1 found)
0x40544f: add  [rax+0x39], ecx ; fmul  [rax+0x0F] ; ret ; (1 found)
0x405ab3: add  [rax+0x39], ecx ; retn 0x2774 ; (1 found)
0x41202f: add  [rax+0x39], ecx ; retn 0xE372 ; (1 found)
0x404360: add  [rax+0x39], ecx ; retn 0xEA75 ; (1 found)
0x41271d: add  [rax+0x39], ecx ; sal  [rbp-0x1B], 1 ; ret ; (1 found)
0x40bcbc: add  [rax+0x63], ecx ; ret ; (1 found)
0x40a07f: add  [rax-0x007F], ecx ; retn 0x0000 ; (1 found)
0x42311a: add  [rax-0x6E], ecx ; ret ; (1 found)
0x415e40: add  [rax-0x7C], eax ; div byte [rbp-0x16] ; ret ; (1 found)
0x415f10: add  [rax-0x7C], eax ; div byte [rbp-0x16] ; ret ; (1 found)
0x407e93: add  [rax-0x7D], ecx ; ret ; (1 found)
0x408ac5: add  [rax-0x7D], ecx ; ret ; (1 found)
0x409625: add  [rax-0x7D], ecx ; ret ; (1 found)
0x41024c: add  [rax-0x7D], ecx ; ret ; (1 found)
0x410c36: add  [rax-0x7D], ecx ; ret ; (1 found)
0x4157f3: add  [rax-0x7D], ecx ; ret ; (1 found)
0x4205a9: add  [rax-0x7D], ecx ; ret ; (1 found)
0x405bad: add  [rax-0x7D], ecx ; retn 0x4001 ; (1 found)
0x412027: add  [rax-0x7D], ecx ; retn 0x4801 ; (1 found)
0x409bfb: add  [rax-0x7D], ecx ; retn 0x8401 ; (1 found)
0x409c8b: add  [rax-0x7D], ecx ; retn 0x8401 ; (1 found)
0x4074c2: add  [rax-0x7D], ecx ; retn 0x8B14 ; (1 found)
0x415dae: add  [rax-0x7D], ecx ; rol byte [rcx], 0xF6 ; retn 0x740F ; (1 found)
0x415e7e: add  [rax-0x7D], ecx ; rol byte [rcx], 0xF6 ; retn 0x740F ; (1 found)
0x41d277: add  [rax], eax ; add byte [rax+0x63], cl ; ret ; (1 found)
0x41462e: add  [rax], eax ; add byte [rax-0x77], cl ; ret ; (1 found)
0x426d17: add  [rax], eax ; add byte [rax-0x77], cl ; ret ; (1 found)
0x4215d0: add  [rax], eax ; add byte [rax-0x77], cl ; retn 0x04C6 ; (1 found)
0x42362a: add  [rax], eax ; add byte [rax-0x7D], cl ; retn 0x3108 ; (1 found)
0x4278bc: add  [rax], eax ; add byte [rax-0x7D], cl ; retn 0x4808 ; (1 found)
0x40fe77: add  [rax], eax ; add byte [rax-0x7D], cl ; retn 0x4C10 ; (1 found)
0x4106a7: add  [rax], eax ; add byte [rax-0x7D], cl ; retn 0x4C10 ; (1 found)
0x4032fd: add  [rax], eax ; add byte [rax], al ; ret ; (1 found)
0x40fe00: add  [rax], eax ; add byte [rax], al ; ret ; (1 found)
0x4120a6: add  [rax], eax ; add byte [rax], al ; ret ; (1 found)
0x415fa6: add  [rax], eax ; add byte [rax], al ; ret ; (1 found)
0x41e329: add  [rax], eax ; add byte [rax], al ; ret ; (1 found)
0x420349: add  [rax], eax ; add byte [rax], al ; ret ; (1 found)
0x40ff21: add  [rax], eax ; add byte [rcx-0x0A], al ; retn 0x7579 ; (1 found)
0x427aa9: add  [rax], eax ; add byte [rcx], ch ; ret ; (1 found)
0x40f199: add  [rax], eax ; add dh, dh ; ret ; (1 found)
0x4208eb: add  [rax], eax ; add dh, dh ; ret ; (1 found)
0x426c38: add  [rax], eax ; clc ; syscall ; (1 found)
0x4019cb: add  [rax], eax ; leave ; ret ; (1 found)
0x4089eb: add  [rax], eax ; leave ; ret ; (1 found)
0x409796: add  [rax], eax ; leave ; ret ; (1 found)
0x427274: add  [rax], eax ; mov qword [gs:0x00001480+rax*8], rdi ; ret ; (1 found)
0x427202: add  [rax], eax ; mov rax, rsi ; ret ; (1 found)
0x427203: add  [rax], eax ; mov rax, rsi ; ret ; (1 found)
0x426c9b: add  [rax], eax ; mov rdi, rbx ; syscall ; (1 found)
0x401a03: add  [rax], eax ; pop rbp ; ret ; (1 found)
0x40733e: add  [rax], eax ; pop rbp ; ret ; (1 found)
0x423929: add  [rax], eax ; pop rbp ; ret ; (1 found)
0x4239b6: add  [rax], eax ; pop rbp ; ret ; (1 found)
0x4239d7: add  [rax], eax ; pop rbp ; ret ; (1 found)
0x4239f8: add  [rax], eax ; pop rbp ; ret ; (1 found)
0x42573d: add  [rax], eax ; syscall ; (1 found)
0x426e39: add  [rax], eax ; syscall ; (1 found)
0x423629: add  [rax], r8d ; add byte [rax-0x7D], cl ; retn 0x3108 ; (1 found)
0x4239b5: add  [rax], r8d ; pop rbp ; ret ; (1 found)
0x4239d6: add  [rax], r8d ; pop rbp ; ret ; (1 found)
0x4239f7: add  [rax], r8d ; pop rbp ; ret ; (1 found)
0x416d13: add  [rbp+0x09], ecx ; retn 0x894D ; (1 found)
0x426f90: add  [rbp+rax+0x5D], esi ; ret ; (1 found)
0x40380e: add  [rbx+0x042D1F05], ecx ; add byte [rax+0x39], cl ; ret ; (1 found)
0x425d1d: add  [rbx+0x3941FFD8], eax ; rol  [rcx+0x0F], 0xFFFFFF93 ; retn 0xBD80 ; (1 found)
0x427028: add  [rbx+rax+0x5D], esi ; ret ; (1 found)
0x427029: add  [rbx+rax+0x5D], esi ; ret ; (1 found)
0x42702a: add  [rbx+rax+0x5D], esi ; ret ; (1 found)
0x415cf2: add  [rbx+rcx-0x7B], esi ; sar byte [rdi+0x1F], 0x5D ; ret ; (1 found)
0x40a448: add  [rbx-0x0004634B], ecx ; dec  [rax-0x007F] ; retn 0x0000 ; (1 found)
0x402096: add  [rcx+0x03ADE305], ecx ; add byte [rax-0x7D], cl ; ret ; (1 found)
0x410614: add  [rcx-0x7D], ecx ; retn 0x4901 ; (1 found)
0x405ae3: add  [rcx-0x7D], ecx ; retn 0x4D02 ; (1 found)
0x41f309: add  [rcx], eax ; clc ; ret ; (1 found)
0x427112: add  [rcx], ebx ; rol byte [rbx-0x177C3F20], 0x80 ; ret ; (1 found)
0x4270e9: add  [rcx], ebx ; rol byte [rbx-0x3F7C0320], 0x08 ; ret ; (1 found)
0x41d197: add  [rdi+0x28], 0x01 ; ret ; (1 found)
0x4169ed: add  [rdi-0x10], esi ; ret ; (1 found)
0x416a3d: add  [rdi-0x10], esi ; ret ; (1 found)
0x40c876: add  [rdx+0x00], 0xFFFDB0E8 ; call qword [rax-0x0000EA17] ; (1 found)
0x425736: add  [rdx+rcx-0x75], esi ; add eax, 0x00012D61 ; syscall ; (1 found)
0x400635: add  [rdx+rdi*8-0x3D], esi ; sti ; ret ; (1 found)
0x4005c3: add ah, bh ; rep stosd ; ret ; (1 found)
0x404b6a: add ah, byte [0xFFFFFFFF89884B72] ; ret ; (1 found)
0x40bbfe: add al, 0x00 ; add byte [rax-0x77], cl ; ret ; (1 found)
0x4033ab: add al, 0x00 ; add byte [rax], al ; ret ; (1 found)
0x403945: add al, 0x00 ; add dh, byte [rbp+0x05] ; ret ; (1 found)
0x403946: add al, 0x00 ; add dh, byte [rbp+0x05] ; ret ; (1 found)
0x402749: add al, 0x00 ; mov  [0x0000000000446098], eax ; ret ; (1 found)
0x40274f: add al, 0x00 ; ret ; (1 found)
0x403219: add al, 0x00 ; ret ; (1 found)
0x427109: add al, 0x01 ; add byte [rax], al ; ret ; (1 found)
0x4019ca: add al, 0x01 ; add cl, cl ; ret ; (1 found)
0x401803: add al, 0x03 ; jmp rax ; (1 found)
0x401800: add al, 0x03 ; lea eax,  [rbx+rax] ; jmp rax ; (1 found)
0x410a87: add al, 0x06 ; ret ; (1 found)
0x4208d9: add al, 0x0F ; test  [rax-0x0A000000], ecx ; ret ; (1 found)
0x427aa3: add al, 0x39 ; ret ; (1 found)
0x424cab: add al, 0x41 ; ret ; (1 found)
0x424d2b: add al, 0x41 ; ret ; (1 found)
0x41275e: add al, 0x8A ; add rax, rdx ; jmp rax ; (1 found)
0x412aee: add al, 0x8A ; add rax, rdx ; jmp rax ; (1 found)
0x426c39: add al, bh ; syscall ; (1 found)
0x426c88: add al, bh ; syscall ; (1 found)
0x427c1e: add al, bh ; syscall ; (1 found)
0x41cb50: add al, bl ; add byte [r8+0x0F], cl ; retn 0xC35D ; (1 found)
0x41e737: add al, bpl ; add bl, byte [rdi+rdi*8] ; call qword [rax+0x0020BA90] ; (1 found)
0x40ce06: add al, bpl ; add esp,  [rdx-0x76B80000] ; retn 0x058B ; (1 found)
0x42403d: add al, bpl ; cld ; retn 0xFFFE ; (1 found)
0x41e6f5: add al, bpl ; sbb al, 0xFF ; call qword [rax-0x41FFE0F1] ; (1 found)
0x40cdde: add al, bpl ; sub esp,  [rdx-0x76B80000] ; retn 0x058B ; (1 found)
0x418b21: add al, byte [r8] ; add byte [rbp+0x39], cl ; retn 0x820F ; (1 found)
0x426f7f: add al, byte [rax] ; add byte [rax-0x77], cl ; retn 0x8548 ; (1 found)
0x4031f9: add al, byte [rax] ; add byte [rax], al ; ret ; (1 found)
0x418b22: add al, byte [rax] ; add byte [rbp+0x39], cl ; retn 0x820F ; (1 found)
0x40a703: add al, byte [rax] ; add byte [rcx+rdi+0x25], al ; ret ; (1 found)
0x427ab0: add al, byte [rax] ; add byte [rcx], bh ; ret ; (1 found)
0x40070c: add al, byte [rax] ; add byte [rcx], dh ; jmp qword [rsi-0x55] ; (1 found)
0x40516a: add al, byte [rax] ; leave ; ret ; (1 found)
0x4051f1: add al, byte [rax] ; leave ; ret ; (1 found)
0x40520c: add al, byte [rax] ; leave ; ret ; (1 found)
0x405260: add al, byte [rax] ; leave ; ret ; (1 found)
0x405299: add al, byte [rax] ; leave ; ret ; (1 found)
0x4052cf: add al, byte [rax] ; leave ; ret ; (1 found)
0x409971: add al, byte [rax] ; leave ; ret ; (1 found)
0x4099a1: add al, byte [rax] ; leave ; ret ; (1 found)
0x40b497: add al, byte [rax] ; leave ; ret ; (1 found)
0x40b4b5: add al, byte [rax] ; leave ; ret ; (1 found)
0x40b4d3: add al, byte [rax] ; leave ; ret ; (1 found)
0x40b50c: add al, byte [rax] ; leave ; ret ; (1 found)
0x40b52a: add al, byte [rax] ; leave ; ret ; (1 found)
0x40b57e: add al, byte [rax] ; leave ; ret ; (1 found)
0x40b59c: add al, byte [rax] ; leave ; ret ; (1 found)
0x40b5d2: add al, byte [rax] ; leave ; ret ; (1 found)
0x40b677: add al, byte [rax] ; leave ; ret ; (1 found)
0x40b6b0: add al, byte [rax] ; leave ; ret ; (1 found)
0x40b6e9: add al, byte [rax] ; leave ; ret ; (1 found)
0x40b707: add al, byte [rax] ; leave ; ret ; (1 found)
0x40bf9e: add al, byte [rax] ; leave ; ret ; (1 found)
0x40bfbc: add al, byte [rax] ; leave ; ret ; (1 found)
0x40c010: add al, byte [rax] ; leave ; ret ; (1 found)
0x40c02e: add al, byte [rax] ; leave ; ret ; (1 found)
0x40c067: add al, byte [rax] ; leave ; ret ; (1 found)
0x422de0: add al, byte [rax] ; leave ; ret ; (1 found)
0x424dfa: add al, byte [rax] ; leave ; ret ; (1 found)
0x404052: add al, byte [rax] ; mov ecx, 0x0000FDE9 ; call rbx ; (1 found)
0x4043e7: add al, byte [rax] ; mov ecx, 0x0000FDE9 ; call rbx ; (1 found)
0x411e46: add al, byte [rax] ; mov edi, ebx ; syscall ; (1 found)
0x411e47: add al, byte [rax] ; mov edi, ebx ; syscall ; (1 found)
0x411e48: add al, byte [rax] ; mov edi, ebx ; syscall ; (1 found)
0x411e51: add al, byte [rax] ; mov edi, ebx ; syscall ; (1 found)
0x411e52: add al, byte [rax] ; mov edi, ebx ; syscall ; (1 found)
0x404f2e: add al, byte [rax] ; mov rcx, rsi ; call r12 ; (1 found)
0x404405: add al, byte [rax] ; movsx ecx, byte [rbx+0x0042AC14] ; call rdi ; (1 found)
0x40bf5d: add al, byte [rax] ; neg eax ; ret ; (1 found)
0x401ec3: add al, byte [rax] ; pop rbp ; ret ; (1 found)
0x403910: add al, byte [rax] ; pop rbp ; ret ; (1 found)
0x40eeea: add al, byte [rax] ; pop rbp ; ret ; (1 found)
0x416f5f: add al, byte [rax] ; pop rbp ; ret ; (1 found)
0x41739a: add al, byte [rax] ; pop rbp ; ret ; (1 found)
0x423aba: add al, byte [rax] ; pop rbp ; ret ; (1 found)
0x4111f8: add al, byte [rax] ; syscall ; ret ; (1 found)
0x4111f8: add al, byte [rax] ; syscall ; (1 found)
0x41f306: add al, byte [rbx-0x07FEFE19] ; ret ; (1 found)
0x42528d: add al, byte [rcx] ; mov byte [rax], 0x00 ; ret ; (1 found)
0x422230: add al, byte [rcx] ; ret ; (1 found)
0x41e738: add al, ch ; add bl, byte [rdi+rdi*8] ; call qword [rax+0x0020BA90] ; (1 found)
0x40ce07: add al, ch ; add esp,  [rdx-0x76B80000] ; retn 0x058B ; (1 found)
0x42403e: add al, ch ; cld ; retn 0xFFFE ; (1 found)
0x40b11b: add al, ch ; lahf ; retn 0xFFFF ; (1 found)
0x4234e7: add al, ch ; or eax, 0x89000004 ; ret ; (1 found)
0x40d0ff: add al, ch ; or ebx,  [rdi-0x76B80000] ; retn 0x058B ; (1 found)
0x41adaf: add al, ch ; pop rbx ; retn 0xFFFF ; (1 found)
0x4062b7: add al, ch ; ret ; (1 found)
0x407e67: add al, ch ; ret ; (1 found)
0x4131d7: add al, ch ; ret ; (1 found)
0x41b047: add al, ch ; ret ; (1 found)
0x41e6f6: add al, ch ; sbb al, 0xFF ; call qword [rax-0x41FFE0F1] ; (1 found)
0x42198d: add al, ch ; sub eax, 0x5DFFFFFB ; ret ; (1 found)
0x40cddf: add al, ch ; sub esp,  [rdx-0x76B80000] ; retn 0x058B ; (1 found)
0x426011: add bh, bh ; retn 0xC3EB ; (1 found)
0x40fdfe: add bh, byte [rax+0x00000001] ; ret ; (1 found)
0x4068ba: add bh, dh ; ret ; (1 found)
0x41edcf: add bh, dh ; shl byte [rcx], 1 ; retn 0xEBE8 ; (1 found)
0x403300: add bl, al ; mov  [0x0000000000445F84], 0x00000006 ; ret ; (1 found)
0x403342: add bl, al ; mov  [0x0000000000445F84], 0x00000007 ; ret ; (1 found)
0x4033c4: add bl, al ; mov  [0x0000000000445F84], 0x00000008 ; ret ; (1 found)
0x40342b: add bl, al ; mov  [0x0000000000445F84], 0x00000009 ; ret ; (1 found)
0x40334d: add bl, al ; mov  [0x0000000000445F84], 0x0000000B ; ret ; (1 found)
0x40330b: add bl, al ; mov  [0x0000000000445F84], 0x0000000C ; ret ; (1 found)
0x403316: add bl, al ; mov  [0x0000000000445F84], 0x0000000D ; ret ; (1 found)
0x403321: add bl, al ; mov  [0x0000000000445F84], 0x0000000E ; ret ; (1 found)
0x40332c: add bl, al ; mov  [0x0000000000445F84], 0x00000011 ; ret ; (1 found)
0x403337: add bl, al ; mov  [0x0000000000445F84], 0x00000012 ; ret ; (1 found)
0x4033ae: add bl, al ; mov  [0x0000000000445F88], 0x00000005 ; ret ; (1 found)
0x4033b9: add bl, al ; mov  [0x0000000000445F88], 0x00000006 ; ret ; (1 found)
0x40347f: add bl, al ; mov  [0x0000000000445F88], 0x0000000B ; ret ; (1 found)
0x403281: add bl, al ; mov  [0x0000000000445F88], 0x00000010 ; ret ; (1 found)
0x41e73a: add bl, byte [rdi+rdi*8] ; call qword [rax+0x0020BA90] ; (1 found)
0x42777e: add bl, ch ; or  [rax-0x01], ecx ; retn 0x8348 ; (1 found)
0x40156b: add bl, ch ; salc ; ret ; (1 found)
0x402163: add byte [0x83480F75+rbp], bh ; retn 0x4101 ; (1 found)
0x4023c7: add byte [0x894C1075+rbp], bh ; fmul  [rcx-0x7D] ; ret ; (1 found)
0x40327d: add byte [0xFFFFFFFFC3403283], dl ; mov  [0x0000000000445F88], 0x00000010 ; ret ; (1 found)
0x40331d: add byte [0xFFFFFFFFC3403323], cl ; mov  [0x0000000000445F84], 0x0000000E ; ret ; (1 found)
0x4033b5: add byte [0xFFFFFFFFC34033BB], al ; mov  [0x0000000000445F88], 0x00000006 ; ret ; (1 found)
0x4092f3: add byte [gs:rax+rdx-0x007F], dh ; jmp qword [rbx+0x6F] ; (1 found)
0x40450c: add byte [r8+0x0F], cl ; retn 0x8948 ; (1 found)
0x41cb52: add byte [r8+0x0F], cl ; retn 0xC35D ; (1 found)
0x411493: add byte [r8], al ; mov rdi, r14 ; call r13 ; (1 found)
0x4047e4: add byte [r8], r8L ; pop rbp ; ret ; (1 found)
0x41e327: add byte [rax+0x00000001], bh ; ret ; (1 found)
0x4164cf: add byte [rax+0x00000137], bh ; syscall ; (1 found)
0x411577: add byte [rax+0x00428B32], bh ; ret ; (1 found)
0x411576: add byte [rax+0x00428B32], dil ; ret ; (1 found)
0x4109c7: add byte [rax+0x00428C6E], bh ; ret ; (1 found)
0x4109c6: add byte [rax+0x00428C6E], dil ; ret ; (1 found)
0x40a488: add byte [rax+0x00], al ; call rax ; (1 found)
0x409e1f: add byte [rax+0x00], al ; mov rdx, r12 ; call rax ; (1 found)
0x416497: add byte [rax+0x0100001B], bh ; syscall ; (1 found)
0x410db8: add byte [rax+0x01], cl ; ret ; (1 found)
0x4245ef: add byte [rax+0x02000074], bh ; mov esi, edx ; syscall ; (1 found)
0x41f2d6: add byte [rax+0x077410E1], 0x89 ; ror byte [0x000000000042332C], 1 ; ret ; (1 found)
0x416098: add byte [rax+0x0F], cl ; retn 0x66C3 ; (1 found)
0x41611c: add byte [rax+0x0F], cl ; retn 0x66C3 ; (1 found)
0x40450d: add byte [rax+0x0F], cl ; retn 0x8948 ; (1 found)
0x420826: add byte [rax+0x0F], cl ; retn 0xC2EB ; (1 found)
0x420827: add byte [rax+0x0F], cl ; retn 0xC2EB ; (1 found)
0x420828: add byte [rax+0x0F], cl ; retn 0xC2EB ; (1 found)
0x41cb53: add byte [rax+0x0F], cl ; retn 0xC35D ; (1 found)
0x417586: add byte [rax+0x0F], cl ; scasd ; retn 0xC148 ; (1 found)
0x41a90e: add byte [rax+0x0F], cl ; scasd ; retn 0xC148 ; (1 found)
0x41ab60: add byte [rax+0x0F], cl ; scasd ; retn 0xC148 ; (1 found)
0x41c01a: add byte [rax+0x0F], cl ; scasd ; retn 0xC148 ; (1 found)
0x401216: add byte [rax+0x21], cl ; ret ; (1 found)
0x4142b6: add byte [rax+0x21], cl ; ret ; (1 found)
0x414b11: add byte [rax+0x21], cl ; ret ; (1 found)
0x421ca1: add byte [rax+0x21], cl ; retn 0x8948 ; (1 found)
0x422c11: add byte [rax+0x21], cl ; retn 0x894C ; (1 found)
0x423bb7: add byte [rax+0x29], cl ; clc ; ret ; (1 found)
0x423bc3: add byte [rax+0x29], cl ; clc ; ret ; (1 found)
0x41b181: add byte [rax+0x29], cl ; ret ; (1 found)
0x407e3e: add byte [rax+0x39], cl ; enter 0x0C73, 0x89 ; retn 0x8589 ; (1 found)
0x403814: add byte [rax+0x39], cl ; ret ; (1 found)
0x41aea1: add byte [rax+0x39], cl ; ret ; (1 found)
0x412886: add byte [rax+0x39], cl ; retn 0x0972 ; (1 found)
0x412c27: add byte [rax+0x39], cl ; retn 0x0972 ; (1 found)
0x419804: add byte [rax+0x39], cl ; retn 0x820F ; (1 found)
0x421fd5: add byte [rax+0x39], cl ; ror byte [rax+0x0F], 1 ; retn 0x214C ; (1 found)
0x406eaf: add byte [rax+0x5A], bl ; leave ; ret ; (1 found)
0x403abe: add byte [rax+0x5B], bl ; pop rbp ; ret ; (1 found)
0x40bd4f: add byte [rax+0x63], cl ; call qword [rbp+0x48] ; (1 found)
0x406c67: add byte [rax+0x63], cl ; ret ; (1 found)
0x406d3f: add byte [rax+0x63], cl ; ret ; (1 found)
0x40ea94: add byte [rax+0x63], cl ; ret ; (1 found)
0x41d279: add byte [rax+0x63], cl ; ret ; (1 found)
0x41d2e6: add byte [rax+0x63], cl ; ret ; (1 found)
0x41d2e7: add byte [rax+0x63], cl ; ret ; (1 found)
0x40f0af: add byte [rax+0x752F017B], al ; mov cs, word [rax-0x7D] ; ret ; (1 found)
0x40c615: add byte [rax+rax*8-0x6F6F238B], al ; leave ; ret ; (1 found)
0x4033aa: add byte [rax+rax], al ; add byte [rax], al ; ret ; (1 found)
0x403312: add byte [rax+rax], cl ; add byte [rax], al ; ret ; (1 found)
0x40347b: add byte [rax+rax], dl ; add byte [rax], al ; ret ; (1 found)
0x4092f4: add byte [rax+rdx-0x007F], dh ; jmp qword [rbx+0x6F] ; (1 found)
0x403926: add byte [rax-0x00000001], bh ; pop rbp ; ret ; (1 found)
0x41f7ef: add byte [rax-0x00000002], bh ; ret ; (1 found)
0x41f8f7: add byte [rax-0x00000002], bh ; ret ; (1 found)
0x41f7ee: add byte [rax-0x00000002], dil ; ret ; (1 found)
0x41f7ff: add byte [rax-0x00000003], bh ; ret ; (1 found)
0x41f90f: add byte [rax-0x00000003], bh ; ret ; (1 found)
0x41f80f: add byte [rax-0x00000005], bh ; ret ; (1 found)
0x41f81f: add byte [rax-0x00000007], bh ; ret ; (1 found)
0x41f82f: add byte [rax-0x00000008], bh ; ret ; (1 found)
0x41f93f: add byte [rax-0x00000008], bh ; ret ; (1 found)
0x41f91f: add byte [rax-0x0000000A], bh ; ret ; (1 found)
0x41f92f: add byte [rax-0x0000000B], bh ; ret ; (1 found)
0x404158: add byte [rax-0x007F], cl ; ret ; (1 found)
0x422c26: add byte [rax-0x007F], cl ; ret ; (1 found)
0x419bd2: add byte [rax-0x09], cl ; fadd  [rbx-0x76B7F020] ; retn 0x8D4C ; (1 found)
0x419ca5: add byte [rax-0x09], cl ; fadd  [rbx-0x76B7F020] ; retn 0x8D4C ; (1 found)
0x4131a8: add byte [rax-0x39], cl ; retn 0xFFFF ; (1 found)
0x4231b1: add byte [rax-0x6E], cl ; ret ; (1 found)
0x405adf: add byte [rax-0x73], cl ; add  [r9-0x7D], ecx ; retn 0x4D02 ; (1 found)
0x41596a: add byte [rax-0x75], cl ; lock leave ; ret ; (1 found)
0x403213: add byte [rax-0x77], cl ; add eax, 0x00042D69 ; ret ; (1 found)
0x4274ce: add byte [rax-0x77], cl ; fdivp st0, st0 ; syscall ; (1 found)
0x4274cf: add byte [rax-0x77], cl ; fdivp st0, st0 ; syscall ; (1 found)
0x4275ae: add byte [rax-0x77], cl ; fdivp st0, st0 ; syscall ; (1 found)
0x4275af: add byte [rax-0x77], cl ; fdivp st0, st0 ; syscall ; (1 found)
0x4041d4: add byte [rax-0x77], cl ; fidivr  [rcx+0x0042A6C0] ; call rsi ; (1 found)
0x404f2f: add byte [rax-0x77], cl ; int1 ; call r12 ; (1 found)
0x427204: add byte [rax-0x77], cl ; lock ret ; (1 found)
0x404863: add byte [rax-0x77], cl ; ret ; (1 found)
0x404b6d: add byte [rax-0x77], cl ; ret ; (1 found)
0x404eb2: add byte [rax-0x77], cl ; ret ; (1 found)
0x405082: add byte [rax-0x77], cl ; ret ; (1 found)
0x409054: add byte [rax-0x77], cl ; ret ; (1 found)
0x409800: add byte [rax-0x77], cl ; ret ; (1 found)
0x4098c4: add byte [rax-0x77], cl ; ret ; (1 found)
0x409c1f: add byte [rax-0x77], cl ; ret ; (1 found)
0x40bc00: add byte [rax-0x77], cl ; ret ; (1 found)
0x40d0d2: add byte [rax-0x77], cl ; ret ; (1 found)
0x40d45f: add byte [rax-0x77], cl ; ret ; (1 found)
0x40d663: add byte [rax-0x77], cl ; ret ; (1 found)
0x40d93d: add byte [rax-0x77], cl ; ret ; (1 found)
0x40f119: add byte [rax-0x77], cl ; ret ; (1 found)
0x40f4dd: add byte [rax-0x77], cl ; ret ; (1 found)
0x40f848: add byte [rax-0x77], cl ; ret ; (1 found)
0x40fbcd: add byte [rax-0x77], cl ; ret ; (1 found)
0x40fc28: add byte [rax-0x77], cl ; ret ; (1 found)
0x40fc50: add byte [rax-0x77], cl ; ret ; (1 found)
0x410360: add byte [rax-0x77], cl ; ret ; (1 found)
0x4104dd: add byte [rax-0x77], cl ; ret ; (1 found)
0x4104fd: add byte [rax-0x77], cl ; ret ; (1 found)
0x4120e2: add byte [rax-0x77], cl ; ret ; (1 found)
0x413a40: add byte [rax-0x77], cl ; ret ; (1 found)
0x414630: add byte [rax-0x77], cl ; ret ; (1 found)
0x4171dc: add byte [rax-0x77], cl ; ret ; (1 found)
0x41c879: add byte [rax-0x77], cl ; ret ; (1 found)
0x41d290: add byte [rax-0x77], cl ; ret ; (1 found)
0x41dc75: add byte [rax-0x77], cl ; ret ; (1 found)
0x420d1b: add byte [rax-0x77], cl ; ret ; (1 found)
0x4226bb: add byte [rax-0x77], cl ; ret ; (1 found)
0x423a3e: add byte [rax-0x77], cl ; ret ; (1 found)
0x426d19: add byte [rax-0x77], cl ; ret ; (1 found)
0x4215d2: add byte [rax-0x77], cl ; retn 0x04C6 ; (1 found)
0x40cde4: add byte [rax-0x77], cl ; retn 0x058B ; (1 found)
0x40ce0c: add byte [rax-0x77], cl ; retn 0x058B ; (1 found)
0x40ce24: add byte [rax-0x77], cl ; retn 0x058B ; (1 found)
0x40d104: add byte [rax-0x77], cl ; retn 0x058B ; (1 found)
0x40d244: add byte [rax-0x77], cl ; retn 0x058B ; (1 found)
0x4057e7: add byte [rax-0x77], cl ; retn 0x1FEB ; (1 found)
0x40584f: add byte [rax-0x77], cl ; retn 0x1FEB ; (1 found)
0x423c16: add byte [rax-0x77], cl ; retn 0x214C ; (1 found)
0x419b00: add byte [rax-0x77], cl ; retn 0x2948 ; (1 found)
0x41be8d: add byte [rax-0x77], cl ; retn 0x2948 ; (1 found)
0x40b98c: add byte [rax-0x77], cl ; retn 0x3948 ; (1 found)
0x422187: add byte [rax-0x77], cl ; retn 0x3B48 ; (1 found)
0x422188: add byte [rax-0x77], cl ; retn 0x3B48 ; (1 found)
0x4221d9: add byte [rax-0x77], cl ; retn 0x3B48 ; (1 found)
0x4221da: add byte [rax-0x77], cl ; retn 0x3B48 ; (1 found)
0x42220e: add byte [rax-0x77], cl ; retn 0x3B48 ; (1 found)
0x42220f: add byte [rax-0x77], cl ; retn 0x3B48 ; (1 found)
0x41108e: add byte [rax-0x77], cl ; retn 0x41F3 ; (1 found)
0x4129ff: add byte [rax-0x77], cl ; retn 0x8348 ; (1 found)
0x412d9f: add byte [rax-0x77], cl ; retn 0x8348 ; (1 found)
0x41464e: add byte [rax-0x77], cl ; retn 0x8348 ; (1 found)
0x419856: add byte [rax-0x77], cl ; retn 0x8548 ; (1 found)
0x419d38: add byte [rax-0x77], cl ; retn 0x8548 ; (1 found)
0x426f81: add byte [rax-0x77], cl ; retn 0x8548 ; (1 found)
0x40ef6f: add byte [rax-0x77], cl ; retn 0x8944 ; (1 found)
0x426b11: add byte [rax-0x77], cl ; retn 0x8948 ; (1 found)
0x410096: add byte [rax-0x77], cl ; retn 0x8949 ; (1 found)
0x410892: add byte [rax-0x77], cl ; retn 0x8949 ; (1 found)
0x4169af: add byte [rax-0x77], cl ; retn 0x8B48 ; (1 found)
0x416ad6: add byte [rax-0x77], cl ; retn 0x8B48 ; (1 found)
0x416ad7: add byte [rax-0x77], cl ; retn 0x8B48 ; (1 found)
0x426bf0: add byte [rax-0x77], cl ; retn 0xBE0F ; (1 found)
0x403ff4: add byte [rax-0x77], cl ; retn 0xC031 ; (1 found)
0x423c23: add byte [rax-0x77], cl ; retn 0xC148 ; (1 found)
0x423ca6: add byte [rax-0x77], cl ; retn 0xC148 ; (1 found)
0x4081c7: add byte [rax-0x77], cl ; ror  [rax-0x77], 1 ; retn 0x8B48 ; (1 found)
0x415da7: add byte [rax-0x77], cl ; ror  [rax-0x7D], 1 ; retn 0x4801 ; (1 found)
0x415e77: add byte [rax-0x77], cl ; ror  [rax-0x7D], 1 ; retn 0x4801 ; (1 found)
0x4216a7: add byte [rax-0x77], cl ; ror  [rax-0x7D], 1 ; retn 0x4801 ; (1 found)
0x4123d6: add byte [rax-0x77], cl ; ror byte [rax-0x007F], 1 ; retn 0xFFFF ; (1 found)
0x4199f0: add byte [rax-0x77], cl ; xor byte [r9-0x0A], al ; retn 0x0F0F ; (1 found)
0x40d779: add byte [rax-0x7B], cl ; ror byte [rdi], 0x95 ; retn 0x00B8 ; (1 found)
0x405cc9: add byte [rax-0x7B], cl ; sal byte [rdi+rax-0x77], 0xF7 ; call 0x00000000 ; (1 found)
0x40209c: add byte [rax-0x7D], cl ; ret ; (1 found)
0x40380a: add byte [rax-0x7D], cl ; ret ; (1 found)
0x408a5e: add byte [rax-0x7D], cl ; ret ; (1 found)
0x408a5f: add byte [rax-0x7D], cl ; ret ; (1 found)
0x4095be: add byte [rax-0x7D], cl ; ret ; (1 found)
0x4095bf: add byte [rax-0x7D], cl ; ret ; (1 found)
0x40f13f: add byte [rax-0x7D], cl ; ret ; (1 found)
0x4101ff: add byte [rax-0x7D], cl ; ret ; (1 found)
0x410263: add byte [rax-0x7D], cl ; ret ; (1 found)
0x412377: add byte [rax-0x7D], cl ; ret ; (1 found)
0x4204c7: add byte [rax-0x7D], cl ; ret ; (1 found)
0x423f17: add byte [rax-0x7D], cl ; ret ; (1 found)
0x42427f: add byte [rax-0x7D], cl ; ret ; (1 found)
0x42302f: add byte [rax-0x7D], cl ; retn 0x0F01 ; (1 found)
0x42362c: add byte [rax-0x7D], cl ; retn 0x3108 ; (1 found)
0x4237cf: add byte [rax-0x7D], cl ; retn 0x4401 ; (1 found)
0x42370f: add byte [rax-0x7D], cl ; retn 0x4501 ; (1 found)
0x422eff: add byte [rax-0x7D], cl ; retn 0x4801 ; (1 found)
0x422fbf: add byte [rax-0x7D], cl ; retn 0x4801 ; (1 found)
0x421457: add byte [rax-0x7D], cl ; retn 0x4808 ; (1 found)
0x42205e: add byte [rax-0x7D], cl ; retn 0x4808 ; (1 found)
0x42205f: add byte [rax-0x7D], cl ; retn 0x4808 ; (1 found)
0x4278be: add byte [rax-0x7D], cl ; retn 0x4808 ; (1 found)
0x416277: add byte [rax-0x7D], cl ; retn 0x4908 ; (1 found)
0x40fe79: add byte [rax-0x7D], cl ; retn 0x4C10 ; (1 found)
0x4106a9: add byte [rax-0x7D], cl ; retn 0x4C10 ; (1 found)
0x42039f: add byte [rax-0x7D], cl ; retn 0x6610 ; (1 found)
0x42040f: add byte [rax-0x7D], cl ; retn 0xC510 ; (1 found)
0x405bdb: add byte [rax-0x7D], cl ; retn 0xEB01 ; (1 found)
0x40c260: add byte [rax-0x7D], cl ; retn 0xEB02 ; (1 found)
0x40c261: add byte [rax-0x7D], cl ; retn 0xEB02 ; (1 found)
0x403809: add byte [rax-0x7D], r9L ; ret ; (1 found)
0x423c20: add byte [rax], 0x00 ; add byte [rax-0x77], cl ; retn 0xC148 ; (1 found)
0x423ca3: add byte [rax], 0x00 ; add byte [rax-0x77], cl ; retn 0xC148 ; (1 found)
0x409b8b: add byte [rax], 0x00 ; add byte [rax], al ; ret ; (1 found)
0x411ceb: add byte [rax], 0x00 ; add byte [rax], al ; ret ; (1 found)
0x422ad3: add byte [rax], 0x00 ; add byte [rax], al ; ret ; (1 found)
0x41deb8: add byte [rax], 0x00 ; add byte [rbp+0x31], al ; call qword [rax-0x74D174B3] ; (1 found)
0x402ae6: add byte [rax], al ; adc dh, dh ; retn 0x7408 ; (1 found)
0x426c86: add byte [rax], al ; add al, bh ; syscall ; (1 found)
0x4131d5: add byte [rax], al ; add al, ch ; ret ; (1 found)
0x402161: add byte [rax], al ; add byte [0x83480F75+rbp], bh ; retn 0x4101 ; (1 found)
0x41e325: add byte [rax], al ; add byte [rax+0x00000001], bh ; ret ; (1 found)
0x4164cd: add byte [rax], al ; add byte [rax+0x00000137], bh ; syscall ; (1 found)
0x41ae9f: add byte [rax], al ; add byte [rax+0x39], cl ; ret ; (1 found)
0x40bd4d: add byte [rax], al ; add byte [rax+0x63], cl ; call qword [rbp+0x48] ; (1 found)
0x406c65: add byte [rax], al ; add byte [rax+0x63], cl ; ret ; (1 found)
0x41f7fd: add byte [rax], al ; add byte [rax-0x00000003], bh ; ret ; (1 found)
0x41f90d: add byte [rax], al ; add byte [rax-0x00000003], bh ; ret ; (1 found)
0x41f80d: add byte [rax], al ; add byte [rax-0x00000005], bh ; ret ; (1 found)
0x41f81d: add byte [rax], al ; add byte [rax-0x00000007], bh ; ret ; (1 found)
0x41f82d: add byte [rax], al ; add byte [rax-0x00000008], bh ; ret ; (1 found)
0x41f93d: add byte [rax], al ; add byte [rax-0x00000008], bh ; ret ; (1 found)
0x41f91d: add byte [rax], al ; add byte [rax-0x0000000A], bh ; ret ; (1 found)
0x41f92d: add byte [rax], al ; add byte [rax-0x0000000B], bh ; ret ; (1 found)
0x404eb0: add byte [rax], al ; add byte [rax-0x77], cl ; ret ; (1 found)
0x409c1d: add byte [rax], al ; add byte [rax-0x77], cl ; ret ; (1 found)
0x40fc4e: add byte [rax], al ; add byte [rax-0x77], cl ; ret ; (1 found)
0x4104fb: add byte [rax], al ; add byte [rax-0x77], cl ; ret ; (1 found)
0x423a3c: add byte [rax], al ; add byte [rax-0x77], cl ; ret ; (1 found)
0x41108c: add byte [rax], al ; add byte [rax-0x77], cl ; retn 0x41F3 ; (1 found)
0x4129fd: add byte [rax], al ; add byte [rax-0x77], cl ; retn 0x8348 ; (1 found)
0x412d9d: add byte [rax], al ; add byte [rax-0x77], cl ; retn 0x8348 ; (1 found)
0x426bee: add byte [rax], al ; add byte [rax-0x77], cl ; retn 0xBE0F ; (1 found)
0x423c21: add byte [rax], al ; add byte [rax-0x77], cl ; retn 0xC148 ; (1 found)
0x423ca4: add byte [rax], al ; add byte [rax-0x77], cl ; retn 0xC148 ; (1 found)
0x410261: add byte [rax], al ; add byte [rax-0x7D], cl ; ret ; (1 found)
0x4204c5: add byte [rax], al ; add byte [rax-0x7D], cl ; ret ; (1 found)
0x42427d: add byte [rax], al ; add byte [rax-0x7D], cl ; ret ; (1 found)
0x42370d: add byte [rax], al ; add byte [rax-0x7D], cl ; retn 0x4501 ; (1 found)
0x422efd: add byte [rax], al ; add byte [rax-0x7D], cl ; retn 0x4801 ; (1 found)
0x422fbd: add byte [rax], al ; add byte [rax-0x7D], cl ; retn 0x4801 ; (1 found)
0x42039d: add byte [rax], al ; add byte [rax-0x7D], cl ; retn 0x6610 ; (1 found)
0x42040d: add byte [rax], al ; add byte [rax-0x7D], cl ; retn 0xC510 ; (1 found)
0x405bd9: add byte [rax], al ; add byte [rax-0x7D], cl ; retn 0xEB01 ; (1 found)
0x4007c4: add byte [rax], al ; add byte [rax], al ; jmp rax ; (1 found)
0x409b8c: add byte [rax], al ; add byte [rax], al ; ret ; (1 found)
0x411cec: add byte [rax], al ; add byte [rax], al ; ret ; (1 found)
0x422ad4: add byte [rax], al ; add byte [rax], al ; ret ; (1 found)
0x4247ec: add byte [rax], al ; add byte [rax], al ; ret ; (1 found)
0x426fdc: add byte [rax], al ; add byte [rax], al ; ret ; (1 found)
0x41deb9: add byte [rax], al ; add byte [rbp+0x31], al ; call qword [rax-0x74D174B3] ; (1 found)
0x40ed8d: add byte [rax], al ; add byte [rbx+0x014401C1], al ; retn 0x3944 ; (1 found)
0x41734d: add byte [rax], al ; add byte [rbx-0x76B7DFB9], cl ; retn 0x0149 ; (1 found)
0x4074bd: add byte [rax], al ; add byte [rbx-0x7CB7FE3F], al ; retn 0x8B14 ; (1 found)
0x41b31a: add byte [rax], al ; add byte [rcx+0x39], cl ; ret ; (1 found)
0x40d7e2: add byte [rax], al ; add byte [rcx+rcx*4-0x09], cl ; call 0x00000000 ; (1 found)
0x409e1e: add byte [rax], al ; add byte [rcx+rcx*4-0x1E], cl ; call rax ; (1 found)
0x41d7c9: add byte [rax], al ; add byte [rcx+rcx*4-0x28], cl ; ret ; (1 found)
0x41eea5: add byte [rax], al ; add byte [rcx-0x173FCE21], cl ; retn 0x0049 ; (1 found)
0x4065fd: add byte [rax], al ; add byte [rdi], cl ; retn 0x0589 ; (1 found)
0x41cc80: add byte [rax], al ; add byte [rdi], cl ; retn 0x4589 ; (1 found)
0x40f777: add byte [rax], al ; add cl, cl ; ret ; (1 found)
0x410597: add byte [rax], al ; add cl, cl ; ret ; (1 found)
0x4159ee: add byte [rax], al ; add cl, cl ; ret ; (1 found)
0x40f90d: add byte [rax], al ; add dh, dh ; ret ; (1 found)
0x4149ed: add byte [rax], al ; add dh, dh ; ret ; (1 found)
0x4208dd: add byte [rax], al ; add dh, dh ; ret ; (1 found)
0x420909: add byte [rax], al ; add dh, dh ; ret ; (1 found)
0x41f9c9: add byte [rax], al ; add dh, dh ; retn 0x0F04 ; (1 found)
0x415653: add byte [rax], al ; add dh, dh ; retn 0x7408 ; (1 found)
0x427218: add byte [rax], al ; add dh, dh ; retn 0x7450 ; (1 found)
0x41647d: add byte [rax], al ; add dh, dh ; retn 0x7508 ; (1 found)
0x4164a5: add byte [rax], al ; add dh, dh ; retn 0x7540 ; (1 found)
0x409a7e: add byte [rax], al ; add eax, 0x01 ; ret ; (1 found)
0x417027: add byte [rax], al ; add rax, 0x3C ; ret ; (1 found)
0x40b786: add byte [rax], al ; and byte [rcx-0x0A], al ; retn 0x0F49 ; (1 found)
0x402af7: add byte [rax], al ; and dh, dh ; retn 0x7420 ; (1 found)
0x401a3b: add byte [rax], al ; call qword [rax] ; (1 found)
0x404057: add byte [rax], al ; call rbx ; (1 found)
0x4043ec: add byte [rax], al ; call rbx ; (1 found)
0x426c87: add byte [rax], al ; clc ; syscall ; (1 found)
0x40076a: add byte [rax], al ; cmp bh, 0xFF ; jmp rax ; (1 found)
0x413524: add byte [rax], al ; dec  [rax-0x77] ; retn 0x214C ; (1 found)
0x423dc7: add byte [rax], al ; dec  [rax-0x77] ; retn 0xC148 ; (1 found)
0x4007c6: add byte [rax], al ; jmp rax ; (1 found)
0x40c691: add byte [rax], al ; leave ; ret ; (1 found)
0x40c692: add byte [rax], al ; leave ; ret ; (1 found)
0x40c693: add byte [rax], al ; leave ; ret ; (1 found)
0x40f778: add byte [rax], al ; leave ; ret ; (1 found)
0x410598: add byte [rax], al ; leave ; ret ; (1 found)
0x4159ef: add byte [rax], al ; leave ; ret ; (1 found)
0x41ef38: add byte [rax], al ; leave ; ret ; (1 found)
0x422d99: add byte [rax], al ; leave ; ret ; (1 found)
0x4230e4: add byte [rax], al ; leave ; ret ; (1 found)
0x423839: add byte [rax], al ; leave ; ret ; (1 found)
0x4033a3: add byte [rax], al ; mov  [0x0000000000445F88], 0x00000004 ; ret ; (1 found)
0x403420: add byte [rax], al ; mov  [0x0000000000445F88], 0x00000007 ; ret ; (1 found)
0x404cc0: add byte [rax], al ; mov  [rsi], edi ; ret ; (1 found)
0x41e326: add byte [rax], al ; mov eax, 0x00000001 ; ret ; (1 found)
0x4164ce: add byte [rax], al ; mov eax, 0x00000137 ; syscall ; (1 found)
0x416496: add byte [rax], al ; mov eax, 0x0100001B ; syscall ; (1 found)
0x41f92e: add byte [rax], al ; mov eax, 0xFFFFFFF5 ; ret ; (1 found)
0x41f91e: add byte [rax], al ; mov eax, 0xFFFFFFF6 ; ret ; (1 found)
0x41f82e: add byte [rax], al ; mov eax, 0xFFFFFFF8 ; ret ; (1 found)
0x41f93e: add byte [rax], al ; mov eax, 0xFFFFFFF8 ; ret ; (1 found)
0x41f81e: add byte [rax], al ; mov eax, 0xFFFFFFF9 ; ret ; (1 found)
0x41f80e: add byte [rax], al ; mov eax, 0xFFFFFFFB ; ret ; (1 found)
0x41f7fe: add byte [rax], al ; mov eax, 0xFFFFFFFD ; ret ; (1 found)
0x41f90e: add byte [rax], al ; mov eax, 0xFFFFFFFD ; ret ; (1 found)
0x40e1de: add byte [rax], al ; mov eax, ecx ; ret ; (1 found)
0x41dc02: add byte [rax], al ; mov eax, edx ; ret ; (1 found)
0x42544b: add byte [rax], al ; mov eax, edx ; ret ; (1 found)
0x403212: add byte [rax], al ; mov qword [0x0000000000445F84], rax ; ret ; (1 found)
0x41d5c6: add byte [rax], al ; mov rax, 0xFFFFFFFFFFFFFFFF ; ret ; (1 found)
0x42723c: add byte [rax], al ; mov rax, qword [rax+rdx+0x00001480] ; ret ; (1 found)
0x427264: add byte [rax], al ; mov rax, qword [rax+rdx+0x00001480] ; ret ; (1 found)
0x41d7ca: add byte [rax], al ; mov rax, r11 ; ret ; (1 found)
0x41c26a: add byte [rax], al ; mov rdi, qword [r12+0x08] ; call qword [r12+0x00] ; (1 found)
0x40d7e3: add byte [rax], al ; mov rdi, r14 ; call 0x00000000 ; (1 found)
0x411494: add byte [rax], al ; mov rdi, r14 ; call r13 ; (1 found)
0x424266: add byte [rax], al ; movzx ecx, byte [rcx+0x0042BD40] ; jmp qword [0x0042BDC0+rcx*8] ; (1 found)
0x411247: add byte [rax], al ; movzx edx, cl ; ret ; (1 found)
0x425b29: add byte [rax], al ; movzx edx, dl ; jmp qword [0x0042AEF0+rdx*8] ; (1 found)
0x42748a: add byte [rax], al ; nop  [rax+0x00] ; ret ; (1 found)
0x42765b: add byte [rax], al ; nop  [rax] ; ret ; (1 found)
0x401972: add byte [rax], al ; pop rbp ; ret ; (1 found)
0x401eba: add byte [rax], al ; pop rbp ; ret ; (1 found)
0x401ebb: add byte [rax], al ; pop rbp ; ret ; (1 found)
0x401ed8: add byte [rax], al ; pop rbp ; ret ; (1 found)
0x401ed9: add byte [rax], al ; pop rbp ; ret ; (1 found)
0x401eea: add byte [rax], al ; pop rbp ; ret ; (1 found)
0x401eeb: add byte [rax], al ; pop rbp ; ret ; (1 found)
0x401fb2: add byte [rax], al ; pop rbp ; ret ; (1 found)
0x401fb3: add byte [rax], al ; pop rbp ; ret ; (1 found)
0x403680: add byte [rax], al ; pop rbp ; ret ; (1 found)
0x403a38: add byte [rax], al ; pop rbp ; ret ; (1 found)
0x404774: add byte [rax], al ; pop rbp ; ret ; (1 found)
0x404775: add byte [rax], al ; pop rbp ; ret ; (1 found)
0x4047e5: add byte [rax], al ; pop rbp ; ret ; (1 found)
0x40504b: add byte [rax], al ; pop rbp ; ret ; (1 found)
0x4050db: add byte [rax], al ; pop rbp ; ret ; (1 found)
0x40cab2: add byte [rax], al ; pop rbp ; ret ; (1 found)
0x40cf8d: add byte [rax], al ; pop rbp ; ret ; (1 found)
0x40d328: add byte [rax], al ; pop rbp ; ret ; (1 found)
0x410154: add byte [rax], al ; pop rbp ; ret ; (1 found)
0x410163: add byte [rax], al ; pop rbp ; ret ; (1 found)
0x4114fe: add byte [rax], al ; pop rbp ; ret ; (1 found)
0x41152d: add byte [rax], al ; pop rbp ; ret ; (1 found)
0x41152e: add byte [rax], al ; pop rbp ; ret ; (1 found)
0x411eae: add byte [rax], al ; pop rbp ; ret ; (1 found)
0x411edd: add byte [rax], al ; pop rbp ; ret ; (1 found)
0x411ede: add byte [rax], al ; pop rbp ; ret ; (1 found)
0x414eb2: add byte [rax], al ; pop rbp ; ret ; (1 found)
0x414ec3: add byte [rax], al ; pop rbp ; ret ; (1 found)
0x41e272: add byte [rax], al ; pop rbp ; ret ; (1 found)
0x41e283: add byte [rax], al ; pop rbp ; ret ; (1 found)
0x41e2b2: add byte [rax], al ; pop rbp ; ret ; (1 found)
0x41e2c3: add byte [rax], al ; pop rbp ; ret ; (1 found)
0x41e2f2: add byte [rax], al ; pop rbp ; ret ; (1 found)
0x41e303: add byte [rax], al ; pop rbp ; ret ; (1 found)
0x42079e: add byte [rax], al ; pop rbp ; ret ; (1 found)
0x42355e: add byte [rax], al ; pop rbp ; ret ; (1 found)
0x423866: add byte [rax], al ; pop rbp ; ret ; (1 found)
0x424592: add byte [rax], al ; pop rbp ; ret ; (1 found)
0x4245e7: add byte [rax], al ; pop rbp ; ret ; (1 found)
0x4248d9: add byte [rax], al ; pop rbp ; ret ; (1 found)
0x424bae: add byte [rax], al ; pop rbp ; ret ; (1 found)
0x4250dc: add byte [rax], al ; pop rbp ; ret ; (1 found)
0x4251ac: add byte [rax], al ; pop rbp ; ret ; (1 found)
0x402f2c: add byte [rax], al ; ret ; (1 found)
0x402f6d: add byte [rax], al ; ret ; (1 found)
0x402f7a: add byte [rax], al ; ret ; (1 found)
0x402f9d: add byte [rax], al ; ret ; (1 found)
0x402fa7: add byte [rax], al ; ret ; (1 found)
0x402fc5: add byte [rax], al ; ret ; (1 found)
0x402fcf: add byte [rax], al ; ret ; (1 found)
0x403006: add byte [rax], al ; ret ; (1 found)
0x403019: add byte [rax], al ; ret ; (1 found)
0x403035: add byte [rax], al ; ret ; (1 found)
0x4030b9: add byte [rax], al ; ret ; (1 found)
0x403124: add byte [rax], al ; ret ; (1 found)
0x4031fb: add byte [rax], al ; ret ; (1 found)
0x403271: add byte [rax], al ; ret ; (1 found)
0x403280: add byte [rax], al ; ret ; (1 found)
0x40328b: add byte [rax], al ; ret ; (1 found)
0x4032ff: add byte [rax], al ; ret ; (1 found)
0x40330a: add byte [rax], al ; ret ; (1 found)
0x403315: add byte [rax], al ; ret ; (1 found)
0x403320: add byte [rax], al ; ret ; (1 found)
0x40332b: add byte [rax], al ; ret ; (1 found)
0x403336: add byte [rax], al ; ret ; (1 found)
0x403341: add byte [rax], al ; ret ; (1 found)
0x40334c: add byte [rax], al ; ret ; (1 found)
0x403357: add byte [rax], al ; ret ; (1 found)
0x403385: add byte [rax], al ; ret ; (1 found)
0x4033ad: add byte [rax], al ; ret ; (1 found)
0x4033b8: add byte [rax], al ; ret ; (1 found)
0x4033c3: add byte [rax], al ; ret ; (1 found)
0x4033ce: add byte [rax], al ; ret ; (1 found)
0x4033eb: add byte [rax], al ; ret ; (1 found)
0x4033fe: add byte [rax], al ; ret ; (1 found)
0x403416: add byte [rax], al ; ret ; (1 found)
0x40342a: add byte [rax], al ; ret ; (1 found)
0x403435: add byte [rax], al ; ret ; (1 found)
0x40347e: add byte [rax], al ; ret ; (1 found)
0x403489: add byte [rax], al ; ret ; (1 found)
0x4034bd: add byte [rax], al ; ret ; (1 found)
0x4034d3: add byte [rax], al ; ret ; (1 found)
0x409b8e: add byte [rax], al ; ret ; (1 found)
0x40a698: add byte [rax], al ; ret ; (1 found)
0x40fe02: add byte [rax], al ; ret ; (1 found)
0x411cee: add byte [rax], al ; ret ; (1 found)
0x4120a8: add byte [rax], al ; ret ; (1 found)
0x415fa8: add byte [rax], al ; ret ; (1 found)
0x41b396: add byte [rax], al ; ret ; (1 found)
0x41d2fe: add byte [rax], al ; ret ; (1 found)
0x41e32b: add byte [rax], al ; ret ; (1 found)
0x41f2df: add byte [rax], al ; ret ; (1 found)
0x41f2e0: add byte [rax], al ; ret ; (1 found)
0x41f2e1: add byte [rax], al ; ret ; (1 found)
0x42034b: add byte [rax], al ; ret ; (1 found)
0x421abe: add byte [rax], al ; ret ; (1 found)
0x422ad6: add byte [rax], al ; ret ; (1 found)
0x4247ee: add byte [rax], al ; ret ; (1 found)
0x425290: add byte [rax], al ; ret ; (1 found)
0x426fde: add byte [rax], al ; ret ; (1 found)
0x42710b: add byte [rax], al ; ret ; (1 found)
0x427244: add byte [rax], al ; ret ; (1 found)
0x42726c: add byte [rax], al ; ret ; (1 found)
0x42727d: add byte [rax], al ; ret ; (1 found)
0x423bb6: add byte [rax], al ; sub rax, rdi ; ret ; (1 found)
0x40d406: add byte [rax], al ; sub rbx, 0x08 ; call qword [rbx] ; (1 found)
0x426ac3: add byte [rax], al ; sub rsp, 0x20 ; call r13 ; (1 found)
0x416470: add byte [rax], al ; syscall ; (1 found)
0x41648d: add byte [rax], al ; syscall ; (1 found)
0x4164bf: add byte [rax], al ; syscall ; (1 found)
0x4164d3: add byte [rax], al ; syscall ; (1 found)
0x4089fe: add byte [rax], al ; xor eax, eax ; ret ; (1 found)
0x412696: add byte [rax], al ; xor eax, eax ; ret ; (1 found)
0x416206: add byte [rax], al ; xor eax, eax ; ret ; (1 found)
0x416a46: add byte [rax], al ; xor eax, eax ; ret ; (1 found)
0x41e816: add byte [rax], al ; xor eax, eax ; ret ; (1 found)
0x422d29: add byte [rax], al ; xor eax, eax ; ret ; (1 found)
0x42342d: add byte [rax], al ; xor eax, eax ; ret ; (1 found)
0x423494: add byte [rax], al ; xor eax, eax ; ret ; (1 found)
0x424b47: add byte [rax], al ; xor eax, eax ; ret ; (1 found)
0x4018c6: add byte [rax], al ; xor r8d, r8d ; syscall ; (1 found)
0x416495: add byte [rax], r8L ; mov eax, 0x0100001B ; syscall ; (1 found)
0x40e1dd: add byte [rax], r8L ; mov eax, ecx ; ret ; (1 found)
0x41d5c5: add byte [rax], r8L ; mov rax, 0xFFFFFFFFFFFFFFFF ; ret ; (1 found)
0x41b395: add byte [rax], r8L ; ret ; (1 found)
0x41d2fd: add byte [rax], r8L ; ret ; (1 found)
0x421abd: add byte [rax], r8L ; ret ; (1 found)
0x40d405: add byte [rax], r8L ; sub rbx, 0x08 ; call qword [rbx] ; (1 found)
0x4089fd: add byte [rax], r8L ; xor eax, eax ; ret ; (1 found)
0x416205: add byte [rax], r8L ; xor eax, eax ; ret ; (1 found)
0x4159ad: add byte [rbp+0x08], dh ; leave ; ret ; (1 found)
0x415923: add byte [rbp+0x0A], dh ; ret ; (1 found)
0x413f3b: add byte [rbp+0x31], al ; call qword [rax+0x241C8949] ; (1 found)
0x41debb: add byte [rbp+0x31], al ; call qword [rax-0x74D174B3] ; (1 found)
0x4187cb: add byte [rbp+0x39], cl ; ret ; (1 found)
0x418b24: add byte [rbp+0x39], cl ; retn 0x820F ; (1 found)
0x427275: add byte [rbp+0x48], ah ; mov  [0x00001480+rax*8], edi ; ret ; (1 found)
0x41e3fc: add byte [rbp+0x5D0778C0], al ; ret ; (1 found)
0x40f1b7: add byte [rbp-0x09998B40], al ; ret ; (1 found)
0x41011a: add byte [rbp-0x11], dh ; ret ; (1 found)
0x426fd1: add byte [rbp-0x1B], dh ; pop rbp ; ret ; (1 found)
0x42705a: add byte [rbp-0x26], dh ; pop rbp ; ret ; (1 found)
0x41355e: add byte [rbp-0x3A], dh ; ret ; (1 found)
0x40ed8f: add byte [rbx+0x014401C1], al ; retn 0x3944 ; (1 found)
0x4208d0: add byte [rbx+0x0257691D], cl ; add dh, dh ; ret ; (1 found)
0x4034c5: add byte [rbx+0x0A770FFE], al ; mov  [0x0000000000445F88], 0x0000001D ; ret ; (1 found)
0x417337: add byte [rbx+0x438B1C53], cl ; and byte [rcx], bh ; retn 0x8E73 ; (1 found)
0x4141c0: add byte [rbx+rcx*4+0x4D], cl ; mov eax, 0xFFFBEEE9 ; jmp qword [rsi+0x0F] ; (1 found)
0x415a54: add byte [rbx-0x6AF00008], al ; retn 0x8548 ; (1 found)
0x41734f: add byte [rbx-0x76B7DFB9], cl ; retn 0x0149 ; (1 found)
0x4150b4: add byte [rbx-0x7BF0FE08], al ; retn 0x0000 ; (1 found)
0x4074bf: add byte [rbx-0x7CB7FE3F], al ; retn 0x8B14 ; (1 found)
0x41f9c2: add byte [rbx-0x7CF0F706], al ; mov esp, 0xF6000000 ; retn 0x0F04 ; (1 found)
0x404053: add byte [rcx+0x0000FDE9], bh ; call rbx ; (1 found)
0x4043e8: add byte [rcx+0x0000FDE9], bh ; call rbx ; (1 found)
0x402884: add byte [rcx+0x0F], al ; xchg eax, esp ; retn 0x8445 ; (1 found)
0x424115: add byte [rcx+0x39], al ; rol byte [rdi+rcx+0x47], 1 ; retn 0x8341 ; (1 found)
0x41b31c: add byte [rcx+0x39], cl ; ret ; (1 found)
0x403ccc: add byte [rcx+0x58FF6A08], cl ; pop rbp ; ret ; (1 found)
0x4080d8: add byte [rcx+0x5C415BD8], cl ; pop rbp ; ret ; (1 found)
0x415705: add byte [rcx+0x5C415BD8], cl ; pop rbp ; ret ; (1 found)
0x401da7: add byte [rcx+0x63], cl ; ror byte [rcx-0x77], 0x34 ; ret ; (1 found)
0x4092ee: add byte [rcx+0x657865FF], al ; add byte [rax+rdx-0x007F], dh ; jmp qword [rbx+0x6F] ; (1 found)
0x40ce77: add byte [rcx+0x730348CE], cl ; sub byte [rax-0x77], cl ; retn 0x8948 ; (1 found)
0x40d7e4: add byte [rcx+rcx*4-0x09], cl ; call 0x00000000 ; (1 found)
0x411495: add byte [rcx+rcx*4-0x09], cl ; call r13 ; (1 found)
0x4207f7: add byte [rcx+rcx*4-0x1A], cl ; mov edi, ebx ; call rax ; (1 found)
0x409e20: add byte [rcx+rcx*4-0x1E], cl ; call rax ; (1 found)
0x409e21: add byte [rcx+rcx*4-0x1E], cl ; call rax ; (1 found)
0x40416c: add byte [rcx+rcx*4-0x1E], cl ; mov ecx, 0x0042A684 ; call rsi ; (1 found)
0x404197: add byte [rcx+rcx*4-0x1E], cl ; mov ecx, 0x0042A6AC ; call rsi ; (1 found)
0x4041c0: add byte [rcx+rcx*4-0x1E], cl ; mov ecx, 0x0042A6B6 ; call rsi ; (1 found)
0x426c65: add byte [rcx+rcx*4-0x20], cl ; clc ; syscall ; (1 found)
0x41d7cb: add byte [rcx+rcx*4-0x28], cl ; ret ; (1 found)
0x422451: add byte [rcx+rcx*4-0x40], cl ; ret ; (1 found)
0x40a705: add byte [rcx+rdi+0x25], al ; ret ; (1 found)
0x40a34b: add byte [rcx-0x0004677B], cl ; jmp qword [rbp+0x48] ; (1 found)
0x41067a: add byte [rcx-0x0A], al ; ret ; (1 found)
0x41080f: add byte [rcx-0x0A], al ; ret ; (1 found)
0x40fe43: add byte [rcx-0x0A], al ; retn 0x0F01 ; (1 found)
0x40ff23: add byte [rcx-0x0A], al ; retn 0x7579 ; (1 found)
0x41eea7: add byte [rcx-0x173FCE21], cl ; retn 0x0049 ; (1 found)
0x41d80d: add byte [rcx-0x77], cl ; mov rax, r11 ; ret ; (1 found)
0x41766b: add byte [rcx-0x77], cl ; retn 0x8949 ; (1 found)
0x402ad5: add byte [rcx], al ; add dh, dh ; retn 0x7404 ; (1 found)
0x402722: add byte [rcx], al ; pop rbp ; ret ; (1 found)
0x4121cf: add byte [rcx], al ; pop rbp ; ret ; (1 found)
0x41649b: add byte [rcx], al ; syscall ; (1 found)
0x427ab2: add byte [rcx], bh ; ret ; (1 found)
0x40ca17: add byte [rcx], bh ; retn 0x1473 ; (1 found)
0x407a55: add byte [rcx], bh ; retn 0x1674 ; (1 found)
0x407a60: add byte [rcx], bh ; retn 0x3D75 ; (1 found)
0x40afc1: add byte [rcx], bh ; retn 0x850F ; (1 found)
0x40dec2: add byte [rcx], bh ; ror byte [rdi], 1 ; retn 0xF189 ; (1 found)
0x41792a: add byte [rcx], ch ; fimul  [rbp-0x76B7AFFC] ; ret ; (1 found)
0x427aab: add byte [rcx], ch ; ret ; (1 found)
0x40ca5f: add byte [rcx], ch ; retn 0x6348 ; (1 found)
0x40828c: add byte [rcx], cl ; ret ; (1 found)
0x418acf: add byte [rcx], cl ; retn 0x1389 ; (1 found)
0x40070e: add byte [rcx], dh ; jmp qword [rsi-0x55] ; (1 found)
0x425fd6: add byte [rcx], dh ; ror byte [rax+0x63], cl ; retn 0x8D48 ; (1 found)
0x40ca16: add byte [rcx], dil ; retn 0x1473 ; (1 found)
0x4164c0: add byte [rdi], cl ; add eax, 0xC9F8458B ; ret ; (1 found)
0x411248: add byte [rdi], cl ; mov dh, 0xD1 ; ret ; (1 found)
0x425b2a: add byte [rdi], cl ; mov dh, 0xD2 ; jmp qword [0x0042AEF0+rdx*8] ; (1 found)
0x4065ff: add byte [rdi], cl ; retn 0x0589 ; (1 found)
0x41cc82: add byte [rdi], cl ; retn 0x4589 ; (1 found)
0x41d45c: add byte [rdi], cl ; test byte [rbp-0x77000000], cl ; retn 0xE281 ; (1 found)
0x40c453: add byte [rdi], cl ; test byte [rdx-0x76000002], cl ; ret ; (1 found)
0x4187c5: add byte [rdi], cl ; test byte [rsi+rax+0x394D0000], al ; ret ; (1 found)
0x425b57: add byte [rdi], cl ; xchg eax, ebp ; retn 0xB60F ; (1 found)
0x422149: add byte [rdi], cl ; xchg eax, ebx ; retn 0xB60F ; (1 found)
0x42214a: add byte [rdi], cl ; xchg eax, ebx ; retn 0xB60F ; (1 found)
0x427667: add byte [rdi], cl ; xchg eax, edx ; retn 0xC031 ; (1 found)
0x407bce: add byte [rdi], cl ; xchg eax, esp ; ret ; (1 found)
0x427666: add byte [rdi], r9L ; xchg eax, edx ; retn 0xC031 ; (1 found)
0x426c83: add byte [rdx+0x00000001], bh ; clc ; syscall ; (1 found)
0x425447: add byte [rdx+0x00000005], bh ; mov eax, edx ; ret ; (1 found)
0x4100df: add byte [rdx+0x06], dh ; ret ; (1 found)
0x4031ef: add byte [rdx-0x3D], dh ; mov  [0x0000000000445F84], 0x00000002 ; ret ; (1 found)
0x4245f3: add byte [rdx], al ; mov esi, edx ; syscall ; (1 found)
0x40015f: add byte [rsi+rcx-0x0D14EF33], dh ; ret ; (1 found)
0x40f3aa: add byte [rsi-0x77], ah ; or cl, byte [rax-0x7D] ; retn 0x4802 ; (1 found)
0x40c25f: add ch, byte [rsi] ; add byte [rax-0x7D], cl ; retn 0xEB02 ; (1 found)
0x40e420: add cl, byte [rax+0x39] ; retn 0x1A74 ; (1 found)
0x40f3b1: add cl, byte [rax+0x39] ; retn 0xE975 ; (1 found)
0x424bf8: add cl, byte [rax-0x6E] ; ret ; (1 found)
0x4216d4: add cl, byte [rax-0x77] ; retn 0x5DE9 ; (1 found)
0x4216d5: add cl, byte [rax-0x77] ; retn 0x5DE9 ; (1 found)
0x41d88b: add cl, byte [rax-0x77] ; retn 0x840F ; (1 found)
0x41d7c2: add cl, byte [rax-0x77] ; retn 0x850F ; (1 found)
0x41d82f: add cl, byte [rax-0x77] ; retn 0x9774 ; (1 found)
0x41d7e7: add cl, byte [rax-0x77] ; retn 0xDF74 ; (1 found)
0x40e435: add cl, byte [rax-0x7D] ; retn 0x4804 ; (1 found)
0x40e436: add cl, byte [rax-0x7D] ; retn 0x4804 ; (1 found)
0x40219f: add cl, byte [rax-0x7D] ; retn 0x8501 ; (1 found)
0x4021f7: add cl, byte [rax-0x7D] ; retn 0x8501 ; (1 found)
0x40224f: add cl, byte [rax-0x7D] ; retn 0x8501 ; (1 found)
0x40e174: add cl, byte [rcx+0x39] ; retn 0xEE75 ; (1 found)
0x41de6c: add cl, byte [rdi] ; test  [0xFFFFFFFF8941DE77], esi ; retn 0xF229 ; (1 found)
0x425454: add cl, ch ; imul edi, edi, 0xFF ; call qword [rbp+0x48] ; (1 found)
0x403d02: add cl, ch ; sar bh, 0xFF ; call qword [rax-0x6F6F6F70] ; (1 found)
0x423fa5: add cl, ch ; sar dh, 0xFF ; jmp qword [rbp+0x48] ; (1 found)
0x40b606: add cl, ch ; setnl bh ; call qword [rax-0x6F6F6F70] ; (1 found)
0x4019cc: add cl, cl ; ret ; (1 found)
0x40516b: add cl, cl ; ret ; (1 found)
0x4051f2: add cl, cl ; ret ; (1 found)
0x40520d: add cl, cl ; ret ; (1 found)
0x405261: add cl, cl ; ret ; (1 found)
0x40529a: add cl, cl ; ret ; (1 found)
0x4052d0: add cl, cl ; ret ; (1 found)
0x4089ec: add cl, cl ; ret ; (1 found)
0x409797: add cl, cl ; ret ; (1 found)
0x409972: add cl, cl ; ret ; (1 found)
0x4099a2: add cl, cl ; ret ; (1 found)
0x40b498: add cl, cl ; ret ; (1 found)
0x40b4b6: add cl, cl ; ret ; (1 found)
0x40b4d4: add cl, cl ; ret ; (1 found)
0x40b50d: add cl, cl ; ret ; (1 found)
0x40b52b: add cl, cl ; ret ; (1 found)
0x40b57f: add cl, cl ; ret ; (1 found)
0x40b59d: add cl, cl ; ret ; (1 found)
0x40b5d3: add cl, cl ; ret ; (1 found)
0x40b678: add cl, cl ; ret ; (1 found)
0x40b6b1: add cl, cl ; ret ; (1 found)
0x40b6ea: add cl, cl ; ret ; (1 found)
0x40b708: add cl, cl ; ret ; (1 found)
0x40bf9f: add cl, cl ; ret ; (1 found)
0x40bfbd: add cl, cl ; ret ; (1 found)
0x40c011: add cl, cl ; ret ; (1 found)
0x40c02f: add cl, cl ; ret ; (1 found)
0x40c068: add cl, cl ; ret ; (1 found)
0x40c694: add cl, cl ; ret ; (1 found)
0x40f779: add cl, cl ; ret ; (1 found)
0x410599: add cl, cl ; ret ; (1 found)
0x4159f0: add cl, cl ; ret ; (1 found)
0x41ef39: add cl, cl ; ret ; (1 found)
0x422d9a: add cl, cl ; ret ; (1 found)
0x422de1: add cl, cl ; ret ; (1 found)
0x4230e5: add cl, cl ; ret ; (1 found)
0x42383a: add cl, cl ; ret ; (1 found)
0x424dfb: add cl, cl ; ret ; (1 found)
0x403948: add dh, byte [rbp+0x05] ; ret ; (1 found)
0x40340b: add dh, byte [rbp+0x0B] ; mov  [0x0000000000445F88], 0x00000008 ; ret ; (1 found)
0x40062e: add dh, byte [rbp-0x06] ; ret ; (1 found)
0x40d93a: add dh, byte [rdx+0x00] ; add byte [rax-0x77], cl ; ret ; (1 found)
0x40f192: add dh, dh ; ret ; (1 found)
0x40f19b: add dh, dh ; ret ; (1 found)
0x40f237: add dh, dh ; ret ; (1 found)
0x40f90f: add dh, dh ; ret ; (1 found)
0x4149ef: add dh, dh ; ret ; (1 found)
0x41749b: add dh, dh ; ret ; (1 found)
0x4208d6: add dh, dh ; ret ; (1 found)
0x4208df: add dh, dh ; ret ; (1 found)
0x4208ed: add dh, dh ; ret ; (1 found)
0x42090b: add dh, dh ; ret ; (1 found)
0x41f9cb: add dh, dh ; retn 0x0F04 ; (1 found)
0x416467: add dh, dh ; retn 0x7401 ; (1 found)
0x402ad7: add dh, dh ; retn 0x7404 ; (1 found)
0x41644d: add dh, dh ; retn 0x7404 ; (1 found)
0x415655: add dh, dh ; retn 0x7408 ; (1 found)
0x42721a: add dh, dh ; retn 0x7450 ; (1 found)
0x41647f: add dh, dh ; retn 0x7508 ; (1 found)
0x4164a7: add dh, dh ; retn 0x7540 ; (1 found)
0x4073a9: add eax,  [fs:rax] ; pop rbp ; ret ; (1 found)
0x407379: add eax,  [gs:rax] ; pop rbp ; ret ; (1 found)
0x40a07d: add eax,  [rax] ; add  [rax-0x007F], ecx ; retn 0x0000 ; (1 found)
0x42600f: add eax,  [rax] ; add bh, bh ; retn 0xC3EB ; (1 found)
0x419afe: add eax,  [rax] ; add byte [rax-0x77], cl ; retn 0x2948 ; (1 found)
0x41be8b: add eax,  [rax] ; add byte [rax-0x77], cl ; retn 0x2948 ; (1 found)
0x419854: add eax,  [rax] ; add byte [rax-0x77], cl ; retn 0x8548 ; (1 found)
0x415921: add eax,  [rax] ; add byte [rbp+0x0A], dh ; ret ; (1 found)
0x413f39: add eax,  [rax] ; add byte [rbp+0x31], al ; call qword [rax+0x241C8949] ; (1 found)
0x40f1b5: add eax,  [rax] ; add byte [rbp-0x09998B40], al ; ret ; (1 found)
0x417669: add eax,  [rax] ; add byte [rcx-0x77], cl ; retn 0x8949 ; (1 found)
0x40f235: add eax,  [rax] ; add dh, dh ; ret ; (1 found)
0x417499: add eax,  [rax] ; add dh, dh ; ret ; (1 found)
0x404673: add eax,  [rax] ; mov rbp, rdx ; jmp rax ; (1 found)
0x401d34: add eax,  [rax] ; pop rbp ; ret ; (1 found)
0x401d53: add eax,  [rax] ; pop rbp ; ret ; (1 found)
0x40737a: add eax,  [rax] ; pop rbp ; ret ; (1 found)
0x4073aa: add eax,  [rax] ; pop rbp ; ret ; (1 found)
0x40d73a: add eax,  [rax] ; pop rbp ; ret ; (1 found)
0x40f598: add eax,  [rax] ; pop rbp ; ret ; (1 found)
0x41209c: add eax,  [rax] ; ret ; (1 found)
0x415f9c: add eax,  [rax] ; ret ; (1 found)
0x401897: add eax,  [rax] ; syscall ; (1 found)
0x41c207: add eax,  [rbp+0x08] ; mov rdi, qword [rax+0x10] ; call qword [rax+0x08] ; (1 found)
0x427744: add eax,  [rbx+0x5B5AFFC8] ; pop rbp ; ret ; (1 found)
0x4019c9: add eax,  [rcx+rax] ; add cl, cl ; ret ; (1 found)
0x420466: add eax,  [rdx+0x00] ; pop rbp ; ret ; (1 found)
0x42046d: add eax,  [rdx+0x00] ; pop rbp ; ret ; (1 found)
0x427108: add eax, 0x00000104 ; ret ; (1 found)
0x426e36: add eax, 0x0001168D ; syscall ; (1 found)
0x426c98: add eax, 0x000117DB ; mov rdi, rbx ; syscall ; (1 found)
0x42573a: add eax, 0x00012D61 ; syscall ; (1 found)
0x427271: add eax, 0x0001EDD2 ; mov qword [gs:0x00001480+rax*8], rdi ; ret ; (1 found)
0x424df7: add eax, 0x00021154 ; leave ; ret ; (1 found)
0x422ddd: add eax, 0x000231E6 ; leave ; ret ; (1 found)
0x411e4f: add eax, 0x0002662C ; mov edi, ebx ; syscall ; (1 found)
0x411e45: add eax, 0x0002663E ; mov edi, ebx ; syscall ; (1 found)
0x4111f5: add eax, 0x000272BE ; syscall ; ret ; (1 found)
0x4111f5: add eax, 0x000272BE ; syscall ; (1 found)
0x40bf5a: add eax, 0x0002C2A9 ; neg eax ; ret ; (1 found)
0x40eee7: add eax, 0x0002D37C ; pop rbp ; ret ; (1 found)
0x401d50: add eax, 0x0003633B ; pop rbp ; ret ; (1 found)
0x401d31: add eax, 0x0003635A ; pop rbp ; ret ; (1 found)
0x4073a7: add eax, 0x000364F4 ; pop rbp ; ret ; (1 found)
0x407377: add eax, 0x0003651C ; pop rbp ; ret ; (1 found)
0x40f595: add eax, 0x00036ACE ; pop rbp ; ret ; (1 found)
0x401894: add eax, 0x00036C07 ; syscall ; (1 found)
0x40d737: add eax, 0x000388CC ; pop rbp ; ret ; (1 found)
0x40a07a: add eax, 0x0003BEE8 ; add  [rax-0x007F], ecx ; retn 0x0000 ; (1 found)
0x403943: add eax, 0x000426F7 ; add dh, byte [rbp+0x05] ; ret ; (1 found)
0x403216: add eax, 0x00042D69 ; ret ; (1 found)
0x40274c: add eax, 0x00043947 ; ret ; (1 found)
0x402746: add eax, 0x00043951 ; mov  [0x0000000000446098], eax ; ret ; (1 found)
0x40a486: add eax, 0x00400000 ; call rax ; (1 found)
0x409e1d: add eax, 0x00400000 ; mov rdx, r12 ; call rax ; (1 found)
0x409a80: add eax, 0x01 ; ret ; (1 found)
0x40ea8f: add eax, 0x017FE5E8 ; add byte [rax+0x63], cl ; ret ; (1 found)
0x410b56: add eax, 0x04408B48 ; ret ; (1 found)
0x4270ef: add eax, 0x08 ; ret ; (1 found)
0x41c205: add eax, 0x08450349 ; mov rdi, qword [rax+0x10] ; call qword [rax+0x08] ; (1 found)
0x402c40: add eax, 0x0C488341 ; adc dh, dh ; retn 0x7420 ; (1 found)
0x402c31: add eax, 0x0C488341 ; or dh, dh ; retn 0x7410 ; (1 found)
0x4026c5: add eax, 0x1D8B485A ; retn 0x03A7 ; (1 found)
0x410a10: add eax, 0x20478B48 ; ret ; (1 found)
0x41b17e: add eax, 0x29480000 ; ret ; (1 found)
0x41b17f: add eax, 0x29480000 ; ret ; (1 found)
0x4109ea: add eax, 0x30478B48 ; ret ; (1 found)
0x41702a: add eax, 0x3C ; ret ; (1 found)
0x40442d: add eax, 0x48905589 ; mov ecx, esi ; call r15 ; (1 found)
0x4033b6: add eax, 0xC3000000 ; mov  [0x0000000000445F88], 0x00000006 ; ret ; (1 found)
0x4164c2: add eax, 0xC9F8458B ; ret ; (1 found)
0x427c21: add eax, 0xD8F70273 ; pop rbp ; ret ; (1 found)
0x40018e: add eax, 0xE2595E00 ; out dx, al ; ret ; (1 found)
0x412e8e: add eax, 0xFFFFFC3D ; pop rbp ; ret ; (1 found)
0x412f3a: add eax, ecx ; ret ; (1 found)
0x412fba: add eax, ecx ; ret ; (1 found)
0x41f30a: add eax, edi ; ret ; (1 found)
0x412f37: add eax, edx ; add rax, rcx ; ret ; (1 found)
0x412fb7: add eax, edx ; add rax, rcx ; ret ; (1 found)
0x424957: add eax, edx ; and eax, 0x7F ; ret ; (1 found)
0x412761: add eax, edx ; jmp rax ; (1 found)
0x412af1: add eax, edx ; jmp rax ; (1 found)
0x424ca7: add eax, edx ; lea rax, qword [rcx+rax*2] ; ret ; (1 found)
0x424d27: add eax, edx ; lea rax, qword [rcx+rax*2] ; ret ; (1 found)
0x41ef24: add eax, edx ; leave ; ret ; (1 found)
0x4221a7: add eax, edx ; ret ; (1 found)
0x4221f9: add eax, edx ; ret ; (1 found)
0x4241d3: add eax, edx ; ret ; (1 found)
0x416319: add eax, edx ; sub rax, rdi ; ret ; (1 found)
0x416375: add eax, edx ; sub rax, rdi ; ret ; (1 found)
0x407527: add ebx,  [rbx-0x7D] ; retn 0x4801 ; (1 found)
0x42521a: add ebx, ebp ; adc  [rax-0x01], ecx ; retn 0x3A41 ; (1 found)
0x4162a2: add ecx,  [rax+0x01] ; retn 0x0F41 ; (1 found)
0x426677: add ecx,  [rcx+0x39] ; ror byte [rdi], 0x82 ; ret ; (1 found)
0x402400: add ecx,  [rcx-0x7D] ; ret ; (1 found)
0x412096: add edi, eax ; mov  [0x0000000000446090], edi ; ret ; (1 found)
0x415f96: add edi, eax ; mov  [0x00000000004460A4], edi ; ret ; (1 found)
0x415a51: add edx,  [rax+rax] ; add byte [rbx-0x6AF00008], al ; retn 0x8548 ; (1 found)
0x423118: add edx, 0x01 ; xchg rax, rdx ; ret ; (1 found)
0x4241d0: add edx, ecx ; add rax, rdx ; ret ; (1 found)
0x42528e: add esi, eax ; add byte [rax], al ; ret ; (1 found)
0x406f86: add esi, esi ; retn 0x7404 ; (1 found)
0x415db2: add esi, esi ; retn 0x740F ; (1 found)
0x415e82: add esi, esi ; retn 0x740F ; (1 found)
0x40ce09: add esp,  [rdx-0x76B80000] ; retn 0x058B ; (1 found)
0x41645e: add esp, 0x20 ; leave ; ret ; (1 found)
0x4121c9: add qword [0x000000000043CED8], 0x01 ; pop rbp ; ret ; (1 found)
0x41d196: add qword [rdi+0x28], 0x01 ; ret ; (1 found)
0x42528c: add r8L, byte [rcx] ; mov byte [rax], 0x00 ; ret ; (1 found)
0x42222f: add r8L, byte [rcx] ; ret ; (1 found)
0x427c1d: add r8L, dil ; syscall ; (1 found)
0x417668: add r8d,  [rax] ; add byte [rcx-0x77], cl ; retn 0x8949 ; (1 found)
0x426676: add r9d,  [r9+0x39] ; ror byte [rdi], 0x82 ; ret ; (1 found)
0x40a485: add rax, 0x0000000000400000 ; call rax ; (1 found)
0x409e1c: add rax, 0x0000000000400000 ; mov rdx, r12 ; call rax ; (1 found)
0x417029: add rax, 0x3C ; ret ; (1 found)
0x41c206: add rax, qword [r13+0x08] ; mov rdi, qword [rax+0x10] ; call qword [rax+0x08] ; (1 found)
0x412f39: add rax, rcx ; ret ; (1 found)
0x412fb9: add rax, rcx ; ret ; (1 found)
0x412f36: add rax, rdx ; add rax, rcx ; ret ; (1 found)
0x412fb6: add rax, rdx ; add rax, rcx ; ret ; (1 found)
0x424956: add rax, rdx ; and eax, 0x7F ; ret ; (1 found)
0x412760: add rax, rdx ; jmp rax ; (1 found)
0x412af0: add rax, rdx ; jmp rax ; (1 found)
0x424ca6: add rax, rdx ; lea rax, qword [rcx+rax*2] ; ret ; (1 found)
0x424d26: add rax, rdx ; lea rax, qword [rcx+rax*2] ; ret ; (1 found)
0x4241d2: add rax, rdx ; ret ; (1 found)
0x416318: add rax, rdx ; sub rax, rdi ; ret ; (1 found)
0x416374: add rax, rdx ; sub rax, rdi ; ret ; (1 found)
0x423117: add rdx, 0x01 ; xchg rax, rdx ; ret ; (1 found)
0x41645d: add rsp, 0x20 ; leave ; ret ; (1 found)
0x416777: and  [rcx], 0xFFFFFFFE ; ret ; (1 found)
0x41f764: and  [rcx], esi ; rol byte [rbx-0x69F0A201], 0xC0 ; ret ; (1 found)
0x41c26f: and al, 0x08 ; call qword [r12+0x00] ; (1 found)
0x41c117: and al, 0x50 ; mov rdi, qword [rax+0x08] ; call qword [rax] ; (1 found)
0x41db42: and al, 0x89 ; retn 0xE283 ; (1 found)
0x4031f1: and al, bl ; mov  [0x0000000000445F84], 0x00000002 ; ret ; (1 found)
0x405334: and bh, bh ; ror cl, 1 ; ret ; (1 found)
0x410a14: and bl, al ; movzx eax, word [rdi+0x0A] ; ret ; (1 found)
0x417351: and byte [r8-0x77], r9L ; retn 0x0149 ; (1 found)
0x41733c: and byte [r9], dil ; retn 0x8E73 ; (1 found)
0x41758e: and byte [rax+0x01], cl ; retn 0xC1F6 ; (1 found)
0x41a916: and byte [rax+0x01], cl ; retn 0xC1F6 ; (1 found)
0x41ab68: and byte [rax+0x01], cl ; retn 0xC1F6 ; (1 found)
0x41c022: and byte [rax+0x01], cl ; retn 0xC1F6 ; (1 found)
0x424e32: and byte [rax+0x09], cl ; retn 0x2B48 ; (1 found)
0x403702: and byte [rax+0x09], cl ; retn 0x8148 ; (1 found)
0x404482: and byte [rax+0x09], cl ; retn 0x8948 ; (1 found)
0x424d8f: and byte [rax+0x09], cl ; retn 0x8948 ; (1 found)
0x40dc46: and byte [rax+0x09], cl ; retn 0x894A ; (1 found)
0x40e8fa: and byte [rax+0x39], cl ; retn 0xF075 ; (1 found)
0x40e94a: and byte [rax+0x39], cl ; retn 0xF075 ; (1 found)
0x417352: and byte [rax-0x77], cl ; retn 0x0149 ; (1 found)
0x426aec: and byte [rbp+0x485075C0], al ; sub esp, 0x20 ; call r13 ; (1 found)
0x40f18c: and byte [rbx+0x036EAD1D], cl ; add dh, dh ; ret ; (1 found)
0x426ac8: and byte [rcx-0x01], al ; aad 0x89 ; ret ; (1 found)
0x40b788: and byte [rcx-0x0A], al ; retn 0x0F49 ; (1 found)
0x41733d: and byte [rcx], bh ; retn 0x8E73 ; (1 found)
0x417299: and byte [rcx], bh ; ror byte [rax+0x0F], 1 ; retn 0x4389 ; (1 found)
0x41f8e1: and byte [rdi], cl ; nop ; retn 0xB60F ; (1 found)
0x405586: and byte [rdi], cl ; xchg eax, esp ; ret ; (1 found)
0x410b8d: and byte [rdi], cl ; xchg eax, esp ; retn 0xD009 ; (1 found)
0x4220e0: and byte [rdx+rax*2-0x00277D00], bh ; ret ; (1 found)
0x422122: and byte [rdx+rax*2-0x00277D00], bh ; ret ; (1 found)
0x40e41c: and cl, byte [rax-0x7D] ; retn 0x4802 ; (1 found)
0x416460: and cl, cl ; ret ; (1 found)
0x402af9: and dh, dh ; retn 0x7420 ; (1 found)
0x419d36: and eax,  [rax] ; add byte [rax-0x77], cl ; retn 0x8548 ; (1 found)
0x40828a: and eax,  [rax] ; add byte [rcx], cl ; ret ; (1 found)
0x417024: and eax, 0x00000030 ; add rax, 0x3C ; ret ; (1 found)
0x41ef35: and eax, 0x00000FFF ; leave ; ret ; (1 found)
0x404f2b: and eax, 0x0002A138 ; mov rcx, rsi ; call r12 ; (1 found)
0x404670: and eax, 0x000378BB ; mov rbp, rdx ; jmp rax ; (1 found)
0x4007b9: and eax, 0x004004BE ; mov rax, 0x0000000000400800 ; jmp rax ; (1 found)
0x427c1a: and eax, 0x00438498 ; clc ; syscall ; (1 found)
0x424b7a: and eax, 0x01 ; ret ; (1 found)
0x409705: and eax, 0x01 ; xor eax, 0x01 ; ret ; (1 found)
0x424959: and eax, 0x7F ; ret ; (1 found)
0x404b6b: and eax, 0x89480002 ; ret ; (1 found)
0x427103: and eax, 0xFFFFFEFD ; add eax, 0x00000104 ; ret ; (1 found)
0x427115: and eax, 0xFFFFFFC0 ; sub eax, 0xFFFFFF80 ; ret ; (1 found)
0x4270ec: and eax, 0xFFFFFFFC ; add eax, 0x08 ; ret ; (1 found)
0x40de2a: and eax, edx ; ret ; (1 found)
0x427677: and eax, edx ; ret ; (1 found)
0x4273bc: and ecx,  [rax-0x7D] ; retn 0x4801 ; (1 found)
0x41f307: and edi, 0x01 ; add eax, edi ; ret ; (1 found)
0x416778: and esi, edi ; ret ; (1 found)
0x416776: and qword [rcx], 0xFFFFFFFFFFFFFFFE ; ret ; (1 found)
0x410a13: and r11L, r8L ; movzx eax, word [rdi+0x0A] ; ret ; (1 found)
0x41cb9e: bts eax, 0x3F ; pop rbp ; ret ; (1 found)
0x41cb9d: bts rax, 0x3F ; pop rbp ; ret ; (1 found)
0x404594: call 0x00000000 ; (1 found)
0x404795: call 0x00000000 ; (1 found)
0x404805: call 0x00000000 ; (1 found)
0x405cd1: call 0x00000000 ; (1 found)
0x405d3d: call 0x00000000 ; (1 found)
0x409758: call 0x00000000 ; (1 found)
0x40d7d5: call 0x00000000 ; (1 found)
0x40d7e8: call 0x00000000 ; (1 found)
0x40d8a3: call 0x00000000 ; (1 found)
0x40fd6f: call 0x00000000 ; (1 found)
0x410585: call 0x00000000 ; (1 found)
0x41218c: call 0x00000000 ; (1 found)
0x41a24c: call 0x00000000 ; (1 found)
0x41d3f2: call 0x00000000 ; (1 found)
0x420e25: call 0x00000000 ; (1 found)
0x4223bc: call 0x00000000 ; (1 found)
0x426108: call 0x00000000 ; (1 found)
0x4261ac: call 0x00000000 ; (1 found)
0x4265f4: call 0x00000000 ; (1 found)
0x426e1a: call 0x00000000 ; (1 found)
0x41c271: call qword [r12+0x00] ; (1 found)
0x410148: call qword [rax+0x000001A0] ; (1 found)
0x41d74b: call qword [rax+0x00003ABA] ; (1 found)
0x422333: call qword [rax+0x000045BA] ; (1 found)
0x41e73d: call qword [rax+0x0020BA90] ; (1 found)
0x41db87: call qword [rax+0x00801F0F] ; (1 found)
0x42123f: call qword [rax+0x00801F0F] ; (1 found)
0x421367: call qword [rax+0x00801F0F] ; (1 found)
0x416d1e: call qword [rax+0x01E28341] ; (1 found)
0x40570e: call qword [rax+0x0256B70F] ; (1 found)
0x41c20e: call qword [rax+0x08] ; (1 found)
0x412b8e: call qword [rax+0x0E6FFAC5] ; (1 found)
0x4088de: call qword [rax+0x0FF68440] ; (1 found)
0x41d760: call qword [rax+0x1F0F2E66] ; (1 found)
0x41e5f3: call qword [rax+0x1F0F2E66] ; (1 found)
0x424043: call qword [rax+0x1F0F2E66] ; (1 found)
0x4249e3: call qword [rax+0x1F0F2E66] ; (1 found)
0x4181be: call qword [rax+0x204A8B48] ; (1 found)
0x413f3e: call qword [rax+0x241C8949] ; (1 found)
0x422348: call qword [rax+0x441F0F66] ; (1 found)
0x41d83e: call qword [rax+0x48F18948] ; (1 found)
0x41d89e: call qword [rax+0x48F18948] ; (1 found)
0x410f9e: call qword [rax+0x49CB8948] ; (1 found)
0x40a87e: call qword [rax+0x4C00409F] ; (1 found)
0x40625e: call qword [rax+0x4CE6894C] ; (1 found)
0x40e4fe: call qword [rax+0x74ED8545] ; (1 found)
0x40bb7e: call qword [rax+0x7C834166] ; (1 found)
0x409bdd: call qword [rax+rcx*2-0x73] ; (1 found)
0x4132ee: call qword [rax-0x000043BF] ; (1 found)
0x41ea9e: call qword [rax-0x000043BF] ; (1 found)
0x40c87d: call qword [rax-0x0000EA17] ; (1 found)
0x41935e: call qword [rax-0x00057EB8] ; (1 found)
0x413c9e: call qword [rax-0x0053BA39] ; (1 found)
0x420fde: call qword [rax-0x00B6D418] ; (1 found)
0x416d2e: call qword [rax-0x011D7CB8] ; (1 found)
0x407cee: call qword [rax-0x178441F1] ; (1 found)
0x420c0b: call qword [rax-0x17FFE0F1] ; (1 found)
0x423c83: call qword [rax-0x1F8276B8] ; (1 found)
0x41d3ae: call qword [rax-0x26EAFCB8] ; (1 found)
0x4239ed: call qword [rax-0x300066DE] ; (1 found)
0x4093ae: call qword [rax-0x33AA72B8] ; (1 found)
0x41e6fb: call qword [rax-0x41FFE0F1] ; (1 found)
0x415c33: call qword [rax-0x45FFE0F1] ; (1 found)
0x415d13: call qword [rax-0x45FFE0F1] ; (1 found)
0x41e753: call qword [rax-0x45FFE0F1] ; (1 found)
0x40b09e: call qword [rax-0x6DFA41F1] ; (1 found)
0x40c651: call qword [rax-0x6F6F3C37] ; (1 found)
0x40c6d4: call qword [rax-0x6F6F3CA3] ; (1 found)
0x403ced: call qword [rax-0x6F6F6F70] ; (1 found)
0x403d07: call qword [rax-0x6F6F6F70] ; (1 found)
0x403d21: call qword [rax-0x6F6F6F70] ; (1 found)
0x403d3b: call qword [rax-0x6F6F6F70] ; (1 found)
0x403d55: call qword [rax-0x6F6F6F70] ; (1 found)
0x403d6f: call qword [rax-0x6F6F6F70] ; (1 found)
0x403d89: call qword [rax-0x6F6F6F70] ; (1 found)
0x403da3: call qword [rax-0x6F6F6F70] ; (1 found)
0x403dbd: call qword [rax-0x6F6F6F70] ; (1 found)
0x403dd7: call qword [rax-0x6F6F6F70] ; (1 found)
0x403df1: call qword [rax-0x6F6F6F70] ; (1 found)
0x403e0b: call qword [rax-0x6F6F6F70] ; (1 found)
0x403e25: call qword [rax-0x6F6F6F70] ; (1 found)
0x403e3f: call qword [rax-0x6F6F6F70] ; (1 found)
0x403e59: call qword [rax-0x6F6F6F70] ; (1 found)
0x403e73: call qword [rax-0x6F6F6F70] ; (1 found)
0x40472f: call qword [rax-0x6F6F6F70] ; (1 found)
0x40940f: call qword [rax-0x6F6F6F70] ; (1 found)
0x409cbf: call qword [rax-0x6F6F6F70] ; (1 found)
0x40b47c: call qword [rax-0x6F6F6F70] ; (1 found)
0x40b4f1: call qword [rax-0x6F6F6F70] ; (1 found)
0x40b548: call qword [rax-0x6F6F6F70] ; (1 found)
0x40b563: call qword [rax-0x6F6F6F70] ; (1 found)
0x40b5ba: call qword [rax-0x6F6F6F70] ; (1 found)
0x40b5f0: call qword [rax-0x6F6F6F70] ; (1 found)
0x40b60b: call qword [rax-0x6F6F6F70] ; (1 found)
0x40b626: call qword [rax-0x6F6F6F70] ; (1 found)
0x40b641: call qword [rax-0x6F6F6F70] ; (1 found)
0x40b65c: call qword [rax-0x6F6F6F70] ; (1 found)
0x40b695: call qword [rax-0x6F6F6F70] ; (1 found)
0x40b6ce: call qword [rax-0x6F6F6F70] ; (1 found)
0x40bfda: call qword [rax-0x6F6F6F70] ; (1 found)
0x40bff5: call qword [rax-0x6F6F6F70] ; (1 found)
0x40c04c: call qword [rax-0x6F6F6F70] ; (1 found)
0x40c55f: call qword [rax-0x6F6F6F70] ; (1 found)
0x40d8ae: call qword [rax-0x6F6F6F70] ; (1 found)
0x40f4be: call qword [rax-0x6F6F6F70] ; (1 found)
0x414e1e: call qword [rax-0x6F6F6F70] ; (1 found)
0x417c2f: call qword [rax-0x6F6F6F70] ; (1 found)
0x41cb1f: call qword [rax-0x6F6F6F70] ; (1 found)
0x41cdbe: call qword [rax-0x6F6F6F70] ; (1 found)
0x41e3cd: call qword [rax-0x6F6F6F70] ; (1 found)
0x42028e: call qword [rax-0x6F6F6F70] ; (1 found)
0x421e2f: call qword [rax-0x6F6F6F70] ; (1 found)
0x415d2b: call qword [rax-0x6FFFE0F1] ; (1 found)
0x41cbbb: call qword [rax-0x6FFFE0F1] ; (1 found)
0x41e41b: call qword [rax-0x6FFFE0F1] ; (1 found)
0x41e58b: call qword [rax-0x6FFFE0F1] ; (1 found)
0x41e76b: call qword [rax-0x6FFFE0F1] ; (1 found)
0x4180ee: call qword [rax-0x74B33577] ; (1 found)
0x418d3e: call qword [rax-0x74B73777] ; (1 found)
0x41debe: call qword [rax-0x74D174B3] ; (1 found)
0x41b4ae: call qword [rax-0x76BE3DF7] ; (1 found)
0x415c4b: call qword [rax-0x7C3B76BF] ; (1 found)
0x4061fe: call qword [rax-0x7F3F76BC] ; (1 found)
0x408dde: call qword [rax-0x7FBA38B8] ; (1 found)
0x401a3d: call qword [rax] ; (1 found)
0x403370: call qword [rax] ; (1 found)
0x407ed5: call qword [rax] ; (1 found)
0x409314: call qword [rax] ; (1 found)
0x4101bc: call qword [rax] ; (1 found)
0x41abfe: call qword [rax] ; (1 found)
0x41c11d: call qword [rax] ; (1 found)
0x408c72: call qword [rbp+0x10] ; (1 found)
0x404e4f: call qword [rbp+0x48] ; (1 found)
0x40bd52: call qword [rbp+0x48] ; (1 found)
0x425459: call qword [rbp+0x48] ; (1 found)
0x427c10: call qword [rbp+0x48] ; (1 found)
0x406106: call qword [rbp+0x55] ; (1 found)
0x402e27: call qword [rbx] ; (1 found)
0x40d40c: call qword [rbx] ; (1 found)
0x403376: call qword [rdi] ; (1 found)
0x414dc8: call qword [rdx+0x53] ; (1 found)
0x40335b: call qword [rsi] ; (1 found)
0x41c272: call qword [rsp+0x00] ; (1 found)
0x403366: call qword [rsp+rsi*2+0x00] ; (1 found)
0x404ddc: call r12 ; (1 found)
0x404dfc: call r12 ; (1 found)
0x404e17: call r12 ; (1 found)
0x404e48: call r12 ; (1 found)
0x404f33: call r12 ; (1 found)
0x404f39: call r12 ; (1 found)
0x411499: call r13 ; (1 found)
0x416b52: call r13 ; (1 found)
0x416b6b: call r13 ; (1 found)
0x426ac9: call r13 ; (1 found)
0x426af5: call r13 ; (1 found)
0x404104: call r14 ; (1 found)
0x404127: call r14 ; (1 found)
0x404419: call r14 ; (1 found)
0x4045a9: call r14 ; (1 found)
0x4045c6: call r14 ; (1 found)
0x404434: call r15 ; (1 found)
0x41fbaa: call r15 ; (1 found)
0x41fbc0: call r15 ; (1 found)
0x41fbd2: call r15 ; (1 found)
0x4111e7: call r8 ; (1 found)
0x405335: call rax ; (1 found)
0x409e25: call rax ; (1 found)
0x40a0bf: call rax ; (1 found)
0x40a48b: call rax ; (1 found)
0x4111e8: call rax ; (1 found)
0x41dcfe: call rax ; (1 found)
0x41df32: call rax ; (1 found)
0x41fce3: call rax ; (1 found)
0x41fd1c: call rax ; (1 found)
0x41fd34: call rax ; (1 found)
0x4207fd: call rax ; (1 found)
0x41149a: call rbp ; (1 found)
0x416b53: call rbp ; (1 found)
0x416b6c: call rbp ; (1 found)
0x426aca: call rbp ; (1 found)
0x426af6: call rbp ; (1 found)
0x404059: call rbx ; (1 found)
0x4043ee: call rbx ; (1 found)
0x417bcd: call rbx ; (1 found)
0x4186c9: call rbx ; (1 found)
0x418d74: call rbx ; (1 found)
0x418de4: call rbx ; (1 found)
0x418f27: call rbx ; (1 found)
0x418f77: call rbx ; (1 found)
0x4196c4: call rbx ; (1 found)
0x419767: call rbx ; (1 found)
0x41b884: call rbx ; (1 found)
0x41b894: call rbx ; (1 found)
0x41b9d5: call rbx ; (1 found)
0x41ba28: call rbx ; (1 found)
0x4065eb: call rcx ; (1 found)
0x41794b: call rcx ; (1 found)
0x40440e: call rdi ; (1 found)
0x404435: call rdi ; (1 found)
0x41fbab: call rdi ; (1 found)
0x41fbc1: call rdi ; (1 found)
0x41fbd3: call rdi ; (1 found)
0x404105: call rsi ; (1 found)
0x404128: call rsi ; (1 found)
0x404175: call rsi ; (1 found)
0x4041a0: call rsi ; (1 found)
0x4041c9: call rsi ; (1 found)
0x4041dd: call rsi ; (1 found)
0x4043a7: call rsi ; (1 found)
0x40441a: call rsi ; (1 found)
0x4045aa: call rsi ; (1 found)
0x4045c7: call rsi ; (1 found)
0x41128f: call rsi ; (1 found)
0x41c1b0: call rsi ; (1 found)
0x404ddd: call rsp ; (1 found)
0x404dfd: call rsp ; (1 found)
0x404e18: call rsp ; (1 found)
0x404e49: call rsp ; (1 found)
0x404f34: call rsp ; (1 found)
0x404f3a: call rsp ; (1 found)
0x404dd3: cdq ; mov byte [0x41D98948D2310002], al ; call rsp ; (1 found)
0x410a83: cdqe ; mov rax, qword [rsi+rax] ; ret ; (1 found)
0x410584: clc ; call 0x00000000 ; (1 found)
0x401f85: clc ; leave ; ret ; (1 found)
0x4039b5: clc ; leave ; ret ; (1 found)
0x404876: clc ; leave ; ret ; (1 found)
0x40488b: clc ; leave ; ret ; (1 found)
0x405003: clc ; leave ; ret ; (1 found)
0x40501a: clc ; leave ; ret ; (1 found)
0x405095: clc ; leave ; ret ; (1 found)
0x4050ab: clc ; leave ; ret ; (1 found)
0x405122: clc ; leave ; ret ; (1 found)
0x405132: clc ; leave ; ret ; (1 found)
0x405cfe: clc ; leave ; ret ; (1 found)
0x405d1c: clc ; leave ; ret ; (1 found)
0x405d28: clc ; leave ; ret ; (1 found)
0x405d50: clc ; leave ; ret ; (1 found)
0x4065c5: clc ; leave ; ret ; (1 found)
0x40660c: clc ; leave ; ret ; (1 found)
0x406f0f: clc ; leave ; ret ; (1 found)
0x4098d7: clc ; leave ; ret ; (1 found)
0x4098eb: clc ; leave ; ret ; (1 found)
0x409939: clc ; leave ; ret ; (1 found)
0x40994a: clc ; leave ; ret ; (1 found)
0x409a3c: clc ; leave ; ret ; (1 found)
0x40a266: clc ; leave ; ret ; (1 found)
0x40a2aa: clc ; leave ; ret ; (1 found)
0x40a2c2: clc ; leave ; ret ; (1 found)
0x40b45f: clc ; leave ; ret ; (1 found)
0x40be66: clc ; leave ; ret ; (1 found)
0x40be8e: clc ; leave ; ret ; (1 found)
0x40beb6: clc ; leave ; ret ; (1 found)
0x40bede: clc ; leave ; ret ; (1 found)
0x40bf06: clc ; leave ; ret ; (1 found)
0x40bf2e: clc ; leave ; ret ; (1 found)
0x40d2f1: clc ; leave ; ret ; (1 found)
0x40eac3: clc ; leave ; ret ; (1 found)
0x40eaf4: clc ; leave ; ret ; (1 found)
0x40eb0a: clc ; leave ; ret ; (1 found)
0x40f082: clc ; leave ; ret ; (1 found)
0x40f0a8: clc ; leave ; ret ; (1 found)
0x40f106: clc ; leave ; ret ; (1 found)
0x40f138: clc ; leave ; ret ; (1 found)
0x40f5ea: clc ; leave ; ret ; (1 found)
0x40ff97: clc ; leave ; ret ; (1 found)
0x410628: clc ; leave ; ret ; (1 found)
0x41099e: clc ; leave ; ret ; (1 found)
0x4109c1: clc ; leave ; ret ; (1 found)
0x410dac: clc ; leave ; ret ; (1 found)
0x410dc2: clc ; leave ; ret ; (1 found)
0x41129e: clc ; leave ; ret ; (1 found)
0x411571: clc ; leave ; ret ; (1 found)
0x4118f9: clc ; leave ; ret ; (1 found)
0x41191f: clc ; leave ; ret ; (1 found)
0x411ce6: clc ; leave ; ret ; (1 found)
0x412168: clc ; leave ; ret ; (1 found)
0x412196: clc ; leave ; ret ; (1 found)
0x414b2a: clc ; leave ; ret ; (1 found)
0x414f08: clc ; leave ; ret ; (1 found)
0x4158f5: clc ; leave ; ret ; (1 found)
0x415a6e: clc ; leave ; ret ; (1 found)
0x416001: clc ; leave ; ret ; (1 found)
0x4164c4: clc ; leave ; ret ; (1 found)
0x4164c5: clc ; leave ; ret ; (1 found)
0x416532: clc ; leave ; ret ; (1 found)
0x416ffd: clc ; leave ; ret ; (1 found)
0x41a9fc: clc ; leave ; ret ; (1 found)
0x41aa26: clc ; leave ; ret ; (1 found)
0x41c0a0: clc ; leave ; ret ; (1 found)
0x41c3d6: clc ; leave ; ret ; (1 found)
0x41c3f3: clc ; leave ; ret ; (1 found)
0x41c413: clc ; leave ; ret ; (1 found)
0x41dc99: clc ; leave ; ret ; (1 found)
0x41e5d7: clc ; leave ; ret ; (1 found)
0x41e872: clc ; leave ; ret ; (1 found)
0x41e8ec: clc ; leave ; ret ; (1 found)
0x41e946: clc ; leave ; ret ; (1 found)
0x41ef76: clc ; leave ; ret ; (1 found)
0x420887: clc ; leave ; ret ; (1 found)
0x421300: clc ; leave ; ret ; (1 found)
0x422398: clc ; leave ; ret ; (1 found)
0x4223c6: clc ; leave ; ret ; (1 found)
0x423a94: clc ; leave ; ret ; (1 found)
0x4242b5: clc ; leave ; ret ; (1 found)
0x4242f5: clc ; leave ; ret ; (1 found)
0x4249c5: clc ; leave ; ret ; (1 found)
0x424a33: clc ; leave ; ret ; (1 found)
0x424e7a: clc ; leave ; ret ; (1 found)
0x4272cc: clc ; leave ; ret ; (1 found)
0x41d194: clc ; lock add qword [rdi+0x28], 0x01 ; ret ; (1 found)
0x4164bb: clc ; mov eax, 0x000001B0 ; syscall ; (1 found)
0x4043a1: clc ; mov ecx, 0x0042A6D4 ; call rsi ; (1 found)
0x422579: clc ; mov rax, rdi ; ret ; (1 found)
0x422e56: clc ; pop rbp ; ret ; (1 found)
0x40cb19: clc ; push qword [rbx-0x77] ; ret ; (1 found)
0x41631d: clc ; ret ; (1 found)
0x416379: clc ; ret ; (1 found)
0x416539: clc ; ret ; (1 found)
0x4169f6: clc ; ret ; (1 found)
0x41f30b: clc ; ret ; (1 found)
0x4203c5: clc ; ret ; (1 found)
0x420431: clc ; ret ; (1 found)
0x422515: clc ; ret ; (1 found)
0x42253c: clc ; ret ; (1 found)
0x42255e: clc ; ret ; (1 found)
0x42257c: clc ; ret ; (1 found)
0x42322f: clc ; ret ; (1 found)
0x4232ed: clc ; ret ; (1 found)
0x423302: clc ; ret ; (1 found)
0x42336d: clc ; ret ; (1 found)
0x423382: clc ; ret ; (1 found)
0x423bba: clc ; ret ; (1 found)
0x423bc6: clc ; ret ; (1 found)
0x424b11: clc ; ret ; (1 found)
0x427919: clc ; ret ; (1 found)
0x4203c2: clc ; sar rax, 1 ; ret ; (1 found)
0x42042e: clc ; sar rax, 1 ; ret ; (1 found)
0x41705d: clc ; syscall ; (1 found)
0x4239fe: clc ; syscall ; (1 found)
0x424c19: clc ; syscall ; (1 found)
0x426c3a: clc ; syscall ; (1 found)
0x426c69: clc ; syscall ; (1 found)
0x426c89: clc ; syscall ; (1 found)
0x4274d3: clc ; syscall ; (1 found)
0x4275b3: clc ; syscall ; (1 found)
0x427c1f: clc ; syscall ; (1 found)
0x4270ee: cld ; add eax, 0x08 ; ret ; (1 found)
0x41ef0b: cld ; leave ; ret ; (1 found)
0x41ef0c: cld ; leave ; ret ; (1 found)
0x42255b: cld ; mov rax, rdi ; ret ; (1 found)
0x4005c4: cld ; rep stosd ; ret ; (1 found)
0x424040: cld ; retn 0xFFFE ; (1 found)
0x4169ec: cli ; add  [rdi-0x10], esi ; ret ; (1 found)
0x416a3c: cli ; add  [rdi-0x10], esi ; ret ; (1 found)
0x4001ae: cli ; ret ; (1 found)
0x400630: cli ; ret ; (1 found)
0x400637: cli ; ret ; (1 found)
0x4231fc: cli ; ret ; (1 found)
0x41609a: cmove eax, edx ; ret ; (1 found)
0x41611e: cmove eax, edx ; ret ; (1 found)
0x4253da: cmove edx, eax ; mov eax, edx ; ret ; (1 found)
0x402ed5: cmove edx, ecx ; mov  [r8+0x0C], edx ; ret ; (1 found)
0x416099: cmove rax, rdx ; ret ; (1 found)
0x41611d: cmove rax, rdx ; ret ; (1 found)
0x41cb55: cmovne eax, edx ; pop rbp ; ret ; (1 found)
0x41cb54: cmovne rax, rdx ; pop rbp ; ret ; (1 found)
0x4120f0: cmovs ecx,  [rcx+0x5C415BD8] ; pop rbp ; ret ; (1 found)
0x424935: cmovs esp,  [rcx] ; retn 0x8948 ; (1 found)
0x40274d: cmp  [r8+r8], r8d ; ret ; (1 found)
0x402748: cmp  [rax+rax], eax ; mov  [0x0000000000446098], eax ; ret ; (1 found)
0x40274e: cmp  [rax+rax], eax ; ret ; (1 found)
0x427279: cmp al, 0xC5 ; adc byte [rax+rax], 0x00 ; ret ; (1 found)
0x4220de: cmp al, 0xD5 ; and byte [rdx+rax*2-0x00277D00], bh ; ret ; (1 found)
0x422120: cmp al, 0xD5 ; and byte [rdx+rax*2-0x00277D00], bh ; ret ; (1 found)
0x40b6ae: cmp ax, word [rdx] ; add cl, cl ; ret ; (1 found)
0x40076c: cmp bh, 0xFF ; jmp rax ; (1 found)
0x418ee6: cmp byte [r8-0x77], r9L ; ror  [rax+0x39], 0xFFFFFFBC ; ret ; (1 found)
0x418f3d: cmp byte [rax-0x77], cl ; ror  [rax+0x39], 0xFFFFFFB4 ; ret ; (1 found)
0x418ee7: cmp byte [rax-0x77], cl ; ror  [rax+0x39], 0xFFFFFFBC ; ret ; (1 found)
0x418465: cmp byte [rax-0x77], cl ; ror  [rbp+0x39], 0xFFFFFFB4 ; ret ; (1 found)
0x418f3c: cmp byte [rax-0x77], r9L ; ror  [rax+0x39], 0xFFFFFFB4 ; ret ; (1 found)
0x418464: cmp byte [rax-0x77], r9L ; ror  [rbp+0x39], 0xFFFFFFB4 ; ret ; (1 found)
0x40a424: cmp byte [rax-0x7D], cl ; retn 0x4850 ; (1 found)
0x416096: cmp byte [rax], 0x00 ; cmove rax, rdx ; ret ; (1 found)
0x41611a: cmp byte [rax], 0x00 ; cmove rax, rdx ; ret ; (1 found)
0x416097: cmp byte [rax], al ; cmove rax, rdx ; ret ; (1 found)
0x41611b: cmp byte [rax], al ; cmove rax, rdx ; ret ; (1 found)
0x404f2c: cmp byte [rcx-0x76B7FFFE], ah ; int1 ; call r12 ; (1 found)
0x400144: cmp dh, byte [rsi] ; sub  [0xFFFFFFFFF67004C2], ebx ; ret ; (1 found)
0x4273b9: cmp dl, byte [rax-0x7CB7DC8B] ; retn 0x4801 ; (1 found)
0x420c03: cmp dl, byte [rbx+0x34E80042] ; idiv esi ; call qword [rax-0x17FFE0F1] ; (1 found)
0x40b675: cmp eax,  [edx] ; add cl, cl ; ret ; (1 found)
0x40fb77: cmp eax,  [rax-0x01] ; dec  [rax-0x77] ; ret ; (1 found)
0x40b496: cmp eax,  [rdx] ; add cl, cl ; ret ; (1 found)
0x40b4b4: cmp eax,  [rdx] ; add cl, cl ; ret ; (1 found)
0x40b4d2: cmp eax,  [rdx] ; add cl, cl ; ret ; (1 found)
0x40b50b: cmp eax,  [rdx] ; add cl, cl ; ret ; (1 found)
0x40b529: cmp eax,  [rdx] ; add cl, cl ; ret ; (1 found)
0x40b57d: cmp eax,  [rdx] ; add cl, cl ; ret ; (1 found)
0x40b59b: cmp eax,  [rdx] ; add cl, cl ; ret ; (1 found)
0x40b5d1: cmp eax,  [rdx] ; add cl, cl ; ret ; (1 found)
0x40b676: cmp eax,  [rdx] ; add cl, cl ; ret ; (1 found)
0x40b6af: cmp eax,  [rdx] ; add cl, cl ; ret ; (1 found)
0x40b6e8: cmp eax,  [rdx] ; add cl, cl ; ret ; (1 found)
0x40b706: cmp eax,  [rdx] ; add cl, cl ; ret ; (1 found)
0x426c35: cmp eax, 0x0001149E ; clc ; syscall ; (1 found)
0x404402: cmp eax, 0x0002ADF1 ; movsx ecx, byte [rbx+0x0042AC14] ; call rdi ; (1 found)
0x415f99: cmp eax, 0x00030106 ; ret ; (1 found)
0x41591e: cmp eax, 0x00030728 ; add byte [rbp+0x0A], dh ; ret ; (1 found)
0x412099: cmp eax, 0x00033FF2 ; ret ; (1 found)
0x412e8f: cmp eax, 0x5DFFFFFC ; ret ; (1 found)
0x408f3a: cmp ebp, 0x7D8BFFFF ; mov al, ch ; ret ; (1 found)
0x423116: cmp ecx,  [rax-0x7D] ; retn 0x4801 ; (1 found)
0x412480: cmp ecx, eax ; sete al ; ret ; (1 found)
0x4124d0: cmp ecx, eax ; sete al ; ret ; (1 found)
0x413173: cmp ecx, edx ; sbb eax, 0x00000000 ; ret ; (1 found)
0x4220dd: cmp edi,  [0x0042BC20+rdx*8] ; sbb eax, 0xFFFFFFFF ; ret ; (1 found)
0x42211f: cmp edi,  [0x0042BC20+rdx*8] ; sbb eax, 0xFFFFFFFF ; ret ; (1 found)
0x41f767: cmp edi, 0x5D ; setbe al ; ret ; (1 found)
0x40b862: cmp edi, 0xFFFFFFFF ; ret ; (1 found)
0x40536b: cmp edx, 0x0F74D800 ; mov  [rsi+0x18], eax ; ret ; (1 found)
0x410823: cmp esi, 0xFFFFFFFF ; jmp qword [rsi+0x0F] ; (1 found)
0x41247f: cmp rcx, rax ; sete al ; ret ; (1 found)
0x4124cf: cmp rcx, rax ; sete al ; ret ; (1 found)
0x413172: cmp rcx, rdx ; sbb eax, 0x00000000 ; ret ; (1 found)
0x4220dc: cmp rdi, qword [0x0042BC20+rdx*8] ; sbb eax, 0xFFFFFFFF ; ret ; (1 found)
0x42211e: cmp rdi, qword [0x0042BC20+rdx*8] ; sbb eax, 0xFFFFFFFF ; ret ; (1 found)
0x416775: cwde ; and qword [rcx], 0xFFFFFFFFFFFFFFFE ; ret ; (1 found)
0x410a84: cwde ; mov rax, qword [rsi+rax] ; ret ; (1 found)
0x40843d: dec  [r8-0x77] ; retn 0x394C ; (1 found)
0x404af7: dec  [rax+0x0F] ; retn 0xC748 ; (1 found)
0x40d211: dec  [rax+0x39] ; ret ; (1 found)
0x414092: dec  [rax+0x39] ; ret ; (1 found)
0x414420: dec  [rax+0x39] ; ret ; (1 found)
0x41b1bf: dec  [rax+0x39] ; ret ; (1 found)
0x40e934: dec  [rax+0x39] ; retn 0x1674 ; (1 found)
0x41572f: dec  [rax+0x63] ; ret ; (1 found)
0x4265ea: dec  [rax-0x0000C06B] ; inc  [rcx+rcx*4-0x19] ; call 0x00000000 ; (1 found)
0x4130b6: dec  [rax-0x007F] ; ret ; (1 found)
0x41f6ed: dec  [rax-0x007F] ; ret ; (1 found)
0x40a44e: dec  [rax-0x007F] ; retn 0x0000 ; (1 found)
0x40a214: dec  [rax-0x2D] ; ret ; (1 found)
0x408680: dec  [rax-0x39] ; ret ; (1 found)
0x40a20d: dec  [rax-0x39] ; ret ; (1 found)
0x41cd1c: dec  [rax-0x39] ; ret ; (1 found)
0x4014b5: dec  [rax-0x75] ; adc ecx,  [rax+0x39] ; retn 0x0F48 ; (1 found)
0x4140fa: dec  [rax-0x75] ; mov byte [r8+0x29], r9L ; ret ; (1 found)
0x4261a4: dec  [rax-0x75] ; mov ebp, 0xFFFFFF18 ; call 0x00000000 ; (1 found)
0x404a64: dec  [rax-0x77] ; ret ; (1 found)
0x4079f1: dec  [rax-0x77] ; ret ; (1 found)
0x408178: dec  [rax-0x77] ; ret ; (1 found)
0x408c1f: dec  [rax-0x77] ; ret ; (1 found)
0x40ddab: dec  [rax-0x77] ; ret ; (1 found)
0x40faed: dec  [rax-0x77] ; ret ; (1 found)
0x40fb7a: dec  [rax-0x77] ; ret ; (1 found)
0x40fb9c: dec  [rax-0x77] ; ret ; (1 found)
0x40fbf8: dec  [rax-0x77] ; ret ; (1 found)
0x41006a: dec  [rax-0x77] ; ret ; (1 found)
0x410458: dec  [rax-0x77] ; ret ; (1 found)
0x41046d: dec  [rax-0x77] ; ret ; (1 found)
0x410528: dec  [rax-0x77] ; ret ; (1 found)
0x41085a: dec  [rax-0x77] ; ret ; (1 found)
0x4138f3: dec  [rax-0x77] ; ret ; (1 found)
0x414d82: dec  [rax-0x77] ; ret ; (1 found)
0x41ac57: dec  [rax-0x77] ; ret ; (1 found)
0x41accf: dec  [rax-0x77] ; ret ; (1 found)
0x41aef4: dec  [rax-0x77] ; ret ; (1 found)
0x41af6a: dec  [rax-0x77] ; ret ; (1 found)
0x41c8e5: dec  [rax-0x77] ; ret ; (1 found)
0x41cbff: dec  [rax-0x77] ; ret ; (1 found)
0x41cc9e: dec  [rax-0x77] ; ret ; (1 found)
0x41cd4b: dec  [rax-0x77] ; ret ; (1 found)
0x41ce8f: dec  [rax-0x77] ; ret ; (1 found)
0x421c67: dec  [rax-0x77] ; ret ; (1 found)
0x41904a: dec  [rax-0x77] ; retn 0x01B8 ; (1 found)
0x41730a: dec  [rax-0x77] ; retn 0x058B ; (1 found)
0x413526: dec  [rax-0x77] ; retn 0x214C ; (1 found)
0x40843e: dec  [rax-0x77] ; retn 0x394C ; (1 found)
0x404a26: dec  [rax-0x77] ; retn 0x8348 ; (1 found)
0x4193cc: dec  [rax-0x77] ; retn 0x8348 ; (1 found)
0x41ad3b: dec  [rax-0x77] ; retn 0x8348 ; (1 found)
0x41afd3: dec  [rax-0x77] ; retn 0x8348 ; (1 found)
0x41b161: dec  [rax-0x77] ; retn 0x8348 ; (1 found)
0x401455: dec  [rax-0x77] ; retn 0x8349 ; (1 found)
0x421bdf: dec  [rax-0x77] ; retn 0x8548 ; (1 found)
0x4243f3: dec  [rax-0x77] ; retn 0x8944 ; (1 found)
0x423dc9: dec  [rax-0x77] ; retn 0xC148 ; (1 found)
0x406240: dec  [rax-0x77] ; retn 0xFFB8 ; (1 found)
0x424e54: dec  [rax-0x77] ; ror  [rax-0x77], 1 ; retn 0x8B48 ; (1 found)
0x407673: dec  [rax-0x77] ; ror  [rax-0x7D], 1 ; retn 0x4801 ; (1 found)
0x407533: dec  [rax-0x77] ; ror byte [rax-0x7D], 1 ; retn 0xC101 ; (1 found)
0x41593f: dec  [rax-0x79] ; push rax ; ret ; (1 found)
0x4036c1: dec  [rax-0x7B] ; retn 0x850F ; (1 found)
0x4212c4: dec  [rax-0x7B] ; sal byte [rsi+rax*2+0x48], 0x89 ; ret ; (1 found)
0x41abfb: dec  [rax-0x7D] ; call qword [rax] ; (1 found)
0x40717f: dec  [rax-0x7D] ; ret ; (1 found)
0x4071ae: dec  [rax-0x7D] ; ret ; (1 found)
0x41389f: dec  [rax-0x7D] ; ret ; (1 found)
0x4206e0: dec  [rax-0x7D] ; ret ; (1 found)
0x4206f3: dec  [rax-0x7D] ; ret ; (1 found)
0x410212: dec  [rax-0x7D] ; retn 0x4801 ; (1 found)
0x402176: dec  [rax-0x7D] ; retn 0x8501 ; (1 found)
0x40a345: dec  [rbx+0x02E26405] ; add byte [rcx-0x0004677B], cl ; jmp qword [rbp+0x48] ; (1 found)
0x408f3d: dec  [rbx+0x42E8887D] ; ret ; (1 found)
0x4065e5: dec  [rbx-0x0002234B] ; call rcx ; (1 found)
0x418ee4: dec  [rbx-0x76B7C7B9] ; ror  [rax+0x39], 0xFFFFFFBC ; ret ; (1 found)
0x418f3a: dec  [rbx-0x76B7C7BA] ; ror  [rax+0x39], 0xFFFFFFB4 ; ret ; (1 found)
0x4170d7: dec  [rcx+0x58FF6A08] ; ret ; (1 found)
0x41577e: dec  [rcx+0x5C415BD8] ; pop rbp ; ret ; (1 found)
0x40cf29: dec  [rcx+0x730348CE] ; sub byte [rax-0x77], cl ; retn 0x78E8 ; (1 found)
0x40d7d1: dec  [rcx+rcx*4-0x09] ; call 0x00000000 ; (1 found)
0x419fd8: dec  [rcx-0x4374B738] ; ret ; (1 found)
0x4186e3: dec  [rcx-0x4B74B638] ; ret ; (1 found)
0x420ddb: dec  [rcx-0x77] ; retn 0x088B ; (1 found)
0x4023db: dec  [rcx-0x7D] ; ret ; (1 found)
0x405c09: dec  [rcx-0x7D] ; retn 0xB802 ; (1 found)
0x40b3b7: dec  [rcx] ; ret ; (1 found)
0x414589: dec  [rcx] ; ret ; (1 found)
0x41459a: dec  [rcx] ; ret ; (1 found)
0x425594: dec  [rdi] ; mov dh, 0xC0 ; jmp qword [0x0042AC18+rax*8] ; (1 found)
0x4205a5: dec  [rdi] ; mov esi, 0x83480143 ; ret ; (1 found)
0x415a57: dec  [rdi] ; xchg eax, ebp ; retn 0x8548 ; (1 found)
0x416bf3: dec byte [rax-0x77] ; retn 0x8B48 ; (1 found)
0x425a8b: dec byte [rdi] ; xchg eax, ebx ; retn 0x91E9 ; (1 found)
0x4089b6: dec ecx ; ret ; (1 found)
0x4089f7: dec ecx ; ret ; (1 found)
0x40c883: dec ecx ; ret ; (1 found)
0x410569: dec ecx ; ret ; (1 found)
0x4131af: dec ecx ; ret ; (1 found)
0x4131ce: dec ecx ; ret ; (1 found)
0x4131dc: dec ecx ; ret ; (1 found)
0x4159d7: dec ecx ; ret ; (1 found)
0x4202ca: dec ecx ; ret ; (1 found)
0x42030a: dec ecx ; ret ; (1 found)
0x421952: dec ecx ; ret ; (1 found)
0x421a21: dec ecx ; ret ; (1 found)
0x426e8d: dec ecx ; ret ; (1 found)
0x426f6c: dec ecx ; ret ; (1 found)
0x40a20c: dec qword [r8-0x39] ; ret ; (1 found)
0x4219b3: div byte [rbp+0x0A] ; mov eax, 0x00429448 ; ret ; (1 found)
0x415e43: div byte [rbp-0x16] ; ret ; (1 found)
0x415f13: div byte [rbp-0x16] ; ret ; (1 found)
0x416091: div byte [rcx+rcx+0x31] ; rol byte [rax+0x0F480038], cl ; retn 0x66C3 ; (1 found)
0x416115: div byte [rcx+rcx+0x31] ; rol byte [rax+0x0F480038], cl ; retn 0x66C3 ; (1 found)
0x407e41: enter 0x0C73, 0x89 ; retn 0x8589 ; (1 found)
0x41d2f7: enter 0x0EEB, 0x66 ; nop  [rax+rax+0x00] ; ret ; (1 found)
0x405480: enter 0x0F48, 0x43 ; retn 0x8B48 ; (1 found)
0x41a52c: enter 0x0FF3, 0xBC ; ror byte [rax-0x75], 0x84 ; ret ; (1 found)
0x427746: enter 0x5AFF, 0x5B ; pop rbp ; ret ; (1 found)
0x40fed2: enter 0x8348, 0xC0 ; adc byte [rcx+0x39], cl ; ret ; (1 found)
0x423229: enter 0x8948, 0xC2 ; mov rax, rdi ; ret ; (1 found)
0x41c1ac: enter 0x8948, 0xD7 ; call rsi ; (1 found)
0x41fbce: enter 0x894C, 0xF7 ; call r15 ; (1 found)
0x404b8d: enter 0x8B48, 0x53 ; or byte [rax+0x01], cl ; retn 0x3949 ; (1 found)
0x404b8e: enter 0x8B48, 0x53 ; or byte [rax+0x01], cl ; retn 0x3949 ; (1 found)
0x42072b: enter 0x8B48, 0x55 ; sal byte [rax+rbp+0x48], 0x83 ; ret ; (1 found)
0x42072c: enter 0x8B48, 0x55 ; sal byte [rax+rbp+0x48], 0x83 ; ret ; (1 found)
0x418d41: enter 0x8B48, 0xBC ; ret ; (1 found)
0x419fda: enter 0x8B48, 0xBC ; ret ; (1 found)
0x4186e5: enter 0x8B49, 0xB4 ; ret ; (1 found)
0x411f6b: enter 0xE272, 0x48 ; mov eax, edx ; ret ; (1 found)
0x41f2be: enter 0xE8C1, 0x10 ; ret ; (1 found)
0x413176: fadd  [rax] ; ret ; (1 found)
0x419bd5: fadd  [rbx-0x76B7F020] ; retn 0x8D4C ; (1 found)
0x419ca8: fadd  [rbx-0x76B7F020] ; retn 0x8D4C ; (1 found)
0x40cbb7: fadd  [rcx+rcx-0x40] ; ret ; (1 found)
0x4111ef: fadd qword [rcx+0x5F] ; pop rbx ; ret ; (1 found)
0x41072f: fadd qword [rcx-0x0A] ; ret ; (1 found)
0x4170d1: fcom  [rcx-0x0000C718] ; dec  [rcx+0x58FF6A08] ; ret ; (1 found)
0x4278cb: fcomp qword [rax+0x5B] ; pop rbp ; ret ; (1 found)
0x42424a: fdiv st0, st6 ; ret ; (1 found)
0x4274d2: fdivp st0, st0 ; syscall ; (1 found)
0x4275b2: fdivp st0, st0 ; syscall ; (1 found)
0x422185: fdivr  [rdx-0x76B7FFBE] ; retn 0x3B48 ; (1 found)
0x4221d7: fdivr  [rdx-0x76B7FFBE] ; retn 0x3B48 ; (1 found)
0x42220c: fdivr  [rdx-0x76B7FFBE] ; retn 0x3B48 ; (1 found)
0x427303: fdivr qword [rax-0x00000001] ; ret ; (1 found)
0x4220e5: fdivr st0, st7 ; ret ; (1 found)
0x422127: fdivr st0, st7 ; ret ; (1 found)
0x42705c: ficomp  [rbp-0x3D] ; nop ; ret ; (1 found)
0x4041d7: fidivr  [rcx+0x0042A6C0] ; call rsi ; (1 found)
0x409052: fild word [rax] ; add byte [rax-0x77], cl ; ret ; (1 found)
0x413eb0: fimul  [rax+0x29] ; retn 0x8B48 ; (1 found)
0x410ed5: fimul  [rax-0x7D] ; ret ; (1 found)
0x41792c: fimul  [rbp-0x76B7AFFC] ; ret ; (1 found)
0x4108dd: fimul word [rax-0x01] ; ret ; (1 found)
0x41a9d9: fimul word [rax-0x77] ; ret ; (1 found)
0x416b4e: fimul word [rcx+rcx*4-0x19] ; call r13 ; (1 found)
0x416b67: fimul word [rcx+rcx*4-0x19] ; call r13 ; (1 found)
0x427789: fistp word [rax+0x5B] ; pop rbp ; ret ; (1 found)
0x4142cc: fisttp  [rax+0x21] ; ret ; (1 found)
0x4142c9: fisttp  [rax+0x63] ; fisttp  [rax+0x21] ; ret ; (1 found)
0x40f60d: fisttp  [rax-0x7B] ; ror byte [rdi], 0x95 ; ret ; (1 found)
0x4222f6: fisttp  [rcx] ; ret ; (1 found)
0x422e50: fisttp word [rax-0x77] ; retn 0x8948 ; (1 found)
0x40fc26: fld  [rax] ; add byte [rax-0x77], cl ; ret ; (1 found)
0x405452: fmul  [rax+0x0F] ; ret ; (1 found)
0x40547d: fmul  [rax-0x77] ; enter 0x0F48, 0x43 ; retn 0x8B48 ; (1 found)
0x40153f: fmul  [rcx+0x0F] ; ret ; (1 found)
0x4023ce: fmul  [rcx-0x7D] ; ret ; (1 found)
0x41aab9: fmul qword [rax-0x77] ; ret ; (1 found)
0x41ff14: fmul qword [rax-0x77] ; ret ; (1 found)
0x4169bb: hlt ; mov rax, rdx ; ret ; (1 found)
0x416ae3: hlt ; mov rax, rdx ; ret ; (1 found)
0x41c307: hlt ; or eax, 0xFFFFFFFF ; ret ; (1 found)
0x41d748: hlt ; sub edi, edi ; call qword [rax+0x00003ABA] ; (1 found)
0x42746b: idiv edi ; jmp qword [rsi+0x44] ; (1 found)
0x420c09: idiv esi ; call qword [rax-0x17FFE0F1] ; (1 found)
0x4152e5: imul al ; xor eax, 0x5DFFFFFC ; ret ; (1 found)
0x41d2c7: imul eax ; ret ; (1 found)
0x406ead: imul eax,  [rbx], 0xC95A5800 ; ret ; (1 found)
0x4231ac: imul eax, edi, 0x000F4240 ; xchg rax, rdx ; ret ; (1 found)
0x412b8b: imul edi, edi, 0xFF ; call qword [rax+0x0E6FFAC5] ; (1 found)
0x425456: imul edi, edi, 0xFF ; call qword [rbp+0x48] ; (1 found)
0x4085b6: imul edi, edi, 0xFF ; jmp qword [rsi+0x0F] ; (1 found)
0x41c8ce: imul edi, edi, 0xFF ; jmp qword [rsi+0x0F] ; (1 found)
0x410502: imul edi, edi, 0xFF ; jmp qword [rsi+0x2E] ; (1 found)
0x4118a2: imul edi, edi, 0xFF ; jmp qword [rsi+0x2E] ; (1 found)
0x4231ab: imul rax, rdi, 0x000F4240 ; xchg rax, rdx ; ret ; (1 found)
0x4006ba: in al, 0x07 ; ret ; (1 found)
0x41aab0: in al, 0x0F ; nop ; retn 0xB60F ; (1 found)
0x41641b: in al, 0x44 ; sub eax, eax ; ret ; (1 found)
0x40728b: in al, 0x74 ; retn 0x3145 ; (1 found)
0x40a209: in al, dx ; or byte [rbp-0x38B700B1], cl ; ret ; (1 found)
0x421f13: in al, dx ; ret ; (1 found)
0x41e750: in al, dx ; sbb edi, edi ; call qword [rax-0x45FFE0F1] ; (1 found)
0x426fd3: in eax, 0x5D ; ret ; (1 found)
0x426e93: in eax, 0xE8 ; sub eax, 0x5DFFFFE6 ; ret ; (1 found)
0x4111e6: in eax, dx ; call r8 ; (1 found)
0x427107: inc  [0x0000000000427211] ; ret ; (1 found)
0x423bc1: inc  [rax] ; sub rax, rdi ; ret ; (1 found)
0x423bc2: inc  [rax] ; sub rax, rdi ; ret ; (1 found)
0x416d67: inc  [rbx+0x094C01E2] ; retn 0x8949 ; (1 found)
0x425d20: inc  [rcx+0x39] ; rol  [rcx+0x0F], 0xFFFFFF93 ; retn 0xBD80 ; (1 found)
0x416432: inc  [rcx+rbp-0x40] ; ret ; (1 found)
0x40a0bb: inc  [rcx+rcx*4-0x01] ; call rax ; (1 found)
0x4265f0: inc  [rcx+rcx*4-0x19] ; call 0x00000000 ; (1 found)
0x426a40: inc  [rcx-0x01] ; ret ; (1 found)
0x421ff8: inc  [rdx+rdx*8+0x39481074] ; ret ; (1 found)
0x41ef23: inc byte [rcx] ; ror cl, 1 ; ret ; (1 found)
0x41f83a: inc ebx ; mov eax, 0xFFFFFFF7 ; ret ; (1 found)
0x41f944: inc ebx ; mov eax, 0xFFFFFFF7 ; ret ; (1 found)
0x41f94a: inc ebx ; mov eax, 0xFFFFFFFA ; ret ; (1 found)
0x41f834: inc ebx ; mov eax, 0xFFFFFFFC ; ret ; (1 found)
0x42747b: inc ebx ; nop  [rax] ; ret ; (1 found)
0x401896: insb ; add eax,  [rax] ; syscall ; (1 found)
0x4095a0: insb ; ret ; (1 found)
0x4178ab: insb ; retn 0x3948 ; (1 found)
0x41b433: insb ; retn 0x3948 ; (1 found)
0x418a5b: insb ; retn 0x394C ; (1 found)
0x417df3: insb ; retn 0x8B48 ; (1 found)
0x419f0b: insb ; retn 0x8B48 ; (1 found)
0x418667: insb ; retn 0x8B49 ; (1 found)
0x410117: int 0x02 ; add byte [rbp-0x11], dh ; ret ; (1 found)
0x410118: int 0x02 ; add byte [rbp-0x11], dh ; ret ; (1 found)
0x4100dd: int 0x02 ; add byte [rdx+0x06], dh ; ret ; (1 found)
0x40959e: int 0xE8 ; insb ; ret ; (1 found)
0x404f32: int1 ; call r12 ; (1 found)
0x404433: int1 ; call r15 ; (1 found)
0x425243: int1 ; mov rdx, rcx ; ret ; (1 found)
0x422f7e: int1 ; ret ; (1 found)
0x42303e: int1 ; ret ; (1 found)
0x4111e3: int3 ; xor rbp, rbp ; call r8 ; (1 found)
0x4170a2: jmp 0x00000000 ; (1 found)
0x40cba3: jmp qword [0x00429588+rdx*8] ; (1 found)
0x425598: jmp qword [0x0042AC18+rax*8] ; (1 found)
0x425b2e: jmp qword [0x0042AEF0+rdx*8] ; (1 found)
0x42426f: jmp qword [0x0042BDC0+rcx*8] ; (1 found)
0x40be29: jmp qword [0x0042BE70+rdi*8] ; (1 found)
0x405585: jmp qword [rax] ; (1 found)
0x410b8c: jmp qword [rax] ; (1 found)
0x407910: jmp qword [rbp+0x48] ; (1 found)
0x407940: jmp qword [rbp+0x48] ; (1 found)
0x40a322: jmp qword [rbp+0x48] ; (1 found)
0x40a351: jmp qword [rbp+0x48] ; (1 found)
0x423faa: jmp qword [rbp+0x48] ; (1 found)
0x4092f0: jmp qword [rbp+0x78] ; (1 found)
0x4092e1: jmp qword [rbx+0x63] ; (1 found)
0x4092f8: jmp qword [rbx+0x6F] ; (1 found)
0x427194: jmp qword [rbx+0x7E] ; (1 found)
0x402d1d: jmp qword [rbx] ; (1 found)
0x4227a2: jmp qword [rbx] ; (1 found)
0x4228d0: jmp qword [rbx] ; (1 found)
0x4229b7: jmp qword [rbx] ; (1 found)
0x417159: jmp qword [rdi+0x38] ; (1 found)
0x405599: jmp qword [rdx] ; (1 found)
0x405789: jmp qword [rdx] ; (1 found)
0x401ca9: jmp qword [rsi+0x0F] ; (1 found)
0x401ce9: jmp qword [rsi+0x0F] ; (1 found)
0x404c61: jmp qword [rsi+0x0F] ; (1 found)
0x405506: jmp qword [rsi+0x0F] ; (1 found)
0x405c79: jmp qword [rsi+0x0F] ; (1 found)
0x40611e: jmp qword [rsi+0x0F] ; (1 found)
0x406849: jmp qword [rsi+0x0F] ; (1 found)
0x406a61: jmp qword [rsi+0x0F] ; (1 found)
0x406ad9: jmp qword [rsi+0x0F] ; (1 found)
0x4070e6: jmp qword [rsi+0x0F] ; (1 found)
0x407879: jmp qword [rsi+0x0F] ; (1 found)
0x407c1d: jmp qword [rsi+0x0F] ; (1 found)
0x407d59: jmp qword [rsi+0x0F] ; (1 found)
0x4084f6: jmp qword [rsi+0x0F] ; (1 found)
0x408581: jmp qword [rsi+0x0F] ; (1 found)
0x4085b9: jmp qword [rsi+0x0F] ; (1 found)
0x408806: jmp qword [rsi+0x0F] ; (1 found)
0x409269: jmp qword [rsi+0x0F] ; (1 found)
0x40a521: jmp qword [rsi+0x0F] ; (1 found)
0x40a84a: jmp qword [rsi+0x0F] ; (1 found)
0x40a8b9: jmp qword [rsi+0x0F] ; (1 found)
0x40a979: jmp qword [rsi+0x0F] ; (1 found)
0x40ab19: jmp qword [rsi+0x0F] ; (1 found)
0x40b076: jmp qword [rsi+0x0F] ; (1 found)
0x40b139: jmp qword [rsi+0x0F] ; (1 found)
0x40b8e9: jmp qword [rsi+0x0F] ; (1 found)
0x40c4a1: jmp qword [rsi+0x0F] ; (1 found)
0x40c536: jmp qword [rsi+0x0F] ; (1 found)
0x40d2a9: jmp qword [rsi+0x0F] ; (1 found)
0x40d709: jmp qword [rsi+0x0F] ; (1 found)
0x40dd41: jmp qword [rsi+0x0F] ; (1 found)
0x40dd76: jmp qword [rsi+0x0F] ; (1 found)
0x40e0f9: jmp qword [rsi+0x0F] ; (1 found)
0x40efd1: jmp qword [rsi+0x0F] ; (1 found)
0x40efe9: jmp qword [rsi+0x0F] ; (1 found)
0x40f906: jmp qword [rsi+0x0F] ; (1 found)
0x40fa09: jmp qword [rsi+0x0F] ; (1 found)
0x410826: jmp qword [rsi+0x0F] ; (1 found)
0x411879: jmp qword [rsi+0x0F] ; (1 found)
0x411c39: jmp qword [rsi+0x0F] ; (1 found)
0x411c69: jmp qword [rsi+0x0F] ; (1 found)
0x412411: jmp qword [rsi+0x0F] ; (1 found)
0x412806: jmp qword [rsi+0x0F] ; (1 found)
0x412d06: jmp qword [rsi+0x0F] ; (1 found)
0x4132b9: jmp qword [rsi+0x0F] ; (1 found)
0x413756: jmp qword [rsi+0x0F] ; (1 found)
0x413b99: jmp qword [rsi+0x0F] ; (1 found)
0x4140c6: jmp qword [rsi+0x0F] ; (1 found)
0x414109: jmp qword [rsi+0x0F] ; (1 found)
0x4141c9: jmp qword [rsi+0x0F] ; (1 found)
0x4145c6: jmp qword [rsi+0x0F] ; (1 found)
0x4147c9: jmp qword [rsi+0x0F] ; (1 found)
0x4149c1: jmp qword [rsi+0x0F] ; (1 found)
0x414cb9: jmp qword [rsi+0x0F] ; (1 found)
0x414ce9: jmp qword [rsi+0x0F] ; (1 found)
0x415036: jmp qword [rsi+0x0F] ; (1 found)
0x415176: jmp qword [rsi+0x0F] ; (1 found)
0x415536: jmp qword [rsi+0x0F] ; (1 found)
0x4168d1: jmp qword [rsi+0x0F] ; (1 found)
0x417241: jmp qword [rsi+0x0F] ; (1 found)
0x417959: jmp qword [rsi+0x0F] ; (1 found)
0x417ae9: jmp qword [rsi+0x0F] ; (1 found)
0x417f51: jmp qword [rsi+0x0F] ; (1 found)
0x418239: jmp qword [rsi+0x0F] ; (1 found)
0x418be6: jmp qword [rsi+0x0F] ; (1 found)
0x418c21: jmp qword [rsi+0x0F] ; (1 found)
0x418eb1: jmp qword [rsi+0x0F] ; (1 found)
0x419449: jmp qword [rsi+0x0F] ; (1 found)
0x419561: jmp qword [rsi+0x0F] ; (1 found)
0x419659: jmp qword [rsi+0x0F] ; (1 found)
0x4196b6: jmp qword [rsi+0x0F] ; (1 found)
0x419941: jmp qword [rsi+0x0F] ; (1 found)
0x419b89: jmp qword [rsi+0x0F] ; (1 found)
0x419e56: jmp qword [rsi+0x0F] ; (1 found)
0x41a4d1: jmp qword [rsi+0x0F] ; (1 found)
0x41a511: jmp qword [rsi+0x0F] ; (1 found)
0x41a6e1: jmp qword [rsi+0x0F] ; (1 found)
0x41a936: jmp qword [rsi+0x0F] ; (1 found)
0x41ab89: jmp qword [rsi+0x0F] ; (1 found)
0x41ade1: jmp qword [rsi+0x0F] ; (1 found)
0x41b079: jmp qword [rsi+0x0F] ; (1 found)
0x41b391: jmp qword [rsi+0x0F] ; (1 found)
0x41b931: jmp qword [rsi+0x0F] ; (1 found)
0x41b961: jmp qword [rsi+0x0F] ; (1 found)
0x41c8d1: jmp qword [rsi+0x0F] ; (1 found)
0x41cda6: jmp qword [rsi+0x0F] ; (1 found)
0x41d126: jmp qword [rsi+0x0F] ; (1 found)
0x41d8d6: jmp qword [rsi+0x0F] ; (1 found)
0x41e989: jmp qword [rsi+0x0F] ; (1 found)
0x41fab6: jmp qword [rsi+0x0F] ; (1 found)
0x420159: jmp qword [rsi+0x0F] ; (1 found)
0x4201c9: jmp qword [rsi+0x0F] ; (1 found)
0x420681: jmp qword [rsi+0x0F] ; (1 found)
0x420c39: jmp qword [rsi+0x0F] ; (1 found)
0x421296: jmp qword [rsi+0x0F] ; (1 found)
0x421821: jmp qword [rsi+0x0F] ; (1 found)
0x421839: jmp qword [rsi+0x0F] ; (1 found)
0x421db1: jmp qword [rsi+0x0F] ; (1 found)
0x4220a9: jmp qword [rsi+0x0F] ; (1 found)
0x423a51: jmp qword [rsi+0x0F] ; (1 found)
0x427379: jmp qword [rsi+0x0F] ; (1 found)
0x404c85: jmp qword [rsi+0x2E] ; (1 found)
0x4059b0: jmp qword [rsi+0x2E] ; (1 found)
0x406584: jmp qword [rsi+0x2E] ; (1 found)
0x4066f5: jmp qword [rsi+0x2E] ; (1 found)
0x406ac5: jmp qword [rsi+0x2E] ; (1 found)
0x406d65: jmp qword [rsi+0x2E] ; (1 found)
0x406e30: jmp qword [rsi+0x2E] ; (1 found)
0x407d95: jmp qword [rsi+0x2E] ; (1 found)
0x408e25: jmp qword [rsi+0x2E] ; (1 found)
0x40b925: jmp qword [rsi+0x2E] ; (1 found)
0x40cc20: jmp qword [rsi+0x2E] ; (1 found)
0x40d235: jmp qword [rsi+0x2E] ; (1 found)
0x40dd25: jmp qword [rsi+0x2E] ; (1 found)
0x40f001: jmp qword [rsi+0x2E] ; (1 found)
0x40fa95: jmp qword [rsi+0x2E] ; (1 found)
0x40fbd5: jmp qword [rsi+0x2E] ; (1 found)
0x410505: jmp qword [rsi+0x2E] ; (1 found)
0x410530: jmp qword [rsi+0x2E] ; (1 found)
0x411865: jmp qword [rsi+0x2E] ; (1 found)
0x4118a5: jmp qword [rsi+0x2E] ; (1 found)
0x411fd5: jmp qword [rsi+0x2E] ; (1 found)
0x412ab5: jmp qword [rsi+0x2E] ; (1 found)
0x412e55: jmp qword [rsi+0x2E] ; (1 found)
0x413cd4: jmp qword [rsi+0x2E] ; (1 found)
0x4145a5: jmp qword [rsi+0x2E] ; (1 found)
0x4145e0: jmp qword [rsi+0x2E] ; (1 found)
0x414aa4: jmp qword [rsi+0x2E] ; (1 found)
0x414d24: jmp qword [rsi+0x2E] ; (1 found)
0x415125: jmp qword [rsi+0x2E] ; (1 found)
0x4158b5: jmp qword [rsi+0x2E] ; (1 found)
0x418bb5: jmp qword [rsi+0x2E] ; (1 found)
0x418cc5: jmp qword [rsi+0x2E] ; (1 found)
0x418dd5: jmp qword [rsi+0x2E] ; (1 found)
0x418fa2: jmp qword [rsi+0x2E] ; (1 found)
0x419185: jmp qword [rsi+0x2E] ; (1 found)
0x419783: jmp qword [rsi+0x2E] ; (1 found)
0x41a011: jmp qword [rsi+0x2E] ; (1 found)
0x41a861: jmp qword [rsi+0x2E] ; (1 found)
0x41ae45: jmp qword [rsi+0x2E] ; (1 found)
0x41b875: jmp qword [rsi+0x2E] ; (1 found)
0x41ba55: jmp qword [rsi+0x2E] ; (1 found)
0x41bc10: jmp qword [rsi+0x2E] ; (1 found)
0x41d385: jmp qword [rsi+0x2E] ; (1 found)
0x41d512: jmp qword [rsi+0x2E] ; (1 found)
0x420774: jmp qword [rsi+0x2E] ; (1 found)
0x4211e5: jmp qword [rsi+0x2E] ; (1 found)
0x421d95: jmp qword [rsi+0x2E] ; (1 found)
0x422a65: jmp qword [rsi+0x2E] ; (1 found)
0x423fc3: jmp qword [rsi+0x2E] ; (1 found)
0x4241f3: jmp qword [rsi+0x2E] ; (1 found)
0x424382: jmp qword [rsi+0x2E] ; (1 found)
0x424855: jmp qword [rsi+0x2E] ; (1 found)
0x4248b2: jmp qword [rsi+0x2E] ; (1 found)
0x40770e: jmp qword [rsi+0x41] ; (1 found)
0x40771f: jmp qword [rsi+0x41] ; (1 found)
0x407846: jmp qword [rsi+0x41] ; (1 found)
0x40785b: jmp qword [rsi+0x41] ; (1 found)
0x40a83d: jmp qword [rsi+0x41] ; (1 found)
0x40a855: jmp qword [rsi+0x41] ; (1 found)
0x40bc1e: jmp qword [rsi+0x41] ; (1 found)
0x40c50c: jmp qword [rsi+0x41] ; (1 found)
0x41f517: jmp qword [rsi+0x41] ; (1 found)
0x422a25: jmp qword [rsi+0x44] ; (1 found)
0x42746d: jmp qword [rsi+0x44] ; (1 found)
0x40e21f: jmp qword [rsi+0x48] ; (1 found)
0x40e247: jmp qword [rsi+0x48] ; (1 found)
0x413aeb: jmp qword [rsi+0x48] ; (1 found)
0x406196: jmp qword [rsi+0x66] ; (1 found)
0x4062c1: jmp qword [rsi+0x66] ; (1 found)
0x407954: jmp qword [rsi+0x66] ; (1 found)
0x40ad00: jmp qword [rsi+0x66] ; (1 found)
0x40af04: jmp qword [rsi+0x66] ; (1 found)
0x410032: jmp qword [rsi+0x66] ; (1 found)
0x4152a4: jmp qword [rsi+0x66] ; (1 found)
0x415c63: jmp qword [rsi+0x66] ; (1 found)
0x41c620: jmp qword [rsi+0x66] ; (1 found)
0x41eac1: jmp qword [rsi+0x66] ; (1 found)
0x422a94: jmp qword [rsi+0x66] ; (1 found)
0x400710: jmp qword [rsi-0x55] ; (1 found)
0x401bdd: jmp qword [rsi-0x70] ; (1 found)
0x40254d: jmp qword [rsi-0x70] ; (1 found)
0x407eed: jmp qword [rsi-0x70] ; (1 found)
0x4087bd: jmp qword [rsi-0x70] ; (1 found)
0x408e3d: jmp qword [rsi-0x70] ; (1 found)
0x40988d: jmp qword [rsi-0x70] ; (1 found)
0x409f7d: jmp qword [rsi-0x70] ; (1 found)
0x40aa4d: jmp qword [rsi-0x70] ; (1 found)
0x40ceed: jmp qword [rsi-0x70] ; (1 found)
0x40eebd: jmp qword [rsi-0x70] ; (1 found)
0x4147bd: jmp qword [rsi-0x70] ; (1 found)
0x41870d: jmp qword [rsi-0x70] ; (1 found)
0x418d6d: jmp qword [rsi-0x70] ; (1 found)
0x418d7d: jmp qword [rsi-0x70] ; (1 found)
0x418ded: jmp qword [rsi-0x70] ; (1 found)
0x4194cd: jmp qword [rsi-0x70] ; (1 found)
0x4195cd: jmp qword [rsi-0x70] ; (1 found)
0x41a48d: jmp qword [rsi-0x70] ; (1 found)
0x41b0dd: jmp qword [rsi-0x70] ; (1 found)
0x41b4bd: jmp qword [rsi-0x70] ; (1 found)
0x41b6ad: jmp qword [rsi-0x70] ; (1 found)
0x41bf6d: jmp qword [rsi-0x70] ; (1 found)
0x420ecd: jmp qword [rsi-0x70] ; (1 found)
0x420f4d: jmp qword [rsi-0x70] ; (1 found)
0x4216dd: jmp qword [rsi-0x70] ; (1 found)
0x421dfd: jmp qword [rsi-0x70] ; (1 found)
0x40e452: jmp qword [rsi-0x7D] ; (1 found)
0x4005ea: jmp qword [rsi] ; (1 found)
0x40076f: jmp rax ; (1 found)
0x4007c8: jmp rax ; (1 found)
0x401805: jmp rax ; (1 found)
0x404678: jmp rax ; (1 found)
0x412763: jmp rax ; (1 found)
0x412af3: jmp rax ; (1 found)
0x40b11d: lahf ; retn 0xFFFF ; (1 found)
0x423138: lahf ; ror byte [rdi], 0x9C ; retn 0xB60F ; (1 found)
0x42314a: lahf ; ror byte [rdi], 0x9C ; retn 0xB60F ; (1 found)
0x40c25e: lar ebp, word [rsi] ; add byte [rax-0x7D], cl ; retn 0xEB02 ; (1 found)
0x40c25d: lar r13d, word [rsi] ; add byte [rax-0x7D], cl ; retn 0xEB02 ; (1 found)
0x412e8d: lea eax,  [0x0000000000412AD0] ; pop rbp ; ret ; (1 found)
0x422151: lea eax,  [rax+rdx+0x01] ; ret ; (1 found)
0x401802: lea eax,  [rbx+rax] ; jmp rax ; (1 found)
0x424caa: lea eax,  [rcx+rax*2] ; ret ; (1 found)
0x424d2a: lea eax,  [rcx+rax*2] ; ret ; (1 found)
0x42528b: lea eax,  [rdx+rax+0x01] ; mov byte [rax], 0x00 ; ret ; (1 found)
0x42222e: lea eax,  [rdx+rax+0x01] ; ret ; (1 found)
0x4164b9: lea edi,  [rbp-0x08] ; mov eax, 0x000001B0 ; syscall ; (1 found)
0x427237: lea edx,  [0x00000000+rdx*8] ; mov rax, qword [rax+rdx+0x00001480] ; ret ; (1 found)
0x42725f: lea edx,  [0x00000000+rdx*8] ; mov rax, qword [rax+rdx+0x00001480] ; ret ; (1 found)
0x426e37: lea edx,  [rsi] ; add  [rax], eax ; syscall ; (1 found)
0x40a47f: lea esi,  [rbp-0x000003D0] ; add rax, 0x0000000000400000 ; call rax ; (1 found)
0x412e8c: lea rax, qword [0x0000000000412AD0] ; pop rbp ; ret ; (1 found)
0x424ca9: lea rax, qword [rcx+rax*2] ; ret ; (1 found)
0x424d29: lea rax, qword [rcx+rax*2] ; ret ; (1 found)
0x42528a: lea rax, qword [rdx+rax+0x01] ; mov byte [rax], 0x00 ; ret ; (1 found)
0x4164b8: lea rdi, qword [rbp-0x08] ; mov eax, 0x000001B0 ; syscall ; (1 found)
0x40a47e: lea rsi, qword [rbp-0x000003D0] ; add rax, 0x0000000000400000 ; call rax ; (1 found)
0x404794: leave ; call 0x00000000 ; (1 found)
0x404804: leave ; call 0x00000000 ; (1 found)
0x41123a: leave ; movzx edx, cl ; ret ; (1 found)
0x40190d: leave ; ret ; (1 found)
0x4019cd: leave ; ret ; (1 found)
0x401f86: leave ; ret ; (1 found)
0x4039b6: leave ; ret ; (1 found)
0x403f6f: leave ; ret ; (1 found)
0x403fa3: leave ; ret ; (1 found)
0x404877: leave ; ret ; (1 found)
0x40488c: leave ; ret ; (1 found)
0x405004: leave ; ret ; (1 found)
0x40501b: leave ; ret ; (1 found)
0x405096: leave ; ret ; (1 found)
0x4050ac: leave ; ret ; (1 found)
0x405123: leave ; ret ; (1 found)
0x405133: leave ; ret ; (1 found)
0x40516c: leave ; ret ; (1 found)
0x4051f3: leave ; ret ; (1 found)
0x40520e: leave ; ret ; (1 found)
0x405262: leave ; ret ; (1 found)
0x40529b: leave ; ret ; (1 found)
0x4052d1: leave ; ret ; (1 found)
0x405337: leave ; ret ; (1 found)
0x405cff: leave ; ret ; (1 found)
0x405d1d: leave ; ret ; (1 found)
0x405d29: leave ; ret ; (1 found)
0x405d51: leave ; ret ; (1 found)
0x4065c6: leave ; ret ; (1 found)
0x40660d: leave ; ret ; (1 found)
0x406eb2: leave ; ret ; (1 found)
0x406f10: leave ; ret ; (1 found)
0x4089b7: leave ; ret ; (1 found)
0x4089ce: leave ; ret ; (1 found)
0x4089ed: leave ; ret ; (1 found)
0x4089f8: leave ; ret ; (1 found)
0x409798: leave ; ret ; (1 found)
0x4098d8: leave ; ret ; (1 found)
0x4098ec: leave ; ret ; (1 found)
0x40993a: leave ; ret ; (1 found)
0x40994b: leave ; ret ; (1 found)
0x409973: leave ; ret ; (1 found)
0x4099a3: leave ; ret ; (1 found)
0x409a3d: leave ; ret ; (1 found)
0x40a267: leave ; ret ; (1 found)
0x40a2ab: leave ; ret ; (1 found)
0x40a2c3: leave ; ret ; (1 found)
0x40b460: leave ; ret ; (1 found)
0x40b499: leave ; ret ; (1 found)
0x40b4b7: leave ; ret ; (1 found)
0x40b4d5: leave ; ret ; (1 found)
0x40b50e: leave ; ret ; (1 found)
0x40b52c: leave ; ret ; (1 found)
0x40b580: leave ; ret ; (1 found)
0x40b59e: leave ; ret ; (1 found)
0x40b5d4: leave ; ret ; (1 found)
0x40b679: leave ; ret ; (1 found)
0x40b6b2: leave ; ret ; (1 found)
0x40b6eb: leave ; ret ; (1 found)
0x40b709: leave ; ret ; (1 found)
0x40be67: leave ; ret ; (1 found)
0x40be8f: leave ; ret ; (1 found)
0x40beb7: leave ; ret ; (1 found)
0x40bedf: leave ; ret ; (1 found)
0x40bf07: leave ; ret ; (1 found)
0x40bf2f: leave ; ret ; (1 found)
0x40bfa0: leave ; ret ; (1 found)
0x40bfbe: leave ; ret ; (1 found)
0x40c012: leave ; ret ; (1 found)
0x40c030: leave ; ret ; (1 found)
0x40c069: leave ; ret ; (1 found)
0x40c5d4: leave ; ret ; (1 found)
0x40c61c: leave ; ret ; (1 found)
0x40c653: leave ; ret ; (1 found)
0x40c695: leave ; ret ; (1 found)
0x40c884: leave ; ret ; (1 found)
0x40d2f2: leave ; ret ; (1 found)
0x40e1d9: leave ; ret ; (1 found)
0x40eac4: leave ; ret ; (1 found)
0x40eaf5: leave ; ret ; (1 found)
0x40eb0b: leave ; ret ; (1 found)
0x40f083: leave ; ret ; (1 found)
0x40f0a9: leave ; ret ; (1 found)
0x40f107: leave ; ret ; (1 found)
0x40f139: leave ; ret ; (1 found)
0x40f5eb: leave ; ret ; (1 found)
0x40f77a: leave ; ret ; (1 found)
0x40ff98: leave ; ret ; (1 found)
0x41056a: leave ; ret ; (1 found)
0x41059a: leave ; ret ; (1 found)
0x410629: leave ; ret ; (1 found)
0x41099f: leave ; ret ; (1 found)
0x4109c2: leave ; ret ; (1 found)
0x410dad: leave ; ret ; (1 found)
0x410dc3: leave ; ret ; (1 found)
0x41129f: leave ; ret ; (1 found)
0x411572: leave ; ret ; (1 found)
0x4118fa: leave ; ret ; (1 found)
0x411920: leave ; ret ; (1 found)
0x411ce7: leave ; ret ; (1 found)
0x412169: leave ; ret ; (1 found)
0x412197: leave ; ret ; (1 found)
0x4131b0: leave ; ret ; (1 found)
0x4131cf: leave ; ret ; (1 found)
0x4131dd: leave ; ret ; (1 found)
0x414b2b: leave ; ret ; (1 found)
0x414f09: leave ; ret ; (1 found)
0x4158f6: leave ; ret ; (1 found)
0x41596f: leave ; ret ; (1 found)
0x4159b0: leave ; ret ; (1 found)
0x4159d8: leave ; ret ; (1 found)
0x4159f1: leave ; ret ; (1 found)
0x415a6f: leave ; ret ; (1 found)
0x416002: leave ; ret ; (1 found)
0x416461: leave ; ret ; (1 found)
0x416474: leave ; ret ; (1 found)
0x416491: leave ; ret ; (1 found)
0x41649f: leave ; ret ; (1 found)
0x4164c6: leave ; ret ; (1 found)
0x4164d7: leave ; ret ; (1 found)
0x416533: leave ; ret ; (1 found)
0x416ffe: leave ; ret ; (1 found)
0x41a9fd: leave ; ret ; (1 found)
0x41aa27: leave ; ret ; (1 found)
0x41c0a1: leave ; ret ; (1 found)
0x41c3d7: leave ; ret ; (1 found)
0x41c3f4: leave ; ret ; (1 found)
0x41c414: leave ; ret ; (1 found)
0x41dc9a: leave ; ret ; (1 found)
0x41e5d8: leave ; ret ; (1 found)
0x41e873: leave ; ret ; (1 found)
0x41e8ed: leave ; ret ; (1 found)
0x41e947: leave ; ret ; (1 found)
0x41ef0d: leave ; ret ; (1 found)
0x41ef26: leave ; ret ; (1 found)
0x41ef3a: leave ; ret ; (1 found)
0x41ef77: leave ; ret ; (1 found)
0x4202cb: leave ; ret ; (1 found)
0x42030b: leave ; ret ; (1 found)
0x420888: leave ; ret ; (1 found)
0x421301: leave ; ret ; (1 found)
0x421953: leave ; ret ; (1 found)
0x421a22: leave ; ret ; (1 found)
0x422399: leave ; ret ; (1 found)
0x4223c7: leave ; ret ; (1 found)
0x422d9b: leave ; ret ; (1 found)
0x422de2: leave ; ret ; (1 found)
0x4230e6: leave ; ret ; (1 found)
0x42383b: leave ; ret ; (1 found)
0x423a95: leave ; ret ; (1 found)
0x4242b6: leave ; ret ; (1 found)
0x4242f6: leave ; ret ; (1 found)
0x4249c6: leave ; ret ; (1 found)
0x424a34: leave ; ret ; (1 found)
0x424dfc: leave ; ret ; (1 found)
0x424e7b: leave ; ret ; (1 found)
0x426e8e: leave ; ret ; (1 found)
0x426f6d: leave ; ret ; (1 found)
0x4272cd: leave ; ret ; (1 found)
0x427a09: leave ; ret ; (1 found)
0x4007b6: lgdt  [0x004004BE] ; mov rax, 0x0000000000400800 ; jmp rax ; (1 found)
0x4239b4: lock add  [rax], r8d ; pop rbp ; ret ; (1 found)
0x41d195: lock add qword [rdi+0x28], 0x01 ; ret ; (1 found)
0x406eac: lock imul eax,  [rbx], 0xC95A5800 ; ret ; (1 found)
0x41596d: lock leave ; ret ; (1 found)
0x41596e: lock leave ; ret ; (1 found)
0x410580: lock mov qword [rbp-0x08], rdi ; call 0x00000000 ; (1 found)
0x416581: lock mov qword [rdx], rax ; mov qword [rsi+0x10], rdx ; ret ; (1 found)
0x4165a1: lock mov qword [rdx], rax ; mov qword [rsi+0x10], rdx ; ret ; (1 found)
0x4165b8: lock mov qword [rdx], rax ; mov qword [rsi+0x10], rdx ; ret ; (1 found)
0x424a2f: lock mov rbx, qword [rbp-0x08] ; leave ; ret ; (1 found)
0x42250f: lock movups  [rdi], xmm0 ; mov rax, rdi ; ret ; (1 found)
0x416238: lock ret ; (1 found)
0x4169ef: lock ret ; (1 found)
0x416a3f: lock ret ; (1 found)
0x4270be: lock ret ; (1 found)
0x427207: lock ret ; (1 found)
0x4004fc: lock stosb ; ret ; (1 found)
0x410e1c: lock sub rax, 0x01 ; ret ; (1 found)
0x4223ff: lock vmovdqu  [rdi], xmm0 ; mov rax, r8 ; ret ; (1 found)
0x40bf9c: lock xor byte [rdx], al ; add cl, cl ; ret ; (1 found)
0x4032f7: mov  [0x0000000000445F84], 0x00000001 ; ret ; (1 found)
0x4031f3: mov  [0x0000000000445F84], 0x00000002 ; ret ; (1 found)
0x403302: mov  [0x0000000000445F84], 0x00000006 ; ret ; (1 found)
0x403344: mov  [0x0000000000445F84], 0x00000007 ; ret ; (1 found)
0x4033c6: mov  [0x0000000000445F84], 0x00000008 ; ret ; (1 found)
0x40342d: mov  [0x0000000000445F84], 0x00000009 ; ret ; (1 found)
0x40334f: mov  [0x0000000000445F84], 0x0000000B ; ret ; (1 found)
0x40330d: mov  [0x0000000000445F84], 0x0000000C ; ret ; (1 found)
0x403318: mov  [0x0000000000445F84], 0x0000000D ; ret ; (1 found)
0x403323: mov  [0x0000000000445F84], 0x0000000E ; ret ; (1 found)
0x40332e: mov  [0x0000000000445F84], 0x00000011 ; ret ; (1 found)
0x403339: mov  [0x0000000000445F84], 0x00000012 ; ret ; (1 found)
0x403215: mov  [0x0000000000445F84], eax ; ret ; (1 found)
0x4033a5: mov  [0x0000000000445F88], 0x00000004 ; ret ; (1 found)
0x4033b0: mov  [0x0000000000445F88], 0x00000005 ; ret ; (1 found)
0x4033bb: mov  [0x0000000000445F88], 0x00000006 ; ret ; (1 found)
0x403422: mov  [0x0000000000445F88], 0x00000007 ; ret ; (1 found)
0x40340e: mov  [0x0000000000445F88], 0x00000008 ; ret ; (1 found)
0x4033f6: mov  [0x0000000000445F88], 0x00000009 ; ret ; (1 found)
0x4033e3: mov  [0x0000000000445F88], 0x0000000A ; ret ; (1 found)
0x403481: mov  [0x0000000000445F88], 0x0000000B ; ret ; (1 found)
0x403283: mov  [0x0000000000445F88], 0x00000010 ; ret ; (1 found)
0x403476: mov  [0x0000000000445F88], 0x00000014 ; ret ; (1 found)
0x403278: mov  [0x0000000000445F88], 0x00000015 ; ret ; (1 found)
0x403269: mov  [0x0000000000445F88], 0x00000017 ; ret ; (1 found)
0x4034b5: mov  [0x0000000000445F88], 0x0000001A ; ret ; (1 found)
0x4034cb: mov  [0x0000000000445F88], 0x0000001D ; ret ; (1 found)
0x422ddc: mov  [0x0000000000445FC8], eax ; leave ; ret ; (1 found)
0x40f536: mov  [0x0000000000446068], 0x0043C684 ; pop rbp ; ret ; (1 found)
0x4120a0: mov  [0x0000000000446090], 0x00000001 ; ret ; (1 found)
0x412098: mov  [0x0000000000446090], edi ; ret ; (1 found)
0x40274b: mov  [0x0000000000446098], eax ; ret ; (1 found)
0x402745: mov  [0x000000000044609C], eax ; mov  [0x0000000000446098], eax ; ret ; (1 found)
0x415fa0: mov  [0x00000000004460A4], 0x00000001 ; ret ; (1 found)
0x415f98: mov  [0x00000000004460A4], edi ; ret ; (1 found)
0x427278: mov  [0x00001480+rax*8], edi ; ret ; (1 found)
0x406605: mov  [0xC9F85D8B480003FA], eax ; ret ; (1 found)
0x418bdd: mov  [0xFFFCC8E900000358], eax ; jmp qword [rsi+0x0F] ; (1 found)
0x40dd38: mov  [0xFFFCFBE910890002], eax ; jmp qword [rsi+0x0F] ; (1 found)
0x402ed8: mov  [r8+0x0C], edx ; ret ; (1 found)
0x40a694: mov  [rax+0x00000158], edx ; ret ; (1 found)
0x411d24: mov  [rax+0x08], edx ; ret ; (1 found)
0x402ed9: mov  [rax+0x0C], edx ; ret ; (1 found)
0x4231ad: mov  [rax+0x42], 0x9248000F ; ret ; (1 found)
0x400904: mov  [rax], ecx ; mov rax, rdx ; ret ; (1 found)
0x411d5c: mov  [rax], edx ; movups  [rsi], xmm0 ; ret ; (1 found)
0x413064: mov  [rax], edx ; pop rbp ; ret ; (1 found)
0x426102: mov  [rbp-0x000000D8], ecx ; call 0x00000000 ; (1 found)
0x42619f: mov  [rbp-0x000000D8], ecx ; mov rdi, qword [rbp-0x000000E8] ; call 0x00000000 ; (1 found)
0x410582: mov  [rbp-0x08], edi ; call 0x00000000 ; (1 found)
0x41057e: mov  [rbp-0x10], esi ; mov qword [rbp-0x08], rdi ; call 0x00000000 ; (1 found)
0x40fd6c: mov  [rbp-0x38], esi ; call 0x00000000 ; (1 found)
0x40fd68: mov  [rbp-0x3C], edx ; mov qword [rbp-0x38], rsi ; call 0x00000000 ; (1 found)
0x40442e: mov  [rbp-0x70], edx ; mov rcx, rsi ; call r15 ; (1 found)
0x41c266: mov  [rbx+0x00000080], eax ; mov rdi, qword [r12+0x08] ; call qword [r12+0x00] ; (1 found)
0x413f38: mov  [rbx], 0x31450000 ; call qword [rax+0x241C8949] ; (1 found)
0x411df9: mov  [rcx+0x08], eax ; mov qword [rdi], rsi ; ret ; (1 found)
0x4161fb: mov  [rcx+0x29], 0xC88944C1 ; ret ; (1 found)
0x4087b2: mov  [rcx], 0x75F83948 ; mov edx, 0xFFFF5CE9 ; jmp qword [rsi-0x70] ; (1 found)
0x40cbb2: mov  [rcx], 0xD875C984 ; or eax, r8d ; ret ; (1 found)
0x411dae: mov  [rcx], edx ; mov qword [rdx+0x08], rcx ; ret ; (1 found)
0x415661: mov  [rcx], edx ; ret ; (1 found)
0x415676: mov  [rcx], edx ; ret ; (1 found)
0x423429: mov  [rdi+0x00000128], eax ; xor eax, eax ; ret ; (1 found)
0x423490: mov  [rdi+0x00000128], eax ; xor eax, eax ; ret ; (1 found)
0x42460a: mov  [rdi+0x08], edx ; xor eax, eax ; ret ; (1 found)
0x42461b: mov  [rdi+0x08], edx ; xor eax, eax ; ret ; (1 found)
0x422d24: mov  [rdi+0x20], 0x00000000 ; xor eax, eax ; ret ; (1 found)
0x41718c: mov  [rdi+0x38], eax ; xor eax, eax ; ret ; (1 found)
0x40c25b: mov  [rdi+r9+0x02], 0x8348002E ; retn 0xEB02 ; (1 found)
0x40c25c: mov  [rdi+rcx+0x02], 0x8348002E ; retn 0xEB02 ; (1 found)
0x422558: mov  [rdi+rdx-0x04], esi ; mov rax, rdi ; ret ; (1 found)
0x422576: mov  [rdi+rdx-0x08], esi ; mov rax, rdi ; ret ; (1 found)
0x41e322: mov  [rdi], 0x00000000 ; mov eax, 0x00000001 ; ret ; (1 found)
0x424b43: mov  [rdi], 0x00000000 ; xor eax, eax ; ret ; (1 found)
0x40c14b: mov  [rdi], eax ; mov rax, rdx ; ret ; (1 found)
0x411dbd: mov  [rdi], eax ; ret ; (1 found)
0x411dfd: mov  [rdi], esi ; ret ; (1 found)
0x411db1: mov  [rdx+0x08], ecx ; ret ; (1 found)
0x416614: mov  [rdx+0x08], esi ; ret ; (1 found)
0x416629: mov  [rdx+0x08], esi ; ret ; (1 found)
0x416638: mov  [rdx+0x08], esi ; ret ; (1 found)
0x406375: mov  [rdx+0x08], esi ; xor eax, eax ; ret ; (1 found)
0x411d21: mov  [rdx], eax ; mov qword [rax+0x08], rdx ; ret ; (1 found)
0x416583: mov  [rdx], eax ; mov qword [rsi+0x10], rdx ; ret ; (1 found)
0x4165a3: mov  [rdx], eax ; mov qword [rsi+0x10], rdx ; ret ; (1 found)
0x4165ba: mov  [rdx], eax ; mov qword [rsi+0x10], rdx ; ret ; (1 found)
0x405ef9: mov  [rsi+0x08], edx ; ret ; (1 found)
0x416610: mov  [rsi+0x10], edx ; mov qword [rdx+0x08], rsi ; ret ; (1 found)
0x416625: mov  [rsi+0x10], edx ; mov qword [rdx+0x08], rsi ; ret ; (1 found)
0x416634: mov  [rsi+0x10], edx ; mov qword [rdx+0x08], rsi ; ret ; (1 found)
0x416586: mov  [rsi+0x10], edx ; ret ; (1 found)
0x4165a6: mov  [rsi+0x10], edx ; ret ; (1 found)
0x4165bd: mov  [rsi+0x10], edx ; ret ; (1 found)
0x405371: mov  [rsi+0x18], eax ; ret ; (1 found)
0x40537a: mov  [rsi+0x18], eax ; ret ; (1 found)
0x41e811: mov  [rsi+0x38], 0x00000001 ; xor eax, eax ; ret ; (1 found)
0x405ef2: mov  [rsi], 0x77777777 ; mov qword [rsi+0x08], rdx ; ret ; (1 found)
0x404cc2: mov  [rsi], edi ; ret ; (1 found)
0x404cde: mov  [rsi], edi ; ret ; (1 found)
0x41c115: mov  [rsp+0x50], edx ; mov rdi, qword [rax+0x08] ; call qword [rax] ; (1 found)
0x410a93: mov ah, 0x48 ; or eax, 0xFFFFFFFF ; ret ; (1 found)
0x4164bd: mov al, 0x01 ; add byte [rax], al ; syscall ; (1 found)
0x420825: mov al, 0x45 ; add byte [rax+0x0F], cl ; retn 0xC2EB ; (1 found)
0x40196b: mov al, byte [0x0000F95CE80040C8] ; pop rbp ; ret ; (1 found)
0x4034c2: mov al, byte [0x0A770FFE83000000] ; mov  [0x0000000000445F88], 0x0000001D ; ret ; (1 found)
0x416f59: mov al, byte [0x5D0002114715FF0C] ; ret ; (1 found)
0x424c0e: mov al, byte [0x890001349125FF04] ; sar al, 1 ; syscall ; (1 found)
0x424c0f: mov al, byte [0x890001349125FF04] ; sar al, 1 ; syscall ; (1 found)
0x410f95: mov al, byte [0xFFFF0EE9D78949FC] ; call qword [rax+0x49CB8948] ; (1 found)
0x40b98a: mov al, byte [rcx] ; add byte [rax-0x77], cl ; retn 0x3948 ; (1 found)
0x408f40: mov al, ch ; ret ; (1 found)
0x4004fb: mov al, dh ; stosb ; ret ; (1 found)
0x404796: mov ax, 0xFFBF ; pop rbp ; ret ; (1 found)
0x41b1bd: mov bh, dh ; dec  [rax+0x39] ; ret ; (1 found)
0x41b15f: mov bh, dh ; dec  [rax-0x77] ; retn 0x8348 ; (1 found)
0x403122: mov bl, 0x01 ; add byte [rax], al ; ret ; (1 found)
0x40271d: mov byte [0x00000000004460B4], 0x01 ; pop rbp ; ret ; (1 found)
0x404dd4: mov byte [0x41D98948D2310002], al ; call rsp ; (1 found)
0x410809: mov byte [0xF6410000441F0F66], al ; ret ; (1 found)
0x427200: mov byte [r8+0x01], 0x00 ; mov rax, rsi ; ret ; (1 found)
0x4140fd: mov byte [r8+0x29], r9L ; ret ; (1 found)
0x413eb6: mov byte [r8+0x39], r9L ; retn 0x830F ; (1 found)
0x427201: mov byte [rax+0x01], 0x00 ; mov rax, rsi ; ret ; (1 found)
0x4140fe: mov byte [rax+0x29], cl ; ret ; (1 found)
0x413eb7: mov byte [rax+0x39], cl ; retn 0x830F ; (1 found)
0x423bc0: mov byte [rax-0x01], 0x00 ; sub rax, rdi ; ret ; (1 found)
0x42528f: mov byte [rax], 0x00 ; ret ; (1 found)
0x423bb5: mov byte [rax], 0x00 ; sub rax, rdi ; ret ; (1 found)
0x4265eb: mov byte [rbp-0x000000C1], dl ; mov edi, r12d ; call 0x00000000 ; (1 found)
0x40f53d: mov byte [rbx+0x00], 0x5D ; ret ; (1 found)
0x402f6b: mov byte [rbx], al ; add byte [rax], al ; ret ; (1 found)
0x406f82: mov byte [rcx-0x7D], 0xE6 ; add esi, esi ; retn 0x7404 ; (1 found)
0x412768: mov byte [rdi], al ; mov rax, r8 ; ret ; (1 found)
0x412af8: mov byte [rdi], al ; mov rax, r8 ; ret ; (1 found)
0x40fdfd: mov byte [rdx], al ; mov eax, 0x00000001 ; ret ; (1 found)
0x41de5e: mov ch, 0x89 ; retn 0xD2F7 ; (1 found)
0x404051: mov cl, 0x02 ; add byte [rcx+0x0000FDE9], bh ; call rbx ; (1 found)
0x4089b4: mov cl, 0xFF ; dec ecx ; ret ; (1 found)
0x4255c5: mov cl, 0xFF ; retn 0xADEB ; (1 found)
0x40f0b5: mov cs, word [rax-0x7D] ; ret ; (1 found)
0x4005be: mov dh, 0x31 ; sar byte [rcx-0x0C03FFF8], 0xAB ; ret ; (1 found)
0x41024a: mov dh, 0x43 ; add  [rax-0x7D], ecx ; ret ; (1 found)
0x40843c: mov dh, 0x43 ; dec  [rax-0x77] ; retn 0x394C ; (1 found)
0x405bab: mov dh, 0x7A ; add  [rax-0x7D], ecx ; retn 0x4001 ; (1 found)
0x422183: mov dh, 0x80 ; fdivr  [rdx-0x76B7FFBE] ; retn 0x3B48 ; (1 found)
0x4221d5: mov dh, 0x80 ; fdivr  [rdx-0x76B7FFBE] ; retn 0x3B48 ; (1 found)
0x42220a: mov dh, 0x80 ; fdivr  [rdx-0x76B7FFBE] ; retn 0x3B48 ; (1 found)
0x425596: mov dh, 0xC0 ; jmp qword [0x0042AC18+rax*8] ; (1 found)
0x410b94: mov dh, 0xC0 ; ret ; (1 found)
0x41f741: mov dh, 0xC0 ; ret ; (1 found)
0x4243be: mov dh, 0xC0 ; ret ; (1 found)
0x412686: mov dh, 0xC0 ; sub eax, r8d ; ret ; (1 found)
0x4126f1: mov dh, 0xC0 ; sub eax, r8d ; ret ; (1 found)
0x41123c: mov dh, 0xD1 ; ret ; (1 found)
0x41124a: mov dh, 0xD1 ; ret ; (1 found)
0x40cba1: mov dh, 0xD2 ; jmp qword [0x00429588+rdx*8] ; (1 found)
0x425b2c: mov dh, 0xD2 ; jmp qword [0x0042AEF0+rdx*8] ; (1 found)
0x42214f: mov dh, 0xD2 ; lea eax,  [rax+rdx+0x01] ; ret ; (1 found)
0x423150: mov dh, 0xD2 ; sub eax, edx ; ret ; (1 found)
0x409cbd: mov dl, 0xFF ; call qword [rax-0x6F6F6F70] ; (1 found)
0x401d30: mov eax,  [0x0000000000438090] ; pop rbp ; ret ; (1 found)
0x401d4f: mov eax,  [0x0000000000438090] ; pop rbp ; ret ; (1 found)
0x40bf59: mov eax,  [0x0000000000438208] ; neg eax ; ret ; (1 found)
0x411e4e: mov eax,  [0x0000000000438480] ; mov edi, ebx ; syscall ; (1 found)
0x411e43: mov eax,  [0x0000000000438488] ; mov edi, ebx ; syscall ; (1 found)
0x411e44: mov eax,  [0x0000000000438488] ; mov edi, ebx ; syscall ; (1 found)
0x401893: mov eax,  [0x00000000004384A0] ; syscall ; (1 found)
0x425739: mov eax,  [0x00000000004384A0] ; syscall ; (1 found)
0x4111f4: mov eax,  [0x00000000004384B8] ; syscall ; ret ; (1 found)
0x4111f4: mov eax,  [0x00000000004384B8] ; syscall ; (1 found)
0x426e35: mov eax,  [0x00000000004384C8] ; syscall ; (1 found)
0x40eee6: mov eax,  [0x000000000043C268] ; pop rbp ; ret ; (1 found)
0x407376: mov eax,  [0x000000000043D898] ; pop rbp ; ret ; (1 found)
0x4073a6: mov eax,  [0x000000000043D8A0] ; pop rbp ; ret ; (1 found)
0x40d736: mov eax,  [0x0000000000446008] ; pop rbp ; ret ; (1 found)
0x427270: mov eax,  [0x0000000000446048] ; mov qword [gs:0x00001480+rax*8], rdi ; ret ; (1 found)
0x40f594: mov eax,  [0x0000000000446068] ; pop rbp ; ret ; (1 found)
0x417022: mov eax,  [0x00000030] ; add rax, 0x3C ; ret ; (1 found)
0x427c18: mov eax,  [0x00438498] ; clc ; syscall ; (1 found)
0x404f2d: mov eax,  [0xD4FF41F189480002] ; mov rcx, rbx ; call r12 ; (1 found)
0x410b58: mov eax,  [rax+0x04] ; ret ; (1 found)
0x424563: mov eax,  [rax+0x40] ; ret ; (1 found)
0x42723f: mov eax,  [rax+rdx+0x00001480] ; ret ; (1 found)
0x427267: mov eax,  [rax+rdx+0x00001480] ; ret ; (1 found)
0x427222: mov eax,  [rax] ; ret ; (1 found)
0x427912: mov eax,  [rax] ; ret ; (1 found)
0x41ef0a: mov eax,  [rbp-0x04] ; leave ; ret ; (1 found)
0x4164c3: mov eax,  [rbp-0x08] ; leave ; ret ; (1 found)
0x41596c: mov eax,  [rbp-0x10] ; leave ; ret ; (1 found)
0x41fce0: mov eax,  [rbp-0x40] ; call rax ; (1 found)
0x41fd19: mov eax,  [rbp-0x40] ; call rax ; (1 found)
0x41fd31: mov eax,  [rbp-0x40] ; call rax ; (1 found)
0x4109f0: mov eax,  [rdi+0x10] ; ret ; (1 found)
0x410a12: mov eax,  [rdi+0x20] ; ret ; (1 found)
0x4109ec: mov eax,  [rdi+0x30] ; ret ; (1 found)
0x41157a: mov eax,  [rdx+0x00] ; ret ; (1 found)
0x410afc: mov eax,  [rdx+rax*8+0x04] ; ret ; (1 found)
0x411db9: mov eax,  [rsi+0x08] ; mov qword [rdi], rax ; ret ; (1 found)
0x410a86: mov eax,  [rsi+rax] ; ret ; (1 found)
0x40fdff: mov eax, 0x00000001 ; ret ; (1 found)
0x41e328: mov eax, 0x00000001 ; ret ; (1 found)
0x420348: mov eax, 0x00000001 ; ret ; (1 found)
0x404cbd: mov eax, 0x0000000B ; mov  [rsi], edi ; ret ; (1 found)
0x41646d: mov eax, 0x000000BA ; syscall ; (1 found)
0x41648a: mov eax, 0x0000012B ; syscall ; (1 found)
0x4164d0: mov eax, 0x00000137 ; syscall ; (1 found)
0x4164bc: mov eax, 0x000001B0 ; syscall ; (1 found)
0x412fe8: mov eax, 0x00412F50 ; pop rbp ; ret ; (1 found)
0x415f4b: mov eax, 0x00415D90 ; pop rbp ; ret ; (1 found)
0x415f44: mov eax, 0x00415E60 ; pop rbp ; ret ; (1 found)
0x416158: mov eax, 0x004160B0 ; pop rbp ; ret ; (1 found)
0x4163a8: mov eax, 0x00416330 ; pop rbp ; ret ; (1 found)
0x42046b: mov eax, 0x00420370 ; pop rbp ; ret ; (1 found)
0x420464: mov eax, 0x004203E0 ; pop rbp ; ret ; (1 found)
0x42307b: mov eax, 0x00422EE0 ; pop rbp ; ret ; (1 found)
0x423074: mov eax, 0x00422FA0 ; pop rbp ; ret ; (1 found)
0x424d54: mov eax, 0x00424C40 ; pop rbp ; ret ; (1 found)
0x424d5b: mov eax, 0x00424CC0 ; pop rbp ; ret ; (1 found)
0x411578: mov eax, 0x00428B32 ; ret ; (1 found)
0x4109c8: mov eax, 0x00428C6E ; ret ; (1 found)
0x411840: mov eax, 0x00428E02 ; ret ; (1 found)
0x4219b6: mov eax, 0x00429448 ; ret ; (1 found)
0x416498: mov eax, 0x0100001B ; syscall ; (1 found)
0x4245f0: mov eax, 0x02000074 ; mov esi, edx ; syscall ; (1 found)
0x40a0b8: mov eax, 0x44FFFFFE ; mov edi, edi ; call rax ; (1 found)
0x41fd14: mov eax, 0x48F6894C ; mov eax,  [rbp-0x40] ; call rax ; (1 found)
0x41fcdb: mov eax, 0x48F7894C ; mov eax,  [rbp-0x40] ; call rax ; (1 found)
0x410b0a: mov eax, 0xFFC88348 ; ret ; (1 found)
0x426e88: mov eax, 0xFFE638E8 ; dec ecx ; ret ; (1 found)
0x4141c4: mov eax, 0xFFFBEEE9 ; jmp qword [rsi+0x0F] ; (1 found)
0x404a5f: mov eax, 0xFFFDDBE8 ; dec  [rax-0x77] ; ret ; (1 found)
0x41441b: mov eax, 0xFFFF25E9 ; dec  [rax+0x39] ; ret ; (1 found)
0x426f67: mov eax, 0xFFFF2EE8 ; dec ecx ; ret ; (1 found)
0x41f930: mov eax, 0xFFFFFFF5 ; ret ; (1 found)
0x41f920: mov eax, 0xFFFFFFF6 ; ret ; (1 found)
0x41f83c: mov eax, 0xFFFFFFF7 ; ret ; (1 found)
0x41f946: mov eax, 0xFFFFFFF7 ; ret ; (1 found)
0x41f830: mov eax, 0xFFFFFFF8 ; ret ; (1 found)
0x41f940: mov eax, 0xFFFFFFF8 ; ret ; (1 found)
0x41f820: mov eax, 0xFFFFFFF9 ; ret ; (1 found)
0x41f94c: mov eax, 0xFFFFFFFA ; ret ; (1 found)
0x41f810: mov eax, 0xFFFFFFFB ; ret ; (1 found)
0x41f836: mov eax, 0xFFFFFFFC ; ret ; (1 found)
0x41f900: mov eax, 0xFFFFFFFC ; ret ; (1 found)
0x41f800: mov eax, 0xFFFFFFFD ; ret ; (1 found)
0x41f910: mov eax, 0xFFFFFFFD ; ret ; (1 found)
0x41f7f0: mov eax, 0xFFFFFFFE ; ret ; (1 found)
0x41f8f8: mov eax, 0xFFFFFFFE ; ret ; (1 found)
0x403927: mov eax, 0xFFFFFFFF ; pop rbp ; ret ; (1 found)
0x41d5c9: mov eax, 0xFFFFFFFF ; ret ; (1 found)
0x427304: mov eax, 0xFFFFFFFF ; ret ; (1 found)
0x427477: mov eax, 0xFFFFFFFF ; ret ; (1 found)
0x41593a: mov eax, 0xFFFFFFFF ; xchg qword [rdx+0x50], rax ; ret ; (1 found)
0x412036: mov eax, eax ; ret ; (1 found)
0x41276b: mov eax, eax ; ret ; (1 found)
0x412afb: mov eax, eax ; ret ; (1 found)
0x422405: mov eax, eax ; ret ; (1 found)
0x422453: mov eax, eax ; ret ; (1 found)
0x4224b3: mov eax, eax ; ret ; (1 found)
0x41d7cd: mov eax, ebx ; ret ; (1 found)
0x41d812: mov eax, ebx ; ret ; (1 found)
0x4239fc: mov eax, ecx ; clc ; syscall ; (1 found)
0x40e1d7: mov eax, ecx ; leave ; ret ; (1 found)
0x40e1e0: mov eax, ecx ; ret ; (1 found)
0x416200: mov eax, ecx ; ret ; (1 found)
0x41f2bd: mov eax, ecx ; shr eax, 0x10 ; ret ; (1 found)
0x41d193: mov eax, edi ; lock add qword [rdi+0x28], 0x01 ; ret ; (1 found)
0x422e55: mov eax, edi ; pop rbp ; ret ; (1 found)
0x416538: mov eax, edi ; ret ; (1 found)
0x4169f5: mov eax, edi ; ret ; (1 found)
0x422514: mov eax, edi ; ret ; (1 found)
0x42253b: mov eax, edi ; ret ; (1 found)
0x42255d: mov eax, edi ; ret ; (1 found)
0x42257b: mov eax, edi ; ret ; (1 found)
0x42322e: mov eax, edi ; ret ; (1 found)
0x4232ec: mov eax, edi ; ret ; (1 found)
0x423301: mov eax, edi ; ret ; (1 found)
0x42336c: mov eax, edi ; ret ; (1 found)
0x423381: mov eax, edi ; ret ; (1 found)
0x424b10: mov eax, edi ; ret ; (1 found)
0x427918: mov eax, edi ; ret ; (1 found)
0x424c17: mov eax, edx ; clc ; syscall ; (1 found)
0x4231f8: mov eax, edx ; mov rdx, rdi ; ret ; (1 found)
0x41f2dc: mov eax, edx ; or eax, 0x00004049 ; ret ; (1 found)
0x400907: mov eax, edx ; ret ; (1 found)
0x40c14e: mov eax, edx ; ret ; (1 found)
0x411f6f: mov eax, edx ; ret ; (1 found)
0x413359: mov eax, edx ; ret ; (1 found)
0x4155b8: mov eax, edx ; ret ; (1 found)
0x4169bd: mov eax, edx ; ret ; (1 found)
0x416aaa: mov eax, edx ; ret ; (1 found)
0x416ae5: mov eax, edx ; ret ; (1 found)
0x416af3: mov eax, edx ; ret ; (1 found)
0x41dc04: mov eax, edx ; ret ; (1 found)
0x4253c5: mov eax, edx ; ret ; (1 found)
0x4253dd: mov eax, edx ; ret ; (1 found)
0x42544d: mov eax, edx ; ret ; (1 found)
0x4270bd: mov eax, esi ; ret ; (1 found)
0x427206: mov eax, esi ; ret ; (1 found)
0x426c67: mov eax, esp ; clc ; syscall ; (1 found)
0x4161ff: mov eax, r9d ; ret ; (1 found)
0x426abf: mov ebp,  [0x000000000042F138] ; sub rsp, 0x20 ; call r13 ; (1 found)
0x4261a7: mov ebp, 0xFFFFFF18 ; call 0x00000000 ; (1 found)
0x404676: mov ebp, edx ; jmp rax ; (1 found)
0x409756: mov ebp, esp ; call 0x00000000 ; (1 found)
0x4170c2: mov ebp, esp ; syscall ; (1 found)
0x40404e: mov ebx,  [0x000000000042F200] ; mov ecx, 0x0000FDE9 ; call rbx ; (1 found)
0x401f83: mov ebx,  [rbp-0x08] ; leave ; ret ; (1 found)
0x4039b3: mov ebx,  [rbp-0x08] ; leave ; ret ; (1 found)
0x404874: mov ebx,  [rbp-0x08] ; leave ; ret ; (1 found)
0x404889: mov ebx,  [rbp-0x08] ; leave ; ret ; (1 found)
0x405001: mov ebx,  [rbp-0x08] ; leave ; ret ; (1 found)
0x405018: mov ebx,  [rbp-0x08] ; leave ; ret ; (1 found)
0x405093: mov ebx,  [rbp-0x08] ; leave ; ret ; (1 found)
0x4050a9: mov ebx,  [rbp-0x08] ; leave ; ret ; (1 found)
0x405120: mov ebx,  [rbp-0x08] ; leave ; ret ; (1 found)
0x405130: mov ebx,  [rbp-0x08] ; leave ; ret ; (1 found)
0x405cfc: mov ebx,  [rbp-0x08] ; leave ; ret ; (1 found)
0x405d1a: mov ebx,  [rbp-0x08] ; leave ; ret ; (1 found)
0x405d26: mov ebx,  [rbp-0x08] ; leave ; ret ; (1 found)
0x405d4e: mov ebx,  [rbp-0x08] ; leave ; ret ; (1 found)
0x4065c3: mov ebx,  [rbp-0x08] ; leave ; ret ; (1 found)
0x40660a: mov ebx,  [rbp-0x08] ; leave ; ret ; (1 found)
0x406f0d: mov ebx,  [rbp-0x08] ; leave ; ret ; (1 found)
0x4098d5: mov ebx,  [rbp-0x08] ; leave ; ret ; (1 found)
0x4098e9: mov ebx,  [rbp-0x08] ; leave ; ret ; (1 found)
0x409937: mov ebx,  [rbp-0x08] ; leave ; ret ; (1 found)
0x409948: mov ebx,  [rbp-0x08] ; leave ; ret ; (1 found)
0x409a3a: mov ebx,  [rbp-0x08] ; leave ; ret ; (1 found)
0x40a264: mov ebx,  [rbp-0x08] ; leave ; ret ; (1 found)
0x40a2a8: mov ebx,  [rbp-0x08] ; leave ; ret ; (1 found)
0x40a2c0: mov ebx,  [rbp-0x08] ; leave ; ret ; (1 found)
0x40b45d: mov ebx,  [rbp-0x08] ; leave ; ret ; (1 found)
0x40be64: mov ebx,  [rbp-0x08] ; leave ; ret ; (1 found)
0x40be8c: mov ebx,  [rbp-0x08] ; leave ; ret ; (1 found)
0x40beb4: mov ebx,  [rbp-0x08] ; leave ; ret ; (1 found)
0x40bedc: mov ebx,  [rbp-0x08] ; leave ; ret ; (1 found)
0x40bf04: mov ebx,  [rbp-0x08] ; leave ; ret ; (1 found)
0x40bf2c: mov ebx,  [rbp-0x08] ; leave ; ret ; (1 found)
0x40d2ef: mov ebx,  [rbp-0x08] ; leave ; ret ; (1 found)
0x40eac1: mov ebx,  [rbp-0x08] ; leave ; ret ; (1 found)
0x40eaf2: mov ebx,  [rbp-0x08] ; leave ; ret ; (1 found)
0x40eb08: mov ebx,  [rbp-0x08] ; leave ; ret ; (1 found)
0x40f080: mov ebx,  [rbp-0x08] ; leave ; ret ; (1 found)
0x40f0a6: mov ebx,  [rbp-0x08] ; leave ; ret ; (1 found)
0x40f104: mov ebx,  [rbp-0x08] ; leave ; ret ; (1 found)
0x40f136: mov ebx,  [rbp-0x08] ; leave ; ret ; (1 found)
0x40f5e8: mov ebx,  [rbp-0x08] ; leave ; ret ; (1 found)
0x40ff95: mov ebx,  [rbp-0x08] ; leave ; ret ; (1 found)
0x410626: mov ebx,  [rbp-0x08] ; leave ; ret ; (1 found)
0x41099c: mov ebx,  [rbp-0x08] ; leave ; ret ; (1 found)
0x4109bf: mov ebx,  [rbp-0x08] ; leave ; ret ; (1 found)
0x410daa: mov ebx,  [rbp-0x08] ; leave ; ret ; (1 found)
0x410dc0: mov ebx,  [rbp-0x08] ; leave ; ret ; (1 found)
0x41129c: mov ebx,  [rbp-0x08] ; leave ; ret ; (1 found)
0x41156f: mov ebx,  [rbp-0x08] ; leave ; ret ; (1 found)
0x4118f7: mov ebx,  [rbp-0x08] ; leave ; ret ; (1 found)
0x41191d: mov ebx,  [rbp-0x08] ; leave ; ret ; (1 found)
0x411ce4: mov ebx,  [rbp-0x08] ; leave ; ret ; (1 found)
0x412166: mov ebx,  [rbp-0x08] ; leave ; ret ; (1 found)
0x412194: mov ebx,  [rbp-0x08] ; leave ; ret ; (1 found)
0x414b28: mov ebx,  [rbp-0x08] ; leave ; ret ; (1 found)
0x414f06: mov ebx,  [rbp-0x08] ; leave ; ret ; (1 found)
0x4158f3: mov ebx,  [rbp-0x08] ; leave ; ret ; (1 found)
0x415a6c: mov ebx,  [rbp-0x08] ; leave ; ret ; (1 found)
0x415fff: mov ebx,  [rbp-0x08] ; leave ; ret ; (1 found)
0x416530: mov ebx,  [rbp-0x08] ; leave ; ret ; (1 found)
0x416ffb: mov ebx,  [rbp-0x08] ; leave ; ret ; (1 found)
0x41a9fa: mov ebx,  [rbp-0x08] ; leave ; ret ; (1 found)
0x41aa24: mov ebx,  [rbp-0x08] ; leave ; ret ; (1 found)
0x41c09e: mov ebx,  [rbp-0x08] ; leave ; ret ; (1 found)
0x41c3d4: mov ebx,  [rbp-0x08] ; leave ; ret ; (1 found)
0x41c3f1: mov ebx,  [rbp-0x08] ; leave ; ret ; (1 found)
0x41c411: mov ebx,  [rbp-0x08] ; leave ; ret ; (1 found)
0x41dc97: mov ebx,  [rbp-0x08] ; leave ; ret ; (1 found)
0x41e5d5: mov ebx,  [rbp-0x08] ; leave ; ret ; (1 found)
0x41e870: mov ebx,  [rbp-0x08] ; leave ; ret ; (1 found)
0x41e8ea: mov ebx,  [rbp-0x08] ; leave ; ret ; (1 found)
0x41e944: mov ebx,  [rbp-0x08] ; leave ; ret ; (1 found)
0x41ef74: mov ebx,  [rbp-0x08] ; leave ; ret ; (1 found)
0x420885: mov ebx,  [rbp-0x08] ; leave ; ret ; (1 found)
0x4212fe: mov ebx,  [rbp-0x08] ; leave ; ret ; (1 found)
0x422396: mov ebx,  [rbp-0x08] ; leave ; ret ; (1 found)
0x4223c4: mov ebx,  [rbp-0x08] ; leave ; ret ; (1 found)
0x423a92: mov ebx,  [rbp-0x08] ; leave ; ret ; (1 found)
0x4242b3: mov ebx,  [rbp-0x08] ; leave ; ret ; (1 found)
0x4242f3: mov ebx,  [rbp-0x08] ; leave ; ret ; (1 found)
0x4249c3: mov ebx,  [rbp-0x08] ; leave ; ret ; (1 found)
0x424a31: mov ebx,  [rbp-0x08] ; leave ; ret ; (1 found)
0x424e78: mov ebx,  [rbp-0x08] ; leave ; ret ; (1 found)
0x4272ca: mov ebx,  [rbp-0x08] ; leave ; ret ; (1 found)
0x404671: mov ebx, 0x48000378 ; mov ebp, edx ; jmp rax ; (1 found)
0x40be25: mov ebx, esi ; mov edi, edi ; jmp qword [0x0042BE70+rdi*8] ; (1 found)
0x41d80f: mov ebx, esi ; mov rax, r11 ; ret ; (1 found)
0x411244: mov ecx, 0x00000001 ; movzx edx, cl ; ret ; (1 found)
0x404054: mov ecx, 0x0000FDE9 ; call rbx ; (1 found)
0x4043e9: mov ecx, 0x0000FDE9 ; call rbx ; (1 found)
0x404170: mov ecx, 0x0042A684 ; call rsi ; (1 found)
0x40419b: mov ecx, 0x0042A6AC ; call rsi ; (1 found)
0x4041c4: mov ecx, 0x0042A6B6 ; call rsi ; (1 found)
0x4041d8: mov ecx, 0x0042A6C0 ; call rsi ; (1 found)
0x4043a2: mov ecx, 0x0042A6D4 ; call rsi ; (1 found)
0x42715b: mov ecx, 0x08740042 ; ret ; (1 found)
0x41ab5e: mov ecx, 0x0F480002 ; scasd ; retn 0xC148 ; (1 found)
0x4193ca: mov ecx, 0x8948FFFF ; retn 0x8348 ; (1 found)
0x4005c1: mov ecx, 0xF3FC0008 ; stosd ; ret ; (1 found)
0x404121: mov ecx, 0xFFFFFFFF ; call r14 ; (1 found)
0x404417: mov ecx, eax ; call r14 ; (1 found)
0x404dda: mov ecx, ebx ; call r12 ; (1 found)
0x404dfa: mov ecx, ebx ; call r12 ; (1 found)
0x404e15: mov ecx, ebx ; call r12 ; (1 found)
0x404e46: mov ecx, ebx ; call r12 ; (1 found)
0x404f37: mov ecx, ebx ; call r12 ; (1 found)
0x4045c4: mov ecx, edi ; call r14 ; (1 found)
0x401a60: mov ecx, edi ; ret ; (1 found)
0x404f31: mov ecx, esi ; call r12 ; (1 found)
0x404432: mov ecx, esi ; call r15 ; (1 found)
0x404401: mov edi,  [0x000000000042F1F8] ; movsx ecx, byte [rbx+0x0042AC14] ; call rdi ; (1 found)
0x41c11a: mov edi,  [rax+0x08] ; call qword [rax] ; (1 found)
0x41c20b: mov edi,  [rax+0x10] ; call qword [rax+0x08] ; (1 found)
0x42455f: mov edi,  [rax+0x18] ; mov rax, qword [rax+0x40] ; ret ; (1 found)
0x41df2f: mov edi,  [rbp+0x30] ; call rax ; (1 found)
0x4261a6: mov edi,  [rbp-0x000000E8] ; call 0x00000000 ; (1 found)
0x408c6f: mov edi,  [rbp-0x70] ; call qword [rbp+0x10] ; (1 found)
0x417156: mov edi,  [rdi+0x30] ; jmp qword [rdi+0x38] ; (1 found)
0x41c26d: mov edi,  [rsp+0x08] ; call qword [r12+0x00] ; (1 found)
0x4045bf: mov edi, 0x0042AC14 ; mov ecx, edi ; call r14 ; (1 found)
0x40450b: mov edi, 0x0F480043 ; retn 0x8948 ; (1 found)
0x40e9e2: mov edi, 0x40BE0043 ; retn 0x0043 ; (1 found)
0x4232e9: mov edi, eax ; mov rax, rdi ; ret ; (1 found)
0x423369: mov edi, eax ; mov rax, rdi ; ret ; (1 found)
0x41a24a: mov edi, ebp ; call 0x00000000 ; (1 found)
0x405d3b: mov edi, ebx ; call 0x00000000 ; (1 found)
0x41218a: mov edi, ebx ; call 0x00000000 ; (1 found)
0x4223ba: mov edi, ebx ; call 0x00000000 ; (1 found)
0x4207fb: mov edi, ebx ; call rax ; (1 found)
0x41fd2e: mov edi, ebx ; mov rax, qword [rbp-0x40] ; call rax ; (1 found)
0x411e4a: mov edi, ebx ; syscall ; (1 found)
0x411e54: mov edi, ebx ; syscall ; (1 found)
0x426c9e: mov edi, ebx ; syscall ; (1 found)
0x4260ff: mov edi, ecx ; mov qword [rbp-0x000000D8], rcx ; call 0x00000000 ; (1 found)
0x40a0bd: mov edi, edi ; call rax ; (1 found)
0x40be26: mov edi, edi ; jmp qword [0x0042BE70+rdi*8] ; (1 found)
0x40be27: mov edi, edi ; jmp qword [0x0042BE70+rdi*8] ; (1 found)
0x41c1ae: mov edi, edx ; call rsi ; (1 found)
0x405ccf: mov edi, esi ; call 0x00000000 ; (1 found)
0x40d7d3: mov edi, esi ; call 0x00000000 ; (1 found)
0x40d7e6: mov edi, esi ; call 0x00000000 ; (1 found)
0x40d8a1: mov edi, esi ; call 0x00000000 ; (1 found)
0x411497: mov edi, esi ; call r13 ; (1 found)
0x41fbd0: mov edi, esi ; call r15 ; (1 found)
0x41fcdd: mov edi, esi ; mov rax, qword [rbp-0x40] ; call rax ; (1 found)
0x4265f2: mov edi, esp ; call 0x00000000 ; (1 found)
0x426e18: mov edi, esp ; call 0x00000000 ; (1 found)
0x416b50: mov edi, esp ; call r13 ; (1 found)
0x416b69: mov edi, esp ; call r13 ; (1 found)
0x4265f1: mov edi, r12d ; call 0x00000000 ; (1 found)
0x40a0bc: mov edi, r15d ; call rax ; (1 found)
0x41fbb9: mov edx,  [rbp-0x40] ; mov rsi, qword [rbp-0x38] ; call r15 ; (1 found)
0x41fba4: mov edx,  [rbp-0x40] ; mov rsi, r14 ; call r15 ; (1 found)
0x40a691: mov edx,  [rdx+0x34] ; mov  [rax+0x00000158], edx ; ret ; (1 found)
0x426c84: mov edx, 0x00000001 ; clc ; syscall ; (1 found)
0x41dbff: mov edx, 0x00000001 ; mov eax, edx ; ret ; (1 found)
0x425448: mov edx, 0x00000005 ; mov eax, edx ; ret ; (1 found)
0x4018c3: mov edx, 0x00000008 ; xor r8d, r8d ; syscall ; (1 found)
0x422186: mov edx, 0x89480042 ; retn 0x3B48 ; (1 found)
0x4221d8: mov edx, 0x89480042 ; retn 0x3B48 ; (1 found)
0x42220d: mov edx, 0x89480042 ; retn 0x3B48 ; (1 found)
0x4087b8: mov edx, 0xFFFF5CE9 ; jmp qword [rsi-0x70] ; (1 found)
0x4131aa: mov edx, 0xFFFFFFFF ; leave ; ret ; (1 found)
0x4131c9: mov edx, 0xFFFFFFFF ; leave ; ret ; (1 found)
0x42322b: mov edx, eax ; mov rax, rdi ; ret ; (1 found)
0x426e33: mov edx, ebp ; mov eax,  [0x00000000004384C8] ; syscall ; (1 found)
0x4041d6: mov edx, ebx ; mov ecx, 0x0042A6C0 ; call rsi ; (1 found)
0x40411e: mov edx, ebx ; mov rcx, 0xFFFFFFFFFFFFFFFF ; call r14 ; (1 found)
0x4040fe: mov edx, ebx ; or rcx, 0xFFFFFFFFFFFFFFFF ; call r14 ; (1 found)
0x41705b: mov edx, ecx ; clc ; syscall ; (1 found)
0x425245: mov edx, ecx ; ret ; (1 found)
0x41710f: mov edx, ecx ; syscall ; (1 found)
0x4231fb: mov edx, edi ; ret ; (1 found)
0x401a5d: mov edx, esi ; mov rcx, r15 ; ret ; (1 found)
0x40532f: mov edx, esi ; sub rsp, 0x20 ; call rax ; (1 found)
0x409e23: mov edx, esp ; call rax ; (1 found)
0x40416e: mov edx, esp ; mov ecx, 0x0042A684 ; call rsi ; (1 found)
0x404199: mov edx, esp ; mov ecx, 0x0042A6AC ; call rsi ; (1 found)
0x4041c2: mov edx, esp ; mov ecx, 0x0042A6B6 ; call rsi ; (1 found)
0x404414: mov edx, esp ; mov rcx, rax ; call r14 ; (1 found)
0x411842: mov es, word [rdx+0x00] ; ret ; (1 found)
0x408c68: mov esi,  [rbp-0x00000098] ; mov rdi, qword [rbp-0x70] ; call qword [rbp+0x10] ; (1 found)
0x40a0b6: mov esi,  [rbp-0x00000148] ; mov edi, r15d ; call rax ; (1 found)
0x41fbbd: mov esi,  [rbp-0x38] ; call r15 ; (1 found)
0x41fbcc: mov esi,  [rbp-0x38] ; mov rdi, r14 ; call r15 ; (1 found)
0x41c1aa: mov esi,  [rbp-0x38] ; mov rdi, rdx ; call rsi ; (1 found)
0x417152: mov esi,  [rdi+0x28] ; mov r15, qword [rdi+0x30] ; jmp qword [rdi+0x38] ; (1 found)
0x40d7e0: mov esi, 0x00000004 ; mov rdi, r14 ; call 0x00000000 ; (1 found)
0x4205a7: mov esi, 0x83480143 ; ret ; (1 found)
0x40d7cd: mov esi, 0xFFFFFFF1 ; mov rdi, r14 ; call 0x00000000 ; (1 found)
0x426e15: mov esi, ebp ; mov rdi, r12 ; call 0x00000000 ; (1 found)
0x4274d1: mov esi, ebx ; clc ; syscall ; (1 found)
0x4275b1: mov esi, ebx ; clc ; syscall ; (1 found)
0x416b4d: mov esi, ebx ; mov rdi, r12 ; call r13 ; (1 found)
0x416b66: mov esi, ebx ; mov rdi, r12 ; call r13 ; (1 found)
0x4245f5: mov esi, edx ; syscall ; (1 found)
0x41fba8: mov esi, esi ; call r15 ; (1 found)
0x41fd16: mov esi, esi ; mov rax, qword [rbp-0x40] ; call rax ; (1 found)
0x4207f9: mov esi, esp ; mov edi, ebx ; call rax ; (1 found)
0x404f2a: mov esp,  [0x000000000042F068] ; mov rcx, rsi ; call r12 ; (1 found)
0x40466f: mov esp,  [0x000000000043BF30] ; mov rbp, rdx ; jmp rax ; (1 found)
0x41a32e: mov esp, 0x09448DC9 ; or  [rbp+rcx*4+0x04], ecx ; ret ; (1 found)
0x41a90c: mov esp, 0x0F480002 ; scasd ; retn 0xC148 ; (1 found)
0x41e270: mov esp, 0x5D000001 ; ret ; (1 found)
0x41a52f: mov esp, 0x848B48C0 ; ret ; (1 found)
0x422148: mov esp, 0x930F0042 ; retn 0xB60F ; (1 found)
0x40b528: mov esp, 0xC900023B ; ret ; (1 found)
0x416316: mov esp, 0xD00148D2 ; sub rax, rdi ; ret ; (1 found)
0x416372: mov esp, 0xD00148D2 ; sub rax, rdi ; ret ; (1 found)
0x41f9c8: mov esp, 0xF6000000 ; retn 0x0F04 ; (1 found)
0x4111e2: mov esp, ecx ; xor rbp, rbp ; call r8 ; (1 found)
0x403214: mov qword [0x0000000000445F84], rax ; ret ; (1 found)
0x422ddb: mov qword [0x0000000000445FC8], rax ; leave ; ret ; (1 found)
0x40f535: mov qword [0x0000000000446068], 0x000000000043C684 ; pop rbp ; ret ; (1 found)
0x427277: mov qword [0x00001480+rax*8], rdi ; ret ; (1 found)
0x427276: mov qword [gs:0x00001480+rax*8], rdi ; ret ; (1 found)
0x41c114: mov qword [r12+0x50], rdx ; mov rdi, qword [rax+0x08] ; call qword [rax] ; (1 found)
0x411d23: mov qword [rax+0x08], rdx ; ret ; (1 found)
0x400903: mov qword [rax], rcx ; mov rax, rdx ; ret ; (1 found)
0x411d5b: mov qword [rax], rdx ; movups  [rsi], xmm0 ; ret ; (1 found)
0x413063: mov qword [rax], rdx ; pop rbp ; ret ; (1 found)
0x426101: mov qword [rbp-0x000000D8], rcx ; call 0x00000000 ; (1 found)
0x42619e: mov qword [rbp-0x000000D8], rcx ; mov rdi, qword [rbp-0x000000E8] ; call 0x00000000 ; (1 found)
0x410581: mov qword [rbp-0x08], rdi ; call 0x00000000 ; (1 found)
0x41057d: mov qword [rbp-0x10], rsi ; mov qword [rbp-0x08], rdi ; call 0x00000000 ; (1 found)
0x40fd6b: mov qword [rbp-0x38], rsi ; call 0x00000000 ; (1 found)
0x41c265: mov qword [rbx+0x00000080], rax ; mov rdi, qword [r12+0x08] ; call qword [r12+0x00] ; (1 found)
0x411df8: mov qword [rcx+0x08], r8 ; mov qword [rdi], rsi ; ret ; (1 found)
0x411dad: mov qword [rcx], rdx ; mov qword [rdx+0x08], rcx ; ret ; (1 found)
0x423428: mov qword [rdi+0x00000128], rax ; xor eax, eax ; ret ; (1 found)
0x42348f: mov qword [rdi+0x00000128], rax ; xor eax, eax ; ret ; (1 found)
0x424609: mov qword [rdi+0x08], rdx ; xor eax, eax ; ret ; (1 found)
0x42461a: mov qword [rdi+0x08], rdx ; xor eax, eax ; ret ; (1 found)
0x422d23: mov qword [rdi+0x20], 0x0000000000000000 ; xor eax, eax ; ret ; (1 found)
0x41718b: mov qword [rdi+0x38], rax ; xor eax, eax ; ret ; (1 found)
0x422575: mov qword [rdi+rdx-0x08], rsi ; mov rax, rdi ; ret ; (1 found)
0x424b42: mov qword [rdi], 0x0000000000000000 ; xor eax, eax ; ret ; (1 found)
0x411dbc: mov qword [rdi], rax ; ret ; (1 found)
0x411dfc: mov qword [rdi], rsi ; ret ; (1 found)
0x411db0: mov qword [rdx+0x08], rcx ; ret ; (1 found)
0x416613: mov qword [rdx+0x08], rsi ; ret ; (1 found)
0x416628: mov qword [rdx+0x08], rsi ; ret ; (1 found)
0x416637: mov qword [rdx+0x08], rsi ; ret ; (1 found)
0x406374: mov qword [rdx+0x08], rsi ; xor eax, eax ; ret ; (1 found)
0x411d20: mov qword [rdx], rax ; mov qword [rax+0x08], rdx ; ret ; (1 found)
0x416582: mov qword [rdx], rax ; mov qword [rsi+0x10], rdx ; ret ; (1 found)
0x4165a2: mov qword [rdx], rax ; mov qword [rsi+0x10], rdx ; ret ; (1 found)
0x4165b9: mov qword [rdx], rax ; mov qword [rsi+0x10], rdx ; ret ; (1 found)
0x405ef8: mov qword [rsi+0x08], rdx ; ret ; (1 found)
0x41660f: mov qword [rsi+0x10], rdx ; mov qword [rdx+0x08], rsi ; ret ; (1 found)
0x416624: mov qword [rsi+0x10], rdx ; mov qword [rdx+0x08], rsi ; ret ; (1 found)
0x416633: mov qword [rsi+0x10], rdx ; mov qword [rdx+0x08], rsi ; ret ; (1 found)
0x416585: mov qword [rsi+0x10], rdx ; ret ; (1 found)
0x4165a5: mov qword [rsi+0x10], rdx ; ret ; (1 found)
0x4165bc: mov qword [rsi+0x10], rdx ; ret ; (1 found)
0x41e810: mov qword [rsi+0x38], 0x0000000000000001 ; xor eax, eax ; ret ; (1 found)
0x405ef1: mov qword [rsi], 0x0000000077777777 ; mov qword [rsi+0x08], rdx ; ret ; (1 found)
0x417059: mov r10, rcx ; clc ; syscall ; (1 found)
0x41705a: mov r10, rcx ; clc ; syscall ; (1 found)
0x41710e: mov r10, rcx ; syscall ; (1 found)
0x4018c2: mov r10d, 0x00000008 ; xor r8d, r8d ; syscall ; (1 found)
0x41d80e: mov r11, rsi ; mov rax, r11 ; ret ; (1 found)
0x404f29: mov r12, qword [0x000000000042F068] ; mov rcx, rsi ; call r12 ; (1 found)
0x426abe: mov r13, qword [0x000000000042F138] ; sub rsp, 0x20 ; call r13 ; (1 found)
0x417151: mov r14, qword [rdi+0x28] ; mov r15, qword [rdi+0x30] ; jmp qword [rdi+0x38] ; (1 found)
0x40d7df: mov r14d, 0x00000004 ; mov rdi, r14 ; call 0x00000000 ; (1 found)
0x404400: mov r15, qword [0x000000000042F1F8] ; movsx ecx, byte [rbx+0x0042AC14] ; call rdi ; (1 found)
0x417155: mov r15, qword [rdi+0x30] ; jmp qword [rdi+0x38] ; (1 found)
0x404a5e: mov r8d, 0xFFFDDBE8 ; dec  [rax-0x77] ; ret ; (1 found)
0x4007be: mov rax, 0x0000000000400800 ; jmp rax ; (1 found)
0x40320a: mov rax, 0x0000000200000003 ; mov qword [0x0000000000445F84], rax ; ret ; (1 found)
0x400765: mov rax, 0xFFFF800000100771 ; jmp rax ; (1 found)
0x41d5c8: mov rax, 0xFFFFFFFFFFFFFFFF ; ret ; (1 found)
0x415939: mov rax, 0xFFFFFFFFFFFFFFFF ; xchg qword [rdx+0x50], rax ; ret ; (1 found)
0x40eee5: mov rax, qword [0x000000000043C268] ; pop rbp ; ret ; (1 found)
0x407375: mov rax, qword [0x000000000043D898] ; pop rbp ; ret ; (1 found)
0x4073a5: mov rax, qword [0x000000000043D8A0] ; pop rbp ; ret ; (1 found)
0x40d735: mov rax, qword [0x0000000000446008] ; pop rbp ; ret ; (1 found)
0x40f593: mov rax, qword [0x0000000000446068] ; pop rbp ; ret ; (1 found)
0x417021: mov rax, qword [0x00000030] ; add rax, 0x3C ; ret ; (1 found)
0x427220: mov rax, qword [fs:rax] ; ret ; (1 found)
0x417020: mov rax, qword [gs:0x00000030] ; add rax, 0x3C ; ret ; (1 found)
0x410b57: mov rax, qword [rax+0x04] ; ret ; (1 found)
0x424562: mov rax, qword [rax+0x40] ; ret ; (1 found)
0x42723e: mov rax, qword [rax+rdx+0x00001480] ; ret ; (1 found)
0x427266: mov rax, qword [rax+rdx+0x00001480] ; ret ; (1 found)
0x427221: mov rax, qword [rax] ; ret ; (1 found)
0x41596b: mov rax, qword [rbp-0x10] ; leave ; ret ; (1 found)
0x41fcdf: mov rax, qword [rbp-0x40] ; call rax ; (1 found)
0x41fd18: mov rax, qword [rbp-0x40] ; call rax ; (1 found)
0x41fd30: mov rax, qword [rbp-0x40] ; call rax ; (1 found)
0x410a11: mov rax, qword [rdi+0x20] ; ret ; (1 found)
0x4109eb: mov rax, qword [rdi+0x30] ; ret ; (1 found)
0x410afb: mov rax, qword [rdx+rax*8+0x04] ; ret ; (1 found)
0x411db8: mov rax, qword [rsi+0x08] ; mov qword [rdi], rax ; ret ; (1 found)
0x410a85: mov rax, qword [rsi+rax] ; ret ; (1 found)
0x41d7cc: mov rax, r11 ; ret ; (1 found)
0x41d810: mov rax, r11 ; ret ; (1 found)
0x41d811: mov rax, r11 ; ret ; (1 found)
0x426c66: mov rax, r12 ; clc ; syscall ; (1 found)
0x412035: mov rax, r8 ; ret ; (1 found)
0x41276a: mov rax, r8 ; ret ; (1 found)
0x412afa: mov rax, r8 ; ret ; (1 found)
0x422404: mov rax, r8 ; ret ; (1 found)
0x422452: mov rax, r8 ; ret ; (1 found)
0x4224b2: mov rax, r8 ; ret ; (1 found)
0x41d192: mov rax, rdi ; lock add qword [rdi+0x28], 0x01 ; ret ; (1 found)
0x422e54: mov rax, rdi ; pop rbp ; ret ; (1 found)
0x4169f4: mov rax, rdi ; ret ; (1 found)
0x422513: mov rax, rdi ; ret ; (1 found)
0x42253a: mov rax, rdi ; ret ; (1 found)
0x42255c: mov rax, rdi ; ret ; (1 found)
0x42257a: mov rax, rdi ; ret ; (1 found)
0x42322d: mov rax, rdi ; ret ; (1 found)
0x4232eb: mov rax, rdi ; ret ; (1 found)
0x423300: mov rax, rdi ; ret ; (1 found)
0x42336b: mov rax, rdi ; ret ; (1 found)
0x423380: mov rax, rdi ; ret ; (1 found)
0x4231f7: mov rax, rdx ; mov rdx, rdi ; ret ; (1 found)
0x400906: mov rax, rdx ; ret ; (1 found)
0x40c14d: mov rax, rdx ; ret ; (1 found)
0x411f6e: mov rax, rdx ; ret ; (1 found)
0x4169bc: mov rax, rdx ; ret ; (1 found)
0x416aa9: mov rax, rdx ; ret ; (1 found)
0x416ae4: mov rax, rdx ; ret ; (1 found)
0x416af2: mov rax, rdx ; ret ; (1 found)
0x4270bc: mov rax, rsi ; ret ; (1 found)
0x427205: mov rax, rsi ; ret ; (1 found)
0x404675: mov rbp, rdx ; jmp rax ; (1 found)
0x409755: mov rbp, rsp ; call 0x00000000 ; (1 found)
0x4170c1: mov rbp, rsp ; syscall ; (1 found)
0x40404d: mov rbx, qword [0x000000000042F200] ; mov ecx, 0x0000FDE9 ; call rbx ; (1 found)
0x401f82: mov rbx, qword [rbp-0x08] ; leave ; ret ; (1 found)
0x4039b2: mov rbx, qword [rbp-0x08] ; leave ; ret ; (1 found)
0x404873: mov rbx, qword [rbp-0x08] ; leave ; ret ; (1 found)
0x404888: mov rbx, qword [rbp-0x08] ; leave ; ret ; (1 found)
0x405000: mov rbx, qword [rbp-0x08] ; leave ; ret ; (1 found)
0x405017: mov rbx, qword [rbp-0x08] ; leave ; ret ; (1 found)
0x405092: mov rbx, qword [rbp-0x08] ; leave ; ret ; (1 found)
0x4050a8: mov rbx, qword [rbp-0x08] ; leave ; ret ; (1 found)
0x40511f: mov rbx, qword [rbp-0x08] ; leave ; ret ; (1 found)
0x40512f: mov rbx, qword [rbp-0x08] ; leave ; ret ; (1 found)
0x405cfa: mov rbx, qword [rbp-0x08] ; leave ; ret ; (1 found)
0x405cfb: mov rbx, qword [rbp-0x08] ; leave ; ret ; (1 found)
0x405d19: mov rbx, qword [rbp-0x08] ; leave ; ret ; (1 found)
0x405d25: mov rbx, qword [rbp-0x08] ; leave ; ret ; (1 found)
0x405d4d: mov rbx, qword [rbp-0x08] ; leave ; ret ; (1 found)
0x4065c2: mov rbx, qword [rbp-0x08] ; leave ; ret ; (1 found)
0x406609: mov rbx, qword [rbp-0x08] ; leave ; ret ; (1 found)
0x406f0c: mov rbx, qword [rbp-0x08] ; leave ; ret ; (1 found)
0x4098d4: mov rbx, qword [rbp-0x08] ; leave ; ret ; (1 found)
0x4098e8: mov rbx, qword [rbp-0x08] ; leave ; ret ; (1 found)
0x409936: mov rbx, qword [rbp-0x08] ; leave ; ret ; (1 found)
0x409947: mov rbx, qword [rbp-0x08] ; leave ; ret ; (1 found)
0x409a39: mov rbx, qword [rbp-0x08] ; leave ; ret ; (1 found)
0x40a263: mov rbx, qword [rbp-0x08] ; leave ; ret ; (1 found)
0x40a2a7: mov rbx, qword [rbp-0x08] ; leave ; ret ; (1 found)
0x40a2bf: mov rbx, qword [rbp-0x08] ; leave ; ret ; (1 found)
0x40b45c: mov rbx, qword [rbp-0x08] ; leave ; ret ; (1 found)
0x40be63: mov rbx, qword [rbp-0x08] ; leave ; ret ; (1 found)
0x40be8b: mov rbx, qword [rbp-0x08] ; leave ; ret ; (1 found)
0x40beb3: mov rbx, qword [rbp-0x08] ; leave ; ret ; (1 found)
0x40bedb: mov rbx, qword [rbp-0x08] ; leave ; ret ; (1 found)
0x40bf03: mov rbx, qword [rbp-0x08] ; leave ; ret ; (1 found)
0x40bf2b: mov rbx, qword [rbp-0x08] ; leave ; ret ; (1 found)
0x40d2ee: mov rbx, qword [rbp-0x08] ; leave ; ret ; (1 found)
0x40eac0: mov rbx, qword [rbp-0x08] ; leave ; ret ; (1 found)
0x40eaf1: mov rbx, qword [rbp-0x08] ; leave ; ret ; (1 found)
0x40eb07: mov rbx, qword [rbp-0x08] ; leave ; ret ; (1 found)
0x40f07f: mov rbx, qword [rbp-0x08] ; leave ; ret ; (1 found)
0x40f0a5: mov rbx, qword [rbp-0x08] ; leave ; ret ; (1 found)
0x40f103: mov rbx, qword [rbp-0x08] ; leave ; ret ; (1 found)
0x40f135: mov rbx, qword [rbp-0x08] ; leave ; ret ; (1 found)
0x40f5e7: mov rbx, qword [rbp-0x08] ; leave ; ret ; (1 found)
0x40ff94: mov rbx, qword [rbp-0x08] ; leave ; ret ; (1 found)
0x410625: mov rbx, qword [rbp-0x08] ; leave ; ret ; (1 found)
0x41099b: mov rbx, qword [rbp-0x08] ; leave ; ret ; (1 found)
0x4109be: mov rbx, qword [rbp-0x08] ; leave ; ret ; (1 found)
0x410da9: mov rbx, qword [rbp-0x08] ; leave ; ret ; (1 found)
0x410dbf: mov rbx, qword [rbp-0x08] ; leave ; ret ; (1 found)
0x41129b: mov rbx, qword [rbp-0x08] ; leave ; ret ; (1 found)
0x41156e: mov rbx, qword [rbp-0x08] ; leave ; ret ; (1 found)
0x4118f6: mov rbx, qword [rbp-0x08] ; leave ; ret ; (1 found)
0x41191c: mov rbx, qword [rbp-0x08] ; leave ; ret ; (1 found)
0x411ce3: mov rbx, qword [rbp-0x08] ; leave ; ret ; (1 found)
0x412165: mov rbx, qword [rbp-0x08] ; leave ; ret ; (1 found)
0x412193: mov rbx, qword [rbp-0x08] ; leave ; ret ; (1 found)
0x414b27: mov rbx, qword [rbp-0x08] ; leave ; ret ; (1 found)
0x414f05: mov rbx, qword [rbp-0x08] ; leave ; ret ; (1 found)
0x4158f2: mov rbx, qword [rbp-0x08] ; leave ; ret ; (1 found)
0x415a6b: mov rbx, qword [rbp-0x08] ; leave ; ret ; (1 found)
0x415ffe: mov rbx, qword [rbp-0x08] ; leave ; ret ; (1 found)
0x41652f: mov rbx, qword [rbp-0x08] ; leave ; ret ; (1 found)
0x416ffa: mov rbx, qword [rbp-0x08] ; leave ; ret ; (1 found)
0x41a9f9: mov rbx, qword [rbp-0x08] ; leave ; ret ; (1 found)
0x41aa23: mov rbx, qword [rbp-0x08] ; leave ; ret ; (1 found)
0x41c09d: mov rbx, qword [rbp-0x08] ; leave ; ret ; (1 found)
0x41c3d3: mov rbx, qword [rbp-0x08] ; leave ; ret ; (1 found)
0x41c3f0: mov rbx, qword [rbp-0x08] ; leave ; ret ; (1 found)
0x41c410: mov rbx, qword [rbp-0x08] ; leave ; ret ; (1 found)
0x41dc96: mov rbx, qword [rbp-0x08] ; leave ; ret ; (1 found)
0x41e5d4: mov rbx, qword [rbp-0x08] ; leave ; ret ; (1 found)
0x41e86f: mov rbx, qword [rbp-0x08] ; leave ; ret ; (1 found)
0x41e8e9: mov rbx, qword [rbp-0x08] ; leave ; ret ; (1 found)
0x41e943: mov rbx, qword [rbp-0x08] ; leave ; ret ; (1 found)
0x41ef73: mov rbx, qword [rbp-0x08] ; leave ; ret ; (1 found)
0x420884: mov rbx, qword [rbp-0x08] ; leave ; ret ; (1 found)
0x4212fd: mov rbx, qword [rbp-0x08] ; leave ; ret ; (1 found)
0x422395: mov rbx, qword [rbp-0x08] ; leave ; ret ; (1 found)
0x4223c3: mov rbx, qword [rbp-0x08] ; leave ; ret ; (1 found)
0x423a91: mov rbx, qword [rbp-0x08] ; leave ; ret ; (1 found)
0x4242b2: mov rbx, qword [rbp-0x08] ; leave ; ret ; (1 found)
0x4242f2: mov rbx, qword [rbp-0x08] ; leave ; ret ; (1 found)
0x4249c2: mov rbx, qword [rbp-0x08] ; leave ; ret ; (1 found)
0x424a30: mov rbx, qword [rbp-0x08] ; leave ; ret ; (1 found)
0x424e77: mov rbx, qword [rbp-0x08] ; leave ; ret ; (1 found)
0x4272c9: mov rbx, qword [rbp-0x08] ; leave ; ret ; (1 found)
0x40be24: mov rbx, rsi ; mov edi, edi ; jmp qword [0x0042BE70+rdi*8] ; (1 found)
0x404120: mov rcx, 0xFFFFFFFFFFFFFFFF ; call r14 ; (1 found)
0x401a5e: mov rcx, r15 ; ret ; (1 found)
0x401a5f: mov rcx, r15 ; ret ; (1 found)
0x404416: mov rcx, rax ; call r14 ; (1 found)
0x404dd9: mov rcx, rbx ; call r12 ; (1 found)
0x404df9: mov rcx, rbx ; call r12 ; (1 found)
0x404e14: mov rcx, rbx ; call r12 ; (1 found)
0x404e45: mov rcx, rbx ; call r12 ; (1 found)
0x404f36: mov rcx, rbx ; call r12 ; (1 found)
0x404f30: mov rcx, rsi ; call r12 ; (1 found)
0x404431: mov rcx, rsi ; call r15 ; (1 found)
0x41f8df: mov rdi, cr1 ; nop ; retn 0xB60F ; (1 found)
0x41f8e0: mov rdi, cr1 ; nop ; retn 0xB60F ; (1 found)
0x41c26c: mov rdi, qword [r12+0x08] ; call qword [r12+0x00] ; (1 found)
0x41df2e: mov rdi, qword [r13+0x30] ; call rax ; (1 found)
0x41c119: mov rdi, qword [rax+0x08] ; call qword [rax] ; (1 found)
0x41c20a: mov rdi, qword [rax+0x10] ; call qword [rax+0x08] ; (1 found)
0x42455e: mov rdi, qword [rax+0x18] ; mov rax, qword [rax+0x40] ; ret ; (1 found)
0x4261a5: mov rdi, qword [rbp-0x000000E8] ; call 0x00000000 ; (1 found)
0x408c6e: mov rdi, qword [rbp-0x70] ; call qword [rbp+0x10] ; (1 found)
0x426e17: mov rdi, r12 ; call 0x00000000 ; (1 found)
0x416b4f: mov rdi, r12 ; call r13 ; (1 found)
0x416b68: mov rdi, r12 ; call r13 ; (1 found)
0x41a249: mov rdi, r13 ; call 0x00000000 ; (1 found)
0x40d7d2: mov rdi, r14 ; call 0x00000000 ; (1 found)
0x40d7e5: mov rdi, r14 ; call 0x00000000 ; (1 found)
0x40d8a0: mov rdi, r14 ; call 0x00000000 ; (1 found)
0x411496: mov rdi, r14 ; call r13 ; (1 found)
0x41fbcf: mov rdi, r14 ; call r15 ; (1 found)
0x41fcdc: mov rdi, r14 ; mov rax, qword [rbp-0x40] ; call rax ; (1 found)
0x4232e8: mov rdi, rax ; mov rax, rdi ; ret ; (1 found)
0x423368: mov rdi, rax ; mov rax, rdi ; ret ; (1 found)
0x405d3a: mov rdi, rbx ; call 0x00000000 ; (1 found)
0x412189: mov rdi, rbx ; call 0x00000000 ; (1 found)
0x4223b9: mov rdi, rbx ; call 0x00000000 ; (1 found)
0x41fd2d: mov rdi, rbx ; mov rax, qword [rbp-0x40] ; call rax ; (1 found)
0x426c9d: mov rdi, rbx ; syscall ; (1 found)
0x4260fe: mov rdi, rcx ; mov qword [rbp-0x000000D8], rcx ; call 0x00000000 ; (1 found)
0x41c1ad: mov rdi, rdx ; call rsi ; (1 found)
0x4131a9: mov rdx, 0xFFFFFFFFFFFFFFFF ; leave ; ret ; (1 found)
0x4131c8: mov rdx, 0xFFFFFFFFFFFFFFFF ; leave ; ret ; (1 found)
0x41fbb8: mov rdx, qword [rbp-0x40] ; mov rsi, qword [rbp-0x38] ; call r15 ; (1 found)
0x41fba3: mov rdx, qword [rbp-0x40] ; mov rsi, r14 ; call r15 ; (1 found)
0x409e22: mov rdx, r12 ; call rax ; (1 found)
0x40416d: mov rdx, r12 ; mov ecx, 0x0042A684 ; call rsi ; (1 found)
0x404198: mov rdx, r12 ; mov ecx, 0x0042A6AC ; call rsi ; (1 found)
0x4041c1: mov rdx, r12 ; mov ecx, 0x0042A6B6 ; call rsi ; (1 found)
0x404413: mov rdx, r12 ; mov rcx, rax ; call r14 ; (1 found)
0x426e32: mov rdx, r13 ; mov eax,  [0x00000000004384C8] ; syscall ; (1 found)
0x401a5c: mov rdx, r14 ; mov rcx, r15 ; ret ; (1 found)
0x42322a: mov rdx, rax ; mov rax, rdi ; ret ; (1 found)
0x4041d5: mov rdx, rbx ; mov ecx, 0x0042A6C0 ; call rsi ; (1 found)
0x40411d: mov rdx, rbx ; mov rcx, 0xFFFFFFFFFFFFFFFF ; call r14 ; (1 found)
0x4040fd: mov rdx, rbx ; or rcx, 0xFFFFFFFFFFFFFFFF ; call r14 ; (1 found)
0x425244: mov rdx, rcx ; ret ; (1 found)
0x4231fa: mov rdx, rdi ; ret ; (1 found)
0x40532e: mov rdx, rsi ; sub rsp, 0x20 ; call rax ; (1 found)
0x408c67: mov rsi, qword [rbp-0x00000098] ; mov rdi, qword [rbp-0x70] ; call qword [rbp+0x10] ; (1 found)
0x40a0b5: mov rsi, qword [rbp-0x00000148] ; mov edi, r15d ; call rax ; (1 found)
0x41fbbc: mov rsi, qword [rbp-0x38] ; call r15 ; (1 found)
0x41fbcb: mov rsi, qword [rbp-0x38] ; mov rdi, r14 ; call r15 ; (1 found)
0x41c1a9: mov rsi, qword [rbp-0x38] ; mov rdi, rdx ; call rsi ; (1 found)
0x4207f8: mov rsi, r12 ; mov edi, ebx ; call rax ; (1 found)
0x426e14: mov rsi, r13 ; mov rdi, r12 ; call 0x00000000 ; (1 found)
0x41fba7: mov rsi, r14 ; call r15 ; (1 found)
0x41fd15: mov rsi, r14 ; mov rax, qword [rbp-0x40] ; call rax ; (1 found)
0x4274d0: mov rsi, rbx ; clc ; syscall ; (1 found)
0x4275b0: mov rsi, rbx ; clc ; syscall ; (1 found)
0x416b4c: mov rsi, rbx ; mov rdi, r12 ; call r13 ; (1 found)
0x416b65: mov rsi, rbx ; mov rdi, r12 ; call r13 ; (1 found)
0x40466e: mov rsp, qword [0x000000000043BF30] ; mov rbp, rdx ; jmp rax ; (1 found)
0x4111e1: mov rsp, r9 ; xor rbp, rbp ; call r8 ; (1 found)
0x40c14a: mov word [rdi], ax ; mov rax, rdx ; ret ; (1 found)
0x4109ca: mov word [rdx+0x00], es ; ret ; (1 found)
0x424df5: movaps  [0x0000000000445F50], xmm0 ; leave ; ret ; (1 found)
0x41f034: movdqu xmm0,  [rax+0x58] ; movups  [rax+0x78], xmm0 ; ret ; (1 found)
0x41f179: movdqu xmm0,  [rdx+0x50] ; movups  [rax+0x78], xmm0 ; ret ; (1 found)
0x41f0dd: movdqu xmm0,  [rdx+0x60] ; movups  [rax+0x78], xmm0 ; ret ; (1 found)
0x41f035: movq mm0, qword [rax+0x58] ; movups  [rax+0x78], xmm0 ; ret ; (1 found)
0x41f17a: movq mm0, qword [rdx+0x50] ; movups  [rax+0x78], xmm0 ; ret ; (1 found)
0x41f0de: movq mm0, qword [rdx+0x60] ; movups  [rax+0x78], xmm0 ; ret ; (1 found)
0x41a5f8: movsb ; ret ; (1 found)
0x41a7c4: movsb ; ret ; (1 found)
0x404407: movsx ecx, byte [rbx+0x0042AC14] ; call rdi ; (1 found)
0x4045a2: movsx ecx, byte [rsi+0x0042AC14] ; call r14 ; (1 found)
0x4045bc: movsx edi, byte [r15+0x0042AC14] ; mov ecx, edi ; call r14 ; (1 found)
0x4045bd: movsx edi, byte [rdi+0x0042AC14] ; mov ecx, edi ; call r14 ; (1 found)
0x426c97: movsxd eax,  [0x0000000000438478] ; mov rdi, rbx ; syscall ; (1 found)
0x42790b: movsxd eax,  [rax+rax+0x0042CC2A] ; mov eax,  [rax] ; ret ; (1 found)
0x4163aa: movsxd eax,  [rcx+0x00] ; pop rbp ; ret ; (1 found)
0x41275d: movsxd eax,  [rdx+rcx*4] ; add rax, rdx ; jmp rax ; (1 found)
0x412aed: movsxd eax,  [rdx+rcx*4] ; add rax, rdx ; jmp rax ; (1 found)
0x426c34: movsxd edi,  [0x00000000004380D8] ; clc ; syscall ; (1 found)
0x404791: movsxd edx, edx ; xor ecx, ecx ; call 0x00000000 ; (1 found)
0x404801: movsxd edx, edx ; xor ecx, ecx ; call 0x00000000 ; (1 found)
0x4208e4: movsxd esi, esi ; ret ; (1 found)
0x426c96: movsxd rax, qword [0x0000000000438478] ; mov rdi, rbx ; syscall ; (1 found)
0x427909: movsxd rax, qword [rax+rax+0x0042CC2A] ; mov eax,  [rax] ; ret ; (1 found)
0x42790a: movsxd rax, qword [rax+rax+0x0042CC2A] ; mov eax,  [rax] ; ret ; (1 found)
0x41275c: movsxd rax, qword [rdx+rcx*4] ; add rax, rdx ; jmp rax ; (1 found)
0x412aec: movsxd rax, qword [rdx+rcx*4] ; add rax, rdx ; jmp rax ; (1 found)
0x426c33: movsxd rdi, qword [0x00000000004380D8] ; clc ; syscall ; (1 found)
0x404790: movsxd rdx, rdx ; xor ecx, ecx ; call 0x00000000 ; (1 found)
0x404800: movsxd rdx, rdx ; xor ecx, ecx ; call 0x00000000 ; (1 found)
0x41f297: movups  [rax+0x68], xmm0 ; movups  [rax+0x78], xmm0 ; ret ; (1 found)
0x41f298: movups  [rax+0x68], xmm0 ; movups  [rax+0x78], xmm0 ; ret ; (1 found)
0x41f299: movups  [rax+0x68], xmm0 ; movups  [rax+0x78], xmm0 ; ret ; (1 found)
0x41f039: movups  [rax+0x78], xmm0 ; ret ; (1 found)
0x41f0e2: movups  [rax+0x78], xmm0 ; ret ; (1 found)
0x41f17e: movups  [rax+0x78], xmm0 ; ret ; (1 found)
0x41f29d: movups  [rax+0x78], xmm0 ; ret ; (1 found)
0x422510: movups  [rdi], xmm0 ; mov rax, rdi ; ret ; (1 found)
0x422537: movups  [rdi], xmm0 ; mov rax, rdi ; ret ; (1 found)
0x4063c4: movups  [rdx], xmm0 ; xor eax, eax ; ret ; (1 found)
0x411d5e: movups  [rsi], xmm0 ; ret ; (1 found)
0x425595: movzx eax, al ; jmp qword [0x0042AC18+rax*8] ; (1 found)
0x410b93: movzx eax, al ; ret ; (1 found)
0x41f740: movzx eax, al ; ret ; (1 found)
0x4243bd: movzx eax, al ; ret ; (1 found)
0x412685: movzx eax, al ; sub eax, r8d ; ret ; (1 found)
0x4126f0: movzx eax, al ; sub eax, r8d ; ret ; (1 found)
0x4017fe: movzx eax, byte [rbx+rax] ; lea eax,  [rbx+rax] ; jmp rax ; (1 found)
0x41642e: movzx eax, byte [rsi+rdx-0x01] ; sub eax, r8d ; ret ; (1 found)
0x410a16: movzx eax, word [rdi+0x0A] ; ret ; (1 found)
0x424268: movzx ecx, byte [rcx+0x0042BD40] ; jmp qword [0x0042BDC0+rcx*8] ; (1 found)
0x403ef5: movzx edx, byte [rcx+rdx] ; sub eax, edx ; ret ; (1 found)
0x403f38: movzx edx, byte [rcx+rdx] ; sub eax, edx ; ret ; (1 found)
0x41257b: movzx edx, byte [rcx+rdx] ; sub eax, edx ; ret ; (1 found)
0x4125fc: movzx edx, byte [rcx+rdx] ; sub eax, edx ; ret ; (1 found)
0x412617: movzx edx, byte [rcx+rdx] ; sub eax, edx ; ret ; (1 found)
0x4162ab: movzx edx, byte [rcx+rdx] ; sub eax, edx ; ret ; (1 found)
0x41123b: movzx edx, cl ; ret ; (1 found)
0x411249: movzx edx, cl ; ret ; (1 found)
0x40cba0: movzx edx, dl ; jmp qword [0x00429588+rdx*8] ; (1 found)
0x425b2b: movzx edx, dl ; jmp qword [0x0042AEF0+rdx*8] ; (1 found)
0x42214e: movzx edx, dl ; lea eax,  [rax+rdx+0x01] ; ret ; (1 found)
0x42314f: movzx edx, dl ; sub eax, edx ; ret ; (1 found)
0x41642d: movzx r8d, byte [rsi+rdx-0x01] ; sub eax, r8d ; ret ; (1 found)
0x412684: movzx r8d, r8L ; sub eax, r8d ; ret ; (1 found)
0x4126ef: movzx r8d, r8L ; sub eax, r8d ; ret ; (1 found)
0x427c24: neg eax ; pop rbp ; ret ; (1 found)
0x40bf5f: neg eax ; ret ; (1 found)
0x423a04: neg eax ; ret ; (1 found)
0x424c1f: neg eax ; ret ; (1 found)
0x423a03: neg rax ; ret ; (1 found)
0x424c1e: neg rax ; ret ; (1 found)
0x408c71: nop ; call qword [rbp+0x10] ; (1 found)
0x40c5d3: nop ; leave ; ret ; (1 found)
0x40c61b: nop ; leave ; ret ; (1 found)
0x40c652: nop ; leave ; ret ; (1 found)
0x41209f: nop ; mov  [0x0000000000446090], 0x00000001 ; ret ; (1 found)
0x415f9f: nop ; mov  [0x00000000004460A4], 0x00000001 ; ret ; (1 found)
0x41183e: nop ; mov eax, 0x00428E02 ; ret ; (1 found)
0x41183f: nop ; mov eax, 0x00428E02 ; ret ; (1 found)
0x41f8fe: nop ; mov eax, 0xFFFFFFFC ; ret ; (1 found)
0x41f8ff: nop ; mov eax, 0xFFFFFFFC ; ret ; (1 found)
0x404430: nop ; mov rcx, rsi ; call r15 ; (1 found)
0x40d89e: nop ; mov rdi, r14 ; call 0x00000000 ; (1 found)
0x40d89f: nop ; mov rdi, r14 ; call 0x00000000 ; (1 found)
0x4134cf: nop ; nop ; ret ; (1 found)
0x424970: nop ; pause ; ret ; (1 found)
0x424971: nop ; pause ; ret ; (1 found)
0x40c6d5: nop ; pop rbp ; ret ; (1 found)
0x4134d0: nop ; ret ; (1 found)
0x4134d1: nop ; ret ; (1 found)
0x424973: nop ; ret ; (1 found)
0x42705f: nop ; ret ; (1 found)
0x41a9d2: nop ; retn 0xB60F ; (1 found)
0x41aab2: nop ; retn 0xB60F ; (1 found)
0x41f8e3: nop ; retn 0xB60F ; (1 found)
0x42034e: nop ; xor eax, eax ; ret ; (1 found)
0x42034f: nop ; xor eax, eax ; ret ; (1 found)
0x409a79: nop  [rax+0x00000000] ; add eax, 0x01 ; ret ; (1 found)
0x409b89: nop  [rax+0x00000000] ; ret ; (1 found)
0x411ce9: nop  [rax+0x00000000] ; ret ; (1 found)
0x422ad1: nop  [rax+0x00000000] ; ret ; (1 found)
0x412691: nop  [rax+0x00000000] ; xor eax, eax ; ret ; (1 found)
0x416a41: nop  [rax+0x00000000] ; xor eax, eax ; ret ; (1 found)
0x411574: nop  [rax+0x00] ; mov eax, 0x00428B32 ; ret ; (1 found)
0x4109c4: nop  [rax+0x00] ; mov eax, 0x00428C6E ; ret ; (1 found)
0x41f7ec: nop  [rax+0x00] ; mov eax, 0xFFFFFFFE ; ret ; (1 found)
0x41268c: nop  [rax+0x00] ; ret ; (1 found)
0x42748c: nop  [rax+0x00] ; ret ; (1 found)
0x4164c8: nop  [rax+rax+0x00000000] ; mov eax, 0x00000137 ; syscall ; (1 found)
0x41f927: nop  [rax+rax+0x00000000] ; mov eax, 0xFFFFFFF5 ; ret ; (1 found)
0x41f928: nop  [rax+rax+0x00000000] ; mov eax, 0xFFFFFFF5 ; ret ; (1 found)
0x41f917: nop  [rax+rax+0x00000000] ; mov eax, 0xFFFFFFF6 ; ret ; (1 found)
0x41f918: nop  [rax+rax+0x00000000] ; mov eax, 0xFFFFFFF6 ; ret ; (1 found)
0x41f827: nop  [rax+rax+0x00000000] ; mov eax, 0xFFFFFFF8 ; ret ; (1 found)
0x41f828: nop  [rax+rax+0x00000000] ; mov eax, 0xFFFFFFF8 ; ret ; (1 found)
0x41f937: nop  [rax+rax+0x00000000] ; mov eax, 0xFFFFFFF8 ; ret ; (1 found)
0x41f938: nop  [rax+rax+0x00000000] ; mov eax, 0xFFFFFFF8 ; ret ; (1 found)
0x41f817: nop  [rax+rax+0x00000000] ; mov eax, 0xFFFFFFF9 ; ret ; (1 found)
0x41f818: nop  [rax+rax+0x00000000] ; mov eax, 0xFFFFFFF9 ; ret ; (1 found)
0x41f807: nop  [rax+rax+0x00000000] ; mov eax, 0xFFFFFFFB ; ret ; (1 found)
0x41f808: nop  [rax+rax+0x00000000] ; mov eax, 0xFFFFFFFB ; ret ; (1 found)
0x41f7f7: nop  [rax+rax+0x00000000] ; mov eax, 0xFFFFFFFD ; ret ; (1 found)
0x41f7f8: nop  [rax+rax+0x00000000] ; mov eax, 0xFFFFFFFD ; ret ; (1 found)
0x41f907: nop  [rax+rax+0x00000000] ; mov eax, 0xFFFFFFFD ; ret ; (1 found)
0x41f908: nop  [rax+rax+0x00000000] ; mov eax, 0xFFFFFFFD ; ret ; (1 found)
0x427483: nop  [rax+rax+0x00000000] ; nop  [rax+0x00] ; ret ; (1 found)
0x427484: nop  [rax+rax+0x00000000] ; nop  [rax+0x00] ; ret ; (1 found)
0x427654: nop  [rax+rax+0x00000000] ; nop  [rax] ; ret ; (1 found)
0x427655: nop  [rax+rax+0x00000000] ; nop  [rax] ; ret ; (1 found)
0x4247e8: nop  [rax+rax+0x00000000] ; ret ; (1 found)
0x426fd7: nop  [rax+rax+0x00000000] ; ret ; (1 found)
0x426fd8: nop  [rax+rax+0x00000000] ; ret ; (1 found)
0x416493: nop  [rax+rax+0x00] ; mov eax, 0x0100001B ; syscall ; (1 found)
0x40e1db: nop  [rax+rax+0x00] ; mov eax, ecx ; ret ; (1 found)
0x41d5c3: nop  [rax+rax+0x00] ; mov rax, 0xFFFFFFFFFFFFFFFF ; ret ; (1 found)
0x41b393: nop  [rax+rax+0x00] ; ret ; (1 found)
0x41d2fb: nop  [rax+rax+0x00] ; ret ; (1 found)
0x421abb: nop  [rax+rax+0x00] ; ret ; (1 found)
0x40d403: nop  [rax+rax+0x00] ; sub rbx, 0x08 ; call qword [rbx] ; (1 found)
0x4089fb: nop  [rax+rax+0x00] ; xor eax, eax ; ret ; (1 found)
0x416203: nop  [rax+rax+0x00] ; xor eax, eax ; ret ; (1 found)
0x41f8f5: nop  [rax] ; mov eax, 0xFFFFFFFE ; ret ; (1 found)
0x416535: nop  [rax] ; mov eax, edi ; ret ; (1 found)
0x427915: nop  [rax] ; mov eax, edi ; ret ; (1 found)
0x411a5d: nop  [rax] ; ret ; (1 found)
0x41dcdd: nop  [rax] ; ret ; (1 found)
0x42747d: nop  [rax] ; ret ; (1 found)
0x42765d: nop  [rax] ; ret ; (1 found)
0x427bcd: nop  [rax] ; ret ; (1 found)
0x40fe05: nop  [rax] ; xor eax, eax ; ret ; (1 found)
0x41a0c5: nop  [rax] ; xor eax, eax ; ret ; (1 found)
0x4213d5: nop  [rax] ; xor eax, eax ; ret ; (1 found)
0x41f926: nop word [rax+rax+0x00000000] ; mov eax, 0xFFFFFFF5 ; ret ; (1 found)
0x41f916: nop word [rax+rax+0x00000000] ; mov eax, 0xFFFFFFF6 ; ret ; (1 found)
0x41f826: nop word [rax+rax+0x00000000] ; mov eax, 0xFFFFFFF8 ; ret ; (1 found)
0x41f936: nop word [rax+rax+0x00000000] ; mov eax, 0xFFFFFFF8 ; ret ; (1 found)
0x41f816: nop word [rax+rax+0x00000000] ; mov eax, 0xFFFFFFF9 ; ret ; (1 found)
0x41f806: nop word [rax+rax+0x00000000] ; mov eax, 0xFFFFFFFB ; ret ; (1 found)
0x41f7f6: nop word [rax+rax+0x00000000] ; mov eax, 0xFFFFFFFD ; ret ; (1 found)
0x41f906: nop word [rax+rax+0x00000000] ; mov eax, 0xFFFFFFFD ; ret ; (1 found)
0x427481: nop word [rax+rax+0x00000000] ; nop  [rax+0x00] ; ret ; (1 found)
0x427482: nop word [rax+rax+0x00000000] ; nop  [rax+0x00] ; ret ; (1 found)
0x427653: nop word [rax+rax+0x00000000] ; nop  [rax] ; ret ; (1 found)
0x426fd6: nop word [rax+rax+0x00000000] ; ret ; (1 found)
0x41d5c2: nop word [rax+rax+0x00] ; mov rax, 0xFFFFFFFFFFFFFFFF ; ret ; (1 found)
0x41b392: nop word [rax+rax+0x00] ; ret ; (1 found)
0x41d2fa: nop word [rax+rax+0x00] ; ret ; (1 found)
0x40d402: nop word [rax+rax+0x00] ; sub rbx, 0x08 ; call qword [rbx] ; (1 found)
0x4089fa: nop word [rax+rax+0x00] ; xor eax, eax ; ret ; (1 found)
0x419852: or  [rax+0x48000003], 0xFFFFFF89 ; retn 0x8548 ; (1 found)
0x427780: or  [rax-0x01], ecx ; retn 0x8348 ; (1 found)
0x4033fc: or  [rax], eax ; add byte [rax], al ; ret ; (1 found)
0x403433: or  [rax], eax ; add byte [rax], al ; ret ; (1 found)
0x41a333: or  [rbp+rcx*4+0x04], ecx ; ret ; (1 found)
0x40bca6: or  [rcx+0x5C415BD8], ecx ; pop rbp ; ret ; (1 found)
0x416093: or  [rcx], esi ; rol byte [rax+0x0F480038], cl ; retn 0x66C3 ; (1 found)
0x416117: or  [rcx], esi ; rol byte [rax+0x0F480038], cl ; retn 0x66C3 ; (1 found)
0x424acb: or  [rdi], eax ; xor eax, eax ; ret ; (1 found)
0x425a97: or  [rdi], ecx ; xchg eax, esi ; retn 0x85E9 ; (1 found)
0x41a90b: or  [rdx+rax-0x50F0B800], edi ; retn 0xC148 ; (1 found)
0x403033: or  [rdx], eax ; add byte [rax], al ; ret ; (1 found)
0x410145: or  [rsi+0x18], edi ; call qword [rax+0x000001A0] ; (1 found)
0x40e432: or ah, byte [rsi-0x77] ; add cl, byte [rax-0x7D] ; retn 0x4804 ; (1 found)
0x410890: or al, 0x00 ; add byte [rax-0x77], cl ; retn 0x8949 ; (1 found)
0x403313: or al, 0x00 ; add byte [rax], al ; ret ; (1 found)
0x41e232: or al, 0x5D ; ret ; (1 found)
0x407e43: or al, 0x89 ; retn 0x8589 ; (1 found)
0x403474: or al, 0xC3 ; mov  [0x0000000000445F88], 0x00000014 ; ret ; (1 found)
0x416f57: or al, 0xCA ; mov al, byte [0x5D0002114715FF0C] ; ret ; (1 found)
0x4033e9: or al, byte [rax] ; add byte [rax], al ; ret ; (1 found)
0x410a7f: or al, byte [rbx-0x67B7FB40] ; mov rax, qword [rsi+rax] ; ret ; (1 found)
0x411171: or al, byte [rcx-0x007F] ; ret ; (1 found)
0x4219b5: or bh, byte [rax+0x00429448] ; ret ; (1 found)
0x41d68e: or byte [r8+0x39], r9L ; ret ; (1 found)
0x411dfa: or byte [r8-0x77], cl ; aaa ; ret ; (1 found)
0x416b42: or byte [r8-0x7B], cl ; sal byte [rsp+rbx+0x48], 0x89 ; ret ; (1 found)
0x404b92: or byte [rax+0x01], cl ; retn 0x3949 ; (1 found)
0x40fd28: or byte [rax+0x39], cl ; ret ; (1 found)
0x41d68f: or byte [rax+0x39], cl ; ret ; (1 found)
0x424bf4: or byte [rax-0x3F], 0xE0 ; add cl, byte [rax-0x6E] ; ret ; (1 found)
0x411dfb: or byte [rax-0x77], cl ; aaa ; ret ; (1 found)
0x416b43: or byte [rax-0x7B], cl ; sal byte [rsp+rbx+0x48], 0x89 ; ret ; (1 found)
0x4033cc: or byte [rax], al ; add byte [rax], al ; ret ; (1 found)
0x403414: or byte [rax], al ; add byte [rax], al ; ret ; (1 found)
0x4230e3: or byte [rax], al ; add cl, cl ; ret ; (1 found)
0x40a20a: or byte [rbp-0x38B700B1], cl ; ret ; (1 found)
0x425b54: or byte [rbx-0x6AF0FFC6], al ; retn 0xB60F ; (1 found)
0x411243: or byte [rcx+0x00000001], bh ; movzx edx, cl ; ret ; (1 found)
0x411242: or byte [rcx+0x00000001], dil ; movzx edx, cl ; ret ; (1 found)
0x41dbfe: or byte [rdx+0x00000001], bh ; mov eax, edx ; ret ; (1 found)
0x4170d9: or byte [rdx-0x01], ch ; pop rax ; ret ; (1 found)
0x409bf5: or cl, byte [rax-0x3F7CB7F8] ; add  [rax-0x7D], ecx ; retn 0x8401 ; (1 found)
0x409c85: or cl, byte [rax-0x3F7CB7F8] ; add  [rax-0x7D], ecx ; retn 0x8401 ; (1 found)
0x41d85c: or cl, byte [rax-0x77] ; retn 0x840F ; (1 found)
0x41d8b7: or cl, byte [rax-0x77] ; retn 0x840F ; (1 found)
0x409c5f: or cl, byte [rax-0x7D] ; retn 0x4801 ; (1 found)
0x40f3ad: or cl, byte [rax-0x7D] ; retn 0x4802 ; (1 found)
0x410f8f: or cl, byte [rbp+0x240038BC] ; mov al, byte [0xFFFF0EE9D78949FC] ; call qword [rax+0x49CB8948] ; (1 found)
0x425e34: or cl, ch ; ret ; (1 found)
0x4159af: or cl, cl ; ret ; (1 found)
0x411008: or dh, dh ; ret ; (1 found)
0x411052: or dh, dh ; ret ; (1 found)
0x41f9dd: or dh, dh ; retn 0x0F02 ; (1 found)
0x402c36: or dh, dh ; retn 0x7410 ; (1 found)
0x403355: or eax,  [rax] ; add byte [rax], al ; ret ; (1 found)
0x403487: or eax,  [rax] ; add byte [rax], al ; ret ; (1 found)
0x415cf4: or eax,  [rbp+0x5D1F7FC0] ; ret ; (1 found)
0x41f2de: or eax, 0x00004049 ; ret ; (1 found)
0x4234e9: or eax, 0x89000004 ; ret ; (1 found)
0x420d19: or eax, 0x89480000 ; ret ; (1 found)
0x40331e: or eax, 0xC3000000 ; mov  [0x0000000000445F84], 0x0000000E ; ret ; (1 found)
0x410a95: or eax, 0xFFFFFFFF ; ret ; (1 found)
0x410b0c: or eax, 0xFFFFFFFF ; ret ; (1 found)
0x410b64: or eax, 0xFFFFFFFF ; ret ; (1 found)
0x41c308: or eax, 0xFFFFFFFF ; ret ; (1 found)
0x40cbb9: or eax, eax ; ret ; (1 found)
0x410b91: or eax, edx ; movzx eax, al ; ret ; (1 found)
0x41f73e: or eax, edx ; movzx eax, al ; ret ; (1 found)
0x40a1e0: or eax, edx ; ret ; (1 found)
0x40cbb8: or eax, r8d ; ret ; (1 found)
0x40d101: or ebx,  [rdi-0x76B80000] ; retn 0x058B ; (1 found)
0x426e13: or ecx,  [rcx+rcx*4-0x12] ; mov rdi, r12 ; call 0x00000000 ; (1 found)
0x404101: or ecx, 0xFFFFFFFF ; call r14 ; (1 found)
0x403f6e: or ecx, ecx ; ret ; (1 found)
0x425242: or ecx, esi ; mov rdx, rcx ; ret ; (1 found)
0x41565e: or edx, 0x08 ; mov  [rcx], edx ; ret ; (1 found)
0x415673: or edx, 0x08 ; mov  [rcx], edx ; ret ; (1 found)
0x424aca: or qword [rdi], rax ; xor eax, eax ; ret ; (1 found)
0x410a94: or rax, 0xFFFFFFFFFFFFFFFF ; ret ; (1 found)
0x410b0b: or rax, 0xFFFFFFFFFFFFFFFF ; ret ; (1 found)
0x410b63: or rax, 0xFFFFFFFFFFFFFFFF ; ret ; (1 found)
0x404100: or rcx, 0xFFFFFFFFFFFFFFFF ; call r14 ; (1 found)
0x425241: or rcx, rsi ; mov rdx, rcx ; ret ; (1 found)
0x41f308: out 0x01, eax ; add eax, edi ; ret ; (1 found)
0x41a9d0: out 0x0F, al ; nop ; retn 0xB60F ; (1 found)
0x416b51: out 0x41, eax ; call rbp ; (1 found)
0x416b6a: out 0x41, eax ; call rbp ; (1 found)
0x4271c6: out 0x89, eax ; retn 0xC166 ; (1 found)
0x418bcd: out 0xE8, al ; pop rbp ; retn 0xFFFF ; (1 found)
0x408f08: out 0xE8, eax ; retn 0xFFFF ; (1 found)
0x426e8b: out 0xFF, al ; dec ecx ; ret ; (1 found)
0x40346e: out dx, al ; adc byte [rbx+0x0C761FFE], al ; ret ; (1 found)
0x426e16: out dx, al ; mov rdi, r12 ; call 0x00000000 ; (1 found)
0x400193: out dx, al ; ret ; (1 found)
0x4270ba: out dx, al ; xor byte [rax-0x77], cl ; lock ret ; (1 found)
0x41f305: out dx, eax ; add al, byte [rbx-0x07FEFE19] ; ret ; (1 found)
0x41a24b: out dx, eax ; call 0x00000000 ; (1 found)
0x41011c: out dx, eax ; ret ; (1 found)
0x412f28: out dx, eax ; xor eax, eax ; ret ; (1 found)
0x412fa8: out dx, eax ; xor eax, eax ; ret ; (1 found)
0x424c98: out dx, eax ; xor eax, eax ; ret ; (1 found)
0x424d18: out dx, eax ; xor eax, eax ; ret ; (1 found)
0x4109c9: outsb ; mov word [rdx+0x00], es ; ret ; (1 found)
0x417813: outsb ; ret ; (1 found)
0x41b3a3: outsb ; ret ; (1 found)
0x41dd8a: outsb ; retn 0x0F66 ; (1 found)
0x417dea: outsb ; retn 0x4966 ; (1 found)
0x41f011: outsd ; push 0x7E0F4866 ; retn 0x110F ; (1 found)
0x424972: pause ; ret ; (1 found)
0x426cec: pmaxsw mm1, qword [rax-0x01] ; shr ebx, 0xFFFFFFE9 ; ret ; (1 found)
0x40151f: pop r12 ; pop rbp ; ret ; (1 found)
0x404dcb: pop r12 ; pop rbp ; ret ; (1 found)
0x404f49: pop r12 ; pop rbp ; ret ; (1 found)
0x406647: pop r12 ; pop rbp ; ret ; (1 found)
0x406684: pop r12 ; pop rbp ; ret ; (1 found)
0x40804b: pop r12 ; pop rbp ; ret ; (1 found)
0x4080dc: pop r12 ; pop rbp ; ret ; (1 found)
0x40930c: pop r12 ; pop rbp ; ret ; (1 found)
0x40932a: pop r12 ; pop rbp ; ret ; (1 found)
0x40a553: pop r12 ; pop rbp ; ret ; (1 found)
0x40a5bb: pop r12 ; pop rbp ; ret ; (1 found)
0x40b846: pop r12 ; pop rbp ; ret ; (1 found)
0x40b856: pop r12 ; pop rbp ; ret ; (1 found)
0x40b9c1: pop r12 ; pop rbp ; ret ; (1 found)
0x40b9e3: pop r12 ; pop rbp ; ret ; (1 found)
0x40bcaa: pop r12 ; pop rbp ; ret ; (1 found)
0x40ca43: pop r12 ; pop rbp ; ret ; (1 found)
0x40cb35: pop r12 ; pop rbp ; ret ; (1 found)
0x40cb47: pop r12 ; pop rbp ; ret ; (1 found)
0x40ddbb: pop r12 ; pop rbp ; ret ; (1 found)
0x40f227: pop r12 ; pop rbp ; ret ; (1 found)
0x40f370: pop r12 ; pop rbp ; ret ; (1 found)
0x40f3ee: pop r12 ; pop rbp ; ret ; (1 found)
0x40f4ed: pop r12 ; pop rbp ; ret ; (1 found)
0x410cee: pop r12 ; pop rbp ; ret ; (1 found)
0x410d16: pop r12 ; pop rbp ; ret ; (1 found)
0x41183a: pop r12 ; pop rbp ; ret ; (1 found)
0x4120f5: pop r12 ; pop rbp ; ret ; (1 found)
0x412116: pop r12 ; pop rbp ; ret ; (1 found)
0x4123cb: pop r12 ; pop rbp ; ret ; (1 found)
0x412430: pop r12 ; pop rbp ; ret ; (1 found)
0x413142: pop r12 ; pop rbp ; ret ; (1 found)
0x4144fd: pop r12 ; pop rbp ; ret ; (1 found)
0x414519: pop r12 ; pop rbp ; ret ; (1 found)
0x4149d2: pop r12 ; pop rbp ; ret ; (1 found)
0x415709: pop r12 ; pop rbp ; ret ; (1 found)
0x415782: pop r12 ; pop rbp ; ret ; (1 found)
0x41687d: pop r12 ; pop rbp ; ret ; (1 found)
0x416920: pop r12 ; pop rbp ; ret ; (1 found)
0x416dcb: pop r12 ; pop rbp ; ret ; (1 found)
0x416e15: pop r12 ; pop rbp ; ret ; (1 found)
0x417d31: pop r12 ; pop rbp ; ret ; (1 found)
0x417d58: pop r12 ; pop rbp ; ret ; (1 found)
0x417e41: pop r12 ; pop rbp ; ret ; (1 found)
0x4180ae: pop r12 ; pop rbp ; ret ; (1 found)
0x4188b0: pop r12 ; pop rbp ; ret ; (1 found)
0x418c9f: pop r12 ; pop rbp ; ret ; (1 found)
0x41a0a8: pop r12 ; pop rbp ; ret ; (1 found)
0x41c2fd: pop r12 ; pop rbp ; ret ; (1 found)
0x41c36a: pop r12 ; pop rbp ; ret ; (1 found)
0x41c7f5: pop r12 ; pop rbp ; ret ; (1 found)
0x41dcd9: pop r12 ; pop rbp ; ret ; (1 found)
0x41e36a: pop r12 ; pop rbp ; ret ; (1 found)
0x41ecf4: pop r12 ; pop rbp ; ret ; (1 found)
0x41ed0a: pop r12 ; pop rbp ; ret ; (1 found)
0x41ed2a: pop r12 ; pop rbp ; ret ; (1 found)
0x4213a2: pop r12 ; pop rbp ; ret ; (1 found)
0x4213d1: pop r12 ; pop rbp ; ret ; (1 found)
0x421485: pop r12 ; pop rbp ; ret ; (1 found)
0x42149c: pop r12 ; pop rbp ; ret ; (1 found)
0x421533: pop r12 ; pop rbp ; ret ; (1 found)
0x4215e2: pop r12 ; pop rbp ; ret ; (1 found)
0x421ab7: pop r12 ; pop rbp ; ret ; (1 found)
0x422303: pop r12 ; pop rbp ; ret ; (1 found)
0x42231c: pop r12 ; pop rbp ; ret ; (1 found)
0x4225f1: pop r12 ; pop rbp ; ret ; (1 found)
0x422602: pop r12 ; pop rbp ; ret ; (1 found)
0x422ca8: pop r12 ; pop rbp ; ret ; (1 found)
0x422cca: pop r12 ; pop rbp ; ret ; (1 found)
0x422ebf: pop r12 ; pop rbp ; ret ; (1 found)
0x424403: pop r12 ; pop rbp ; ret ; (1 found)
0x4254c2: pop r12 ; pop rbp ; ret ; (1 found)
0x42741e: pop r12 ; pop rbp ; ret ; (1 found)
0x4274fa: pop r12 ; pop rbp ; ret ; (1 found)
0x427531: pop r12 ; pop rbp ; ret ; (1 found)
0x42755c: pop r12 ; pop rbp ; ret ; (1 found)
0x4275da: pop r12 ; pop rbp ; ret ; (1 found)
0x427611: pop r12 ; pop rbp ; ret ; (1 found)
0x42763c: pop r12 ; pop rbp ; ret ; (1 found)
0x427982: pop r12 ; pop rbp ; ret ; (1 found)
0x401baf: pop r13 ; pop rbp ; ret ; (1 found)
0x404bc8: pop r13 ; pop rbp ; ret ; (1 found)
0x404c31: pop r13 ; pop rbp ; ret ; (1 found)
0x4072bc: pop r13 ; pop rbp ; ret ; (1 found)
0x407412: pop r13 ; pop rbp ; ret ; (1 found)
0x407436: pop r13 ; pop rbp ; ret ; (1 found)
0x407eb4: pop r13 ; pop rbp ; ret ; (1 found)
0x407f3e: pop r13 ; pop rbp ; ret ; (1 found)
0x408743: pop r13 ; pop rbp ; ret ; (1 found)
0x4091da: pop r13 ; pop rbp ; ret ; (1 found)
0x409aea: pop r13 ; pop rbp ; ret ; (1 found)
0x409b4c: pop r13 ; pop rbp ; ret ; (1 found)
0x409edb: pop r13 ; pop rbp ; ret ; (1 found)
0x409ef4: pop r13 ; pop rbp ; ret ; (1 found)
0x40d680: pop r13 ; pop rbp ; ret ; (1 found)
0x40ebb9: pop r13 ; pop rbp ; ret ; (1 found)
0x40ef8e: pop r13 ; pop rbp ; ret ; (1 found)
0x410783: pop r13 ; pop rbp ; ret ; (1 found)
0x4107b3: pop r13 ; pop rbp ; ret ; (1 found)
0x410c60: pop r13 ; pop rbp ; ret ; (1 found)
0x410caa: pop r13 ; pop rbp ; ret ; (1 found)
0x41323b: pop r13 ; pop rbp ; ret ; (1 found)
0x413300: pop r13 ; pop rbp ; ret ; (1 found)
0x413315: pop r13 ; pop rbp ; ret ; (1 found)
0x41348a: pop r13 ; pop rbp ; ret ; (1 found)
0x41349c: pop r13 ; pop rbp ; ret ; (1 found)
0x413605: pop r13 ; pop rbp ; ret ; (1 found)
0x4136cc: pop r13 ; pop rbp ; ret ; (1 found)
0x4137e0: pop r13 ; pop rbp ; ret ; (1 found)
0x414e83: pop r13 ; pop rbp ; ret ; (1 found)
0x415397: pop r13 ; pop rbp ; ret ; (1 found)
0x415b86: pop r13 ; pop rbp ; ret ; (1 found)
0x417236: pop r13 ; pop rbp ; ret ; (1 found)
0x4172bc: pop r13 ; pop rbp ; ret ; (1 found)
0x417547: pop r13 ; pop rbp ; ret ; (1 found)
0x417909: pop r13 ; pop rbp ; ret ; (1 found)
0x4179a4: pop r13 ; pop rbp ; ret ; (1 found)
0x4179ed: pop r13 ; pop rbp ; ret ; (1 found)
0x41b2bf: pop r13 ; pop rbp ; ret ; (1 found)
0x41b5cc: pop r13 ; pop rbp ; ret ; (1 found)
0x41c78f: pop r13 ; pop rbp ; ret ; (1 found)
0x41d5a7: pop r13 ; pop rbp ; ret ; (1 found)
0x41d5be: pop r13 ; pop rbp ; ret ; (1 found)
0x41dd9b: pop r13 ; pop rbp ; ret ; (1 found)
0x41ddbb: pop r13 ; pop rbp ; ret ; (1 found)
0x41e481: pop r13 ; pop rbp ; ret ; (1 found)
0x41e4cc: pop r13 ; pop rbp ; ret ; (1 found)
0x41e6b8: pop r13 ; pop rbp ; ret ; (1 found)
0x41eb5f: pop r13 ; pop rbp ; ret ; (1 found)
0x41edb0: pop r13 ; pop rbp ; ret ; (1 found)
0x41faf3: pop r13 ; pop rbp ; ret ; (1 found)
0x420806: pop r13 ; pop rbp ; ret ; (1 found)
0x4234fd: pop r13 ; pop rbp ; ret ; (1 found)
0x423c64: pop r13 ; pop rbp ; ret ; (1 found)
0x4240ae: pop r13 ; pop rbp ; ret ; (1 found)
0x4240d6: pop r13 ; pop rbp ; ret ; (1 found)
0x4276de: pop r13 ; pop rbp ; ret ; (1 found)
0x401e1a: pop r14 ; pop rbp ; ret ; (1 found)
0x401e72: pop r14 ; pop rbp ; ret ; (1 found)
0x403604: pop r14 ; pop rbp ; ret ; (1 found)
0x4038a5: pop r14 ; pop rbp ; ret ; (1 found)
0x405e69: pop r14 ; pop rbp ; ret ; (1 found)
0x405e8b: pop r14 ; pop rbp ; ret ; (1 found)
0x40644e: pop r14 ; pop rbp ; ret ; (1 found)
0x4064e4: pop r14 ; pop rbp ; ret ; (1 found)
0x406501: pop r14 ; pop rbp ; ret ; (1 found)
0x40678f: pop r14 ; pop rbp ; ret ; (1 found)
0x406fe8: pop r14 ; pop rbp ; ret ; (1 found)
0x407093: pop r14 ; pop rbp ; ret ; (1 found)
0x407aab: pop r14 ; pop rbp ; ret ; (1 found)
0x407b7b: pop r14 ; pop rbp ; ret ; (1 found)
0x40ad5d: pop r14 ; pop rbp ; ret ; (1 found)
0x40ba1e: pop r14 ; pop rbp ; ret ; (1 found)
0x40baf4: pop r14 ; pop rbp ; ret ; (1 found)
0x40bb9f: pop r14 ; pop rbp ; ret ; (1 found)
0x40bbb9: pop r14 ; pop rbp ; ret ; (1 found)
0x40c8d5: pop r14 ; pop rbp ; ret ; (1 found)
0x40c952: pop r14 ; pop rbp ; ret ; (1 found)
0x40cc85: pop r14 ; pop rbp ; ret ; (1 found)
0x40cff5: pop r14 ; pop rbp ; ret ; (1 found)
0x40d3ab: pop r14 ; pop rbp ; ret ; (1 found)
0x40d5ab: pop r14 ; pop rbp ; ret ; (1 found)
0x40d89a: pop r14 ; pop rbp ; ret ; (1 found)
0x40f6c7: pop r14 ; pop rbp ; ret ; (1 found)
0x40fb3c: pop r14 ; pop rbp ; ret ; (1 found)
0x4100bb: pop r14 ; pop rbp ; ret ; (1 found)
0x4104ca: pop r14 ; pop rbp ; ret ; (1 found)
0x4108b7: pop r14 ; pop rbp ; ret ; (1 found)
0x41093a: pop r14 ; pop rbp ; ret ; (1 found)
0x41135c: pop r14 ; pop rbp ; ret ; (1 found)
0x411466: pop r14 ; pop rbp ; ret ; (1 found)
0x411a59: pop r14 ; pop rbp ; ret ; (1 found)
0x4130c5: pop r14 ; pop rbp ; ret ; (1 found)
0x4166fe: pop r14 ; pop rbp ; ret ; (1 found)
0x416b8b: pop r14 ; pop rbp ; ret ; (1 found)
0x416ba8: pop r14 ; pop rbp ; ret ; (1 found)
0x4174e1: pop r14 ; pop rbp ; ret ; (1 found)
0x41a8ce: pop r14 ; pop rbp ; ret ; (1 found)
0x41bfd7: pop r14 ; pop rbp ; ret ; (1 found)
0x41c686: pop r14 ; pop rbp ; ret ; (1 found)
0x41c700: pop r14 ; pop rbp ; ret ; (1 found)
0x41d9aa: pop r14 ; pop rbp ; ret ; (1 found)
0x41da26: pop r14 ; pop rbp ; ret ; (1 found)
0x41e56e: pop r14 ; pop rbp ; ret ; (1 found)
0x41ea1b: pop r14 ; pop rbp ; ret ; (1 found)
0x421196: pop r14 ; pop rbp ; ret ; (1 found)
0x4217aa: pop r14 ; pop rbp ; ret ; (1 found)
0x4217cd: pop r14 ; pop rbp ; ret ; (1 found)
0x421eb9: pop r14 ; pop rbp ; ret ; (1 found)
0x421eca: pop r14 ; pop rbp ; ret ; (1 found)
0x422b74: pop r14 ; pop rbp ; ret ; (1 found)
0x423778: pop r14 ; pop rbp ; ret ; (1 found)
0x423800: pop r14 ; pop rbp ; ret ; (1 found)
0x426cc5: pop r14 ; pop rbp ; ret ; (1 found)
0x426f2d: pop r14 ; pop rbp ; ret ; (1 found)
0x4010b6: pop r15 ; pop rbp ; ret ; (1 found)
0x401156: pop r15 ; pop rbp ; ret ; (1 found)
0x401266: pop r15 ; pop rbp ; ret ; (1 found)
0x4013ef: pop r15 ; pop rbp ; ret ; (1 found)
0x4014ce: pop r15 ; pop rbp ; ret ; (1 found)
0x40257b: pop r15 ; pop rbp ; ret ; (1 found)
0x4026aa: pop r15 ; pop rbp ; ret ; (1 found)
0x4046bd: pop r15 ; pop rbp ; ret ; (1 found)
0x404a35: pop r15 ; pop rbp ; ret ; (1 found)
0x404b0e: pop r15 ; pop rbp ; ret ; (1 found)
0x40549f: pop r15 ; pop rbp ; ret ; (1 found)
0x405bf7: pop r15 ; pop rbp ; ret ; (1 found)
0x40618b: pop r15 ; pop rbp ; ret ; (1 found)
0x4069d4: pop r15 ; pop rbp ; ret ; (1 found)
0x406af0: pop r15 ; pop rbp ; ret ; (1 found)
0x406ce7: pop r15 ; pop rbp ; ret ; (1 found)
0x4071c3: pop r15 ; pop rbp ; ret ; (1 found)
0x40754b: pop r15 ; pop rbp ; ret ; (1 found)
0x4075a5: pop r15 ; pop rbp ; ret ; (1 found)
0x40768e: pop r15 ; pop rbp ; ret ; (1 found)
0x4082f4: pop r15 ; pop rbp ; ret ; (1 found)
0x4084c9: pop r15 ; pop rbp ; ret ; (1 found)
0x408aea: pop r15 ; pop rbp ; ret ; (1 found)
0x408f8b: pop r15 ; pop rbp ; ret ; (1 found)
0x4094b1: pop r15 ; pop rbp ; ret ; (1 found)
0x409510: pop r15 ; pop rbp ; ret ; (1 found)
0x409528: pop r15 ; pop rbp ; ret ; (1 found)
0x40955a: pop r15 ; pop rbp ; ret ; (1 found)
0x40964a: pop r15 ; pop rbp ; ret ; (1 found)
0x40986b: pop r15 ; pop rbp ; ret ; (1 found)
0x40a8d0: pop r15 ; pop rbp ; ret ; (1 found)
0x40acd3: pop r15 ; pop rbp ; ret ; (1 found)
0x40add7: pop r15 ; pop rbp ; ret ; (1 found)
0x40ae8a: pop r15 ; pop rbp ; ret ; (1 found)
0x40aeb5: pop r15 ; pop rbp ; ret ; (1 found)
0x40b3f2: pop r15 ; pop rbp ; ret ; (1 found)
0x40c2ef: pop r15 ; pop rbp ; ret ; (1 found)
0x40c3e5: pop r15 ; pop rbp ; ret ; (1 found)
0x40ce00: pop r15 ; pop rbp ; ret ; (1 found)
0x40d125: pop r15 ; pop rbp ; ret ; (1 found)
0x40d4df: pop r15 ; pop rbp ; ret ; (1 found)
0x40d4fa: pop r15 ; pop rbp ; ret ; (1 found)
0x40da6d: pop r15 ; pop rbp ; ret ; (1 found)
0x40df19: pop r15 ; pop rbp ; ret ; (1 found)
0x40df49: pop r15 ; pop rbp ; ret ; (1 found)
0x40e077: pop r15 ; pop rbp ; ret ; (1 found)
0x40e35f: pop r15 ; pop rbp ; ret ; (1 found)
0x40e897: pop r15 ; pop rbp ; ret ; (1 found)
0x40ec7d: pop r15 ; pop rbp ; ret ; (1 found)
0x40ed5c: pop r15 ; pop rbp ; ret ; (1 found)
0x40f88a: pop r15 ; pop rbp ; ret ; (1 found)
0x40fcb3: pop r15 ; pop rbp ; ret ; (1 found)
0x40fce0: pop r15 ; pop rbp ; ret ; (1 found)
0x40fd5e: pop r15 ; pop rbp ; ret ; (1 found)
0x4102d8: pop r15 ; pop rbp ; ret ; (1 found)
0x410f7a: pop r15 ; pop rbp ; ret ; (1 found)
0x4111d4: pop r15 ; pop rbp ; ret ; (1 found)
0x4116cf: pop r15 ; pop rbp ; ret ; (1 found)
0x411710: pop r15 ; pop rbp ; ret ; (1 found)
0x4122b0: pop r15 ; pop rbp ; ret ; (1 found)
0x41231b: pop r15 ; pop rbp ; ret ; (1 found)
0x413938: pop r15 ; pop rbp ; ret ; (1 found)
0x413b28: pop r15 ; pop rbp ; ret ; (1 found)
0x413dc6: pop r15 ; pop rbp ; ret ; (1 found)
0x41476e: pop r15 ; pop rbp ; ret ; (1 found)
0x414c17: pop r15 ; pop rbp ; ret ; (1 found)
0x414df3: pop r15 ; pop rbp ; ret ; (1 found)
0x414f8b: pop r15 ; pop rbp ; ret ; (1 found)
0x414fd0: pop r15 ; pop rbp ; ret ; (1 found)
0x415853: pop r15 ; pop rbp ; ret ; (1 found)
0x41830a: pop r15 ; pop rbp ; ret ; (1 found)
0x419077: pop r15 ; pop rbp ; ret ; (1 found)
0x419227: pop r15 ; pop rbp ; ret ; (1 found)
0x419463: pop r15 ; pop rbp ; ret ; (1 found)
0x419955: pop r15 ; pop rbp ; ret ; (1 found)
0x419d21: pop r15 ; pop rbp ; ret ; (1 found)
0x41a1f2: pop r15 ; pop rbp ; ret ; (1 found)
0x41aae4: pop r15 ; pop rbp ; ret ; (1 found)
0x41ab1e: pop r15 ; pop rbp ; ret ; (1 found)
0x41ace1: pop r15 ; pop rbp ; ret ; (1 found)
0x41af7c: pop r15 ; pop rbp ; ret ; (1 found)
0x41bb4e: pop r15 ; pop rbp ; ret ; (1 found)
0x41bcde: pop r15 ; pop rbp ; ret ; (1 found)
0x41bedd: pop r15 ; pop rbp ; ret ; (1 found)
0x41c294: pop r15 ; pop rbp ; ret ; (1 found)
0x41c5dc: pop r15 ; pop rbp ; ret ; (1 found)
0x41c610: pop r15 ; pop rbp ; ret ; (1 found)
0x41c868: pop r15 ; pop rbp ; ret ; (1 found)
0x41cc11: pop r15 ; pop rbp ; ret ; (1 found)
0x41cf65: pop r15 ; pop rbp ; ret ; (1 found)
0x41d2e0: pop r15 ; pop rbp ; ret ; (1 found)
0x41d490: pop r15 ; pop rbp ; ret ; (1 found)
0x41d61d: pop r15 ; pop rbp ; ret ; (1 found)
0x41d6ec: pop r15 ; pop rbp ; ret ; (1 found)
0x41daef: pop r15 ; pop rbp ; ret ; (1 found)
0x41de3a: pop r15 ; pop rbp ; ret ; (1 found)
0x41f57e: pop r15 ; pop rbp ; ret ; (1 found)
0x41f71b: pop r15 ; pop rbp ; ret ; (1 found)
0x41fc11: pop r15 ; pop rbp ; ret ; (1 found)
0x41fe1d: pop r15 ; pop rbp ; ret ; (1 found)
0x41fe41: pop r15 ; pop rbp ; ret ; (1 found)
0x42023c: pop r15 ; pop rbp ; ret ; (1 found)
0x4205ed: pop r15 ; pop rbp ; ret ; (1 found)
0x420663: pop r15 ; pop rbp ; ret ; (1 found)
0x420941: pop r15 ; pop rbp ; ret ; (1 found)
0x42095f: pop r15 ; pop rbp ; ret ; (1 found)
0x42097a: pop r15 ; pop rbp ; ret ; (1 found)
0x420a0c: pop r15 ; pop rbp ; ret ; (1 found)
0x420bae: pop r15 ; pop rbp ; ret ; (1 found)
0x420d66: pop r15 ; pop rbp ; ret ; (1 found)
0x421b82: pop r15 ; pop rbp ; ret ; (1 found)
0x421e0f: pop r15 ; pop rbp ; ret ; (1 found)
0x42201e: pop r15 ; pop rbp ; ret ; (1 found)
0x422666: pop r15 ; pop rbp ; ret ; (1 found)
0x42268c: pop r15 ; pop rbp ; ret ; (1 found)
0x422835: pop r15 ; pop rbp ; ret ; (1 found)
0x422c40: pop r15 ; pop rbp ; ret ; (1 found)
0x423288: pop r15 ; pop rbp ; ret ; (1 found)
0x423299: pop r15 ; pop rbp ; ret ; (1 found)
0x423d3a: pop r15 ; pop rbp ; ret ; (1 found)
0x423e1e: pop r15 ; pop rbp ; ret ; (1 found)
0x4247b3: pop r15 ; pop rbp ; ret ; (1 found)
0x42538b: pop r15 ; pop rbp ; ret ; (1 found)
0x426a76: pop r15 ; pop rbp ; ret ; (1 found)
0x426e56: pop r15 ; pop rbp ; ret ; (1 found)
0x427af4: pop r15 ; pop rbp ; ret ; (1 found)
0x4111f0: pop r15 ; pop rbx ; ret ; (1 found)
0x427a08: pop rax ; leave ; ret ; (1 found)
0x41f037: pop rax ; movups  [rax+0x78], xmm0 ; ret ; (1 found)
0x41f038: pop rax ; movups  [rax+0x78], xmm0 ; ret ; (1 found)
0x403cd1: pop rax ; pop rbp ; ret ; (1 found)
0x40bdf5: pop rax ; ret ; (1 found)
0x4170dc: pop rax ; ret ; (1 found)
0x4170a1: pop rbp ; jmp 0x00000000 ; (1 found)
0x401bb0: pop rbp ; pop rbp ; ret ; (1 found)
0x404bc9: pop rbp ; pop rbp ; ret ; (1 found)
0x404c32: pop rbp ; pop rbp ; ret ; (1 found)
0x4072bd: pop rbp ; pop rbp ; ret ; (1 found)
0x407413: pop rbp ; pop rbp ; ret ; (1 found)
0x407437: pop rbp ; pop rbp ; ret ; (1 found)
0x407eb5: pop rbp ; pop rbp ; ret ; (1 found)
0x407f3f: pop rbp ; pop rbp ; ret ; (1 found)
0x408744: pop rbp ; pop rbp ; ret ; (1 found)
0x4091db: pop rbp ; pop rbp ; ret ; (1 found)
0x409aeb: pop rbp ; pop rbp ; ret ; (1 found)
0x409b4d: pop rbp ; pop rbp ; ret ; (1 found)
0x409edc: pop rbp ; pop rbp ; ret ; (1 found)
0x409ef5: pop rbp ; pop rbp ; ret ; (1 found)
0x40d681: pop rbp ; pop rbp ; ret ; (1 found)
0x40ebba: pop rbp ; pop rbp ; ret ; (1 found)
0x40ef8f: pop rbp ; pop rbp ; ret ; (1 found)
0x410784: pop rbp ; pop rbp ; ret ; (1 found)
0x4107b4: pop rbp ; pop rbp ; ret ; (1 found)
0x410c61: pop rbp ; pop rbp ; ret ; (1 found)
0x410cab: pop rbp ; pop rbp ; ret ; (1 found)
0x41323c: pop rbp ; pop rbp ; ret ; (1 found)
0x413301: pop rbp ; pop rbp ; ret ; (1 found)
0x413316: pop rbp ; pop rbp ; ret ; (1 found)
0x41348b: pop rbp ; pop rbp ; ret ; (1 found)
0x41349d: pop rbp ; pop rbp ; ret ; (1 found)
0x413606: pop rbp ; pop rbp ; ret ; (1 found)
0x4136cd: pop rbp ; pop rbp ; ret ; (1 found)
0x4137e1: pop rbp ; pop rbp ; ret ; (1 found)
0x414e84: pop rbp ; pop rbp ; ret ; (1 found)
0x415398: pop rbp ; pop rbp ; ret ; (1 found)
0x415b87: pop rbp ; pop rbp ; ret ; (1 found)
0x417237: pop rbp ; pop rbp ; ret ; (1 found)
0x4172bd: pop rbp ; pop rbp ; ret ; (1 found)
0x417548: pop rbp ; pop rbp ; ret ; (1 found)
0x41790a: pop rbp ; pop rbp ; ret ; (1 found)
0x4179a5: pop rbp ; pop rbp ; ret ; (1 found)
0x4179ee: pop rbp ; pop rbp ; ret ; (1 found)
0x41b2c0: pop rbp ; pop rbp ; ret ; (1 found)
0x41b5cd: pop rbp ; pop rbp ; ret ; (1 found)
0x41c790: pop rbp ; pop rbp ; ret ; (1 found)
0x41d5a8: pop rbp ; pop rbp ; ret ; (1 found)
0x41d5bf: pop rbp ; pop rbp ; ret ; (1 found)
0x41dd9c: pop rbp ; pop rbp ; ret ; (1 found)
0x41ddbc: pop rbp ; pop rbp ; ret ; (1 found)
0x41e482: pop rbp ; pop rbp ; ret ; (1 found)
0x41e4cd: pop rbp ; pop rbp ; ret ; (1 found)
0x41e6b9: pop rbp ; pop rbp ; ret ; (1 found)
0x41eb60: pop rbp ; pop rbp ; ret ; (1 found)
0x41edb1: pop rbp ; pop rbp ; ret ; (1 found)
0x41faf4: pop rbp ; pop rbp ; ret ; (1 found)
0x420807: pop rbp ; pop rbp ; ret ; (1 found)
0x4234fe: pop rbp ; pop rbp ; ret ; (1 found)
0x423c65: pop rbp ; pop rbp ; ret ; (1 found)
0x4240af: pop rbp ; pop rbp ; ret ; (1 found)
0x4240d7: pop rbp ; pop rbp ; ret ; (1 found)
0x4276df: pop rbp ; pop rbp ; ret ; (1 found)
0x4010b8: pop rbp ; ret ; (1 found)
0x401158: pop rbp ; ret ; (1 found)
0x401268: pop rbp ; ret ; (1 found)
0x4013f1: pop rbp ; ret ; (1 found)
0x4014d0: pop rbp ; ret ; (1 found)
0x401521: pop rbp ; ret ; (1 found)
0x401974: pop rbp ; ret ; (1 found)
0x401a05: pop rbp ; ret ; (1 found)
0x401bb1: pop rbp ; ret ; (1 found)
0x401d36: pop rbp ; ret ; (1 found)
0x401d55: pop rbp ; ret ; (1 found)
0x401e1c: pop rbp ; ret ; (1 found)
0x401e74: pop rbp ; ret ; (1 found)
0x401eae: pop rbp ; ret ; (1 found)
0x401ebd: pop rbp ; ret ; (1 found)
0x401ec5: pop rbp ; ret ; (1 found)
0x401edb: pop rbp ; ret ; (1 found)
0x401eed: pop rbp ; ret ; (1 found)
0x401fb5: pop rbp ; ret ; (1 found)
0x40257d: pop rbp ; ret ; (1 found)
0x4026ac: pop rbp ; ret ; (1 found)
0x402724: pop rbp ; ret ; (1 found)
0x403606: pop rbp ; ret ; (1 found)
0x403682: pop rbp ; ret ; (1 found)
0x4038a7: pop rbp ; ret ; (1 found)
0x403912: pop rbp ; ret ; (1 found)
0x40392c: pop rbp ; ret ; (1 found)
0x403a3a: pop rbp ; ret ; (1 found)
0x403ac1: pop rbp ; ret ; (1 found)
0x403cd2: pop rbp ; ret ; (1 found)
0x40401f: pop rbp ; ret ; (1 found)
0x4046bf: pop rbp ; ret ; (1 found)
0x404777: pop rbp ; ret ; (1 found)
0x404789: pop rbp ; ret ; (1 found)
0x40479a: pop rbp ; ret ; (1 found)
0x4047e7: pop rbp ; ret ; (1 found)
0x4047f9: pop rbp ; ret ; (1 found)
0x40480a: pop rbp ; ret ; (1 found)
0x404a37: pop rbp ; ret ; (1 found)
0x404b10: pop rbp ; ret ; (1 found)
0x404bca: pop rbp ; ret ; (1 found)
0x404c33: pop rbp ; ret ; (1 found)
0x404dcd: pop rbp ; ret ; (1 found)
0x404f4b: pop rbp ; ret ; (1 found)
0x40504d: pop rbp ; ret ; (1 found)
0x4050dd: pop rbp ; ret ; (1 found)
0x4054a1: pop rbp ; ret ; (1 found)
0x405bf9: pop rbp ; ret ; (1 found)
0x405e6b: pop rbp ; ret ; (1 found)
0x405e8d: pop rbp ; ret ; (1 found)
0x40618d: pop rbp ; ret ; (1 found)
0x4063df: pop rbp ; ret ; (1 found)
0x406450: pop rbp ; ret ; (1 found)
0x4064e6: pop rbp ; ret ; (1 found)
0x406503: pop rbp ; ret ; (1 found)
0x406649: pop rbp ; ret ; (1 found)
0x406686: pop rbp ; ret ; (1 found)
0x406791: pop rbp ; ret ; (1 found)
0x4069d6: pop rbp ; ret ; (1 found)
0x406af2: pop rbp ; ret ; (1 found)
0x406ce9: pop rbp ; ret ; (1 found)
0x406fea: pop rbp ; ret ; (1 found)
0x407095: pop rbp ; ret ; (1 found)
0x4071c5: pop rbp ; ret ; (1 found)
0x4072be: pop rbp ; ret ; (1 found)
0x407340: pop rbp ; ret ; (1 found)
0x40737c: pop rbp ; ret ; (1 found)
0x4073ac: pop rbp ; ret ; (1 found)
0x407414: pop rbp ; ret ; (1 found)
0x407438: pop rbp ; ret ; (1 found)
0x40754d: pop rbp ; ret ; (1 found)
0x4075a7: pop rbp ; ret ; (1 found)
0x407690: pop rbp ; ret ; (1 found)
0x407aad: pop rbp ; ret ; (1 found)
0x407b7d: pop rbp ; ret ; (1 found)
0x407eb6: pop rbp ; ret ; (1 found)
0x407f40: pop rbp ; ret ; (1 found)
0x40804d: pop rbp ; ret ; (1 found)
0x4080de: pop rbp ; ret ; (1 found)
0x4082f6: pop rbp ; ret ; (1 found)
0x4084cb: pop rbp ; ret ; (1 found)
0x408745: pop rbp ; ret ; (1 found)
0x408aec: pop rbp ; ret ; (1 found)
0x408f8d: pop rbp ; ret ; (1 found)
0x4091dc: pop rbp ; ret ; (1 found)
0x40930e: pop rbp ; ret ; (1 found)
0x40932c: pop rbp ; ret ; (1 found)
0x4094b3: pop rbp ; ret ; (1 found)
0x409512: pop rbp ; ret ; (1 found)
0x40952a: pop rbp ; ret ; (1 found)
0x40955c: pop rbp ; ret ; (1 found)
0x40964c: pop rbp ; ret ; (1 found)
0x40975d: pop rbp ; ret ; (1 found)
0x40986d: pop rbp ; ret ; (1 found)
0x409aec: pop rbp ; ret ; (1 found)
0x409b4e: pop rbp ; ret ; (1 found)
0x409b87: pop rbp ; ret ; (1 found)
0x409edd: pop rbp ; ret ; (1 found)
0x409ef6: pop rbp ; ret ; (1 found)
0x40a555: pop rbp ; ret ; (1 found)
0x40a5bd: pop rbp ; ret ; (1 found)
0x40a8d2: pop rbp ; ret ; (1 found)
0x40acd5: pop rbp ; ret ; (1 found)
0x40ad5f: pop rbp ; ret ; (1 found)
0x40add9: pop rbp ; ret ; (1 found)
0x40ae8c: pop rbp ; ret ; (1 found)
0x40aeb7: pop rbp ; ret ; (1 found)
0x40b04a: pop rbp ; ret ; (1 found)
0x40b3f4: pop rbp ; ret ; (1 found)
0x40b848: pop rbp ; ret ; (1 found)
0x40b858: pop rbp ; ret ; (1 found)
0x40b9c3: pop rbp ; ret ; (1 found)
0x40b9e5: pop rbp ; ret ; (1 found)
0x40ba20: pop rbp ; ret ; (1 found)
0x40ba9d: pop rbp ; ret ; (1 found)
0x40baf6: pop rbp ; ret ; (1 found)
0x40bba1: pop rbp ; ret ; (1 found)
0x40bbbb: pop rbp ; ret ; (1 found)
0x40bcac: pop rbp ; ret ; (1 found)
0x40bd5c: pop rbp ; ret ; (1 found)
0x40c2f1: pop rbp ; ret ; (1 found)
0x40c3e7: pop rbp ; ret ; (1 found)
0x40c580: pop rbp ; ret ; (1 found)
0x40c6d6: pop rbp ; ret ; (1 found)
0x40c8d7: pop rbp ; ret ; (1 found)
0x40c954: pop rbp ; ret ; (1 found)
0x40ca45: pop rbp ; ret ; (1 found)
0x40cab4: pop rbp ; ret ; (1 found)
0x40cb37: pop rbp ; ret ; (1 found)
0x40cb49: pop rbp ; ret ; (1 found)
0x40cc87: pop rbp ; ret ; (1 found)
0x40ce02: pop rbp ; ret ; (1 found)
0x40cf8f: pop rbp ; ret ; (1 found)
0x40cff7: pop rbp ; ret ; (1 found)
0x40d127: pop rbp ; ret ; (1 found)
0x40d32a: pop rbp ; ret ; (1 found)
0x40d3ad: pop rbp ; ret ; (1 found)
0x40d4e1: pop rbp ; ret ; (1 found)
0x40d4fc: pop rbp ; ret ; (1 found)
0x40d5ad: pop rbp ; ret ; (1 found)
0x40d682: pop rbp ; ret ; (1 found)
0x40d73c: pop rbp ; ret ; (1 found)
0x40d89c: pop rbp ; ret ; (1 found)
0x40da6f: pop rbp ; ret ; (1 found)
0x40ddbd: pop rbp ; ret ; (1 found)
0x40df1b: pop rbp ; ret ; (1 found)
0x40df4b: pop rbp ; ret ; (1 found)
0x40e079: pop rbp ; ret ; (1 found)
0x40e361: pop rbp ; ret ; (1 found)
0x40e899: pop rbp ; ret ; (1 found)
0x40ebbb: pop rbp ; ret ; (1 found)
0x40ec7f: pop rbp ; ret ; (1 found)
0x40ed5e: pop rbp ; ret ; (1 found)
0x40eeec: pop rbp ; ret ; (1 found)
0x40ef90: pop rbp ; ret ; (1 found)
0x40f229: pop rbp ; ret ; (1 found)
0x40f372: pop rbp ; ret ; (1 found)
0x40f3f0: pop rbp ; ret ; (1 found)
0x40f4ef: pop rbp ; ret ; (1 found)
0x40f540: pop rbp ; ret ; (1 found)
0x40f59a: pop rbp ; ret ; (1 found)
0x40f6c9: pop rbp ; ret ; (1 found)
0x40f88c: pop rbp ; ret ; (1 found)
0x40fb3e: pop rbp ; ret ; (1 found)
0x40fcb5: pop rbp ; ret ; (1 found)
0x40fce2: pop rbp ; ret ; (1 found)
0x40fd60: pop rbp ; ret ; (1 found)
0x4100bd: pop rbp ; ret ; (1 found)
0x410156: pop rbp ; ret ; (1 found)
0x410165: pop rbp ; ret ; (1 found)
0x4102da: pop rbp ; ret ; (1 found)
0x4104cc: pop rbp ; ret ; (1 found)
0x410785: pop rbp ; ret ; (1 found)
0x4107b5: pop rbp ; ret ; (1 found)
0x4108b9: pop rbp ; ret ; (1 found)
0x41093c: pop rbp ; ret ; (1 found)
0x410c62: pop rbp ; ret ; (1 found)
0x410cac: pop rbp ; ret ; (1 found)
0x410cf0: pop rbp ; ret ; (1 found)
0x410d18: pop rbp ; ret ; (1 found)
0x410f7c: pop rbp ; ret ; (1 found)
0x4111d6: pop rbp ; ret ; (1 found)
0x41135e: pop rbp ; ret ; (1 found)
0x411468: pop rbp ; ret ; (1 found)
0x411500: pop rbp ; ret ; (1 found)
0x411530: pop rbp ; ret ; (1 found)
0x4116d1: pop rbp ; ret ; (1 found)
0x411712: pop rbp ; ret ; (1 found)
0x41183c: pop rbp ; ret ; (1 found)
0x411a5b: pop rbp ; ret ; (1 found)
0x411eb0: pop rbp ; ret ; (1 found)
0x411ee0: pop rbp ; ret ; (1 found)
0x411fa8: pop rbp ; ret ; (1 found)
0x4120f7: pop rbp ; ret ; (1 found)
0x412118: pop rbp ; ret ; (1 found)
0x4121d1: pop rbp ; ret ; (1 found)
0x4122b2: pop rbp ; ret ; (1 found)
0x41231d: pop rbp ; ret ; (1 found)
0x4123cd: pop rbp ; ret ; (1 found)
0x412432: pop rbp ; ret ; (1 found)
0x4126b2: pop rbp ; ret ; (1 found)
0x41272d: pop rbp ; ret ; (1 found)
0x412e93: pop rbp ; ret ; (1 found)
0x412ebb: pop rbp ; ret ; (1 found)
0x412fed: pop rbp ; ret ; (1 found)
0x41300f: pop rbp ; ret ; (1 found)
0x413066: pop rbp ; ret ; (1 found)
0x4130c7: pop rbp ; ret ; (1 found)
0x413144: pop rbp ; ret ; (1 found)
0x41323d: pop rbp ; ret ; (1 found)
0x413302: pop rbp ; ret ; (1 found)
0x413317: pop rbp ; ret ; (1 found)
0x41348c: pop rbp ; ret ; (1 found)
0x41349e: pop rbp ; ret ; (1 found)
0x413607: pop rbp ; ret ; (1 found)
0x4136ce: pop rbp ; ret ; (1 found)
0x4137e2: pop rbp ; ret ; (1 found)
0x41393a: pop rbp ; ret ; (1 found)
0x413b2a: pop rbp ; ret ; (1 found)
0x413dc8: pop rbp ; ret ; (1 found)
0x4144ff: pop rbp ; ret ; (1 found)
0x41451b: pop rbp ; ret ; (1 found)
0x414770: pop rbp ; ret ; (1 found)
0x4149d4: pop rbp ; ret ; (1 found)
0x414c19: pop rbp ; ret ; (1 found)
0x414df5: pop rbp ; ret ; (1 found)
0x414e85: pop rbp ; ret ; (1 found)
0x414eb4: pop rbp ; ret ; (1 found)
0x414ec5: pop rbp ; ret ; (1 found)
0x414f8d: pop rbp ; ret ; (1 found)
0x414fd2: pop rbp ; ret ; (1 found)
0x4152eb: pop rbp ; ret ; (1 found)
0x41532e: pop rbp ; ret ; (1 found)
0x415399: pop rbp ; ret ; (1 found)
0x415579: pop rbp ; ret ; (1 found)
0x41569d: pop rbp ; ret ; (1 found)
0x41570b: pop rbp ; ret ; (1 found)
0x415784: pop rbp ; ret ; (1 found)
0x415855: pop rbp ; ret ; (1 found)
0x415b88: pop rbp ; ret ; (1 found)
0x415c90: pop rbp ; ret ; (1 found)
0x415cc0: pop rbp ; ret ; (1 found)
0x415cf9: pop rbp ; ret ; (1 found)
0x415d50: pop rbp ; ret ; (1 found)
0x415d7d: pop rbp ; ret ; (1 found)
0x415f49: pop rbp ; ret ; (1 found)
0x415f50: pop rbp ; ret ; (1 found)
0x41615d: pop rbp ; ret ; (1 found)
0x41617f: pop rbp ; ret ; (1 found)
0x4163ad: pop rbp ; ret ; (1 found)
0x4163cb: pop rbp ; ret ; (1 found)
0x416700: pop rbp ; ret ; (1 found)
0x41687f: pop rbp ; ret ; (1 found)
0x416922: pop rbp ; ret ; (1 found)
0x416b8d: pop rbp ; ret ; (1 found)
0x416baa: pop rbp ; ret ; (1 found)
0x416ccf: pop rbp ; ret ; (1 found)
0x416dcd: pop rbp ; ret ; (1 found)
0x416e17: pop rbp ; ret ; (1 found)
0x416f61: pop rbp ; ret ; (1 found)
0x417238: pop rbp ; ret ; (1 found)
0x4172be: pop rbp ; ret ; (1 found)
0x41739c: pop rbp ; ret ; (1 found)
0x4174e3: pop rbp ; ret ; (1 found)
0x417549: pop rbp ; ret ; (1 found)
0x41790b: pop rbp ; ret ; (1 found)
0x4179a6: pop rbp ; ret ; (1 found)
0x4179ef: pop rbp ; ret ; (1 found)
0x417d33: pop rbp ; ret ; (1 found)
0x417d5a: pop rbp ; ret ; (1 found)
0x417e43: pop rbp ; ret ; (1 found)
0x4180b0: pop rbp ; ret ; (1 found)
0x41830c: pop rbp ; ret ; (1 found)
0x4188b2: pop rbp ; ret ; (1 found)
0x418ca1: pop rbp ; ret ; (1 found)
0x419079: pop rbp ; ret ; (1 found)
0x419229: pop rbp ; ret ; (1 found)
0x419465: pop rbp ; ret ; (1 found)
0x419957: pop rbp ; ret ; (1 found)
0x419d23: pop rbp ; ret ; (1 found)
0x41a0aa: pop rbp ; ret ; (1 found)
0x41a1f4: pop rbp ; ret ; (1 found)
0x41a8d0: pop rbp ; ret ; (1 found)
0x41a985: pop rbp ; ret ; (1 found)
0x41aae6: pop rbp ; ret ; (1 found)
0x41ab20: pop rbp ; ret ; (1 found)
0x41ace3: pop rbp ; ret ; (1 found)
0x41af7e: pop rbp ; ret ; (1 found)
0x41b2c1: pop rbp ; ret ; (1 found)
0x41b5ce: pop rbp ; ret ; (1 found)
0x41ba80: pop rbp ; ret ; (1 found)
0x41bb50: pop rbp ; ret ; (1 found)
0x41bce0: pop rbp ; ret ; (1 found)
0x41bedf: pop rbp ; ret ; (1 found)
0x41bfd9: pop rbp ; ret ; (1 found)
0x41c0cb: pop rbp ; ret ; (1 found)
0x41c296: pop rbp ; ret ; (1 found)
0x41c2ff: pop rbp ; ret ; (1 found)
0x41c36c: pop rbp ; ret ; (1 found)
0x41c5de: pop rbp ; ret ; (1 found)
0x41c612: pop rbp ; ret ; (1 found)
0x41c688: pop rbp ; ret ; (1 found)
0x41c702: pop rbp ; ret ; (1 found)
0x41c791: pop rbp ; ret ; (1 found)
0x41c7f7: pop rbp ; ret ; (1 found)
0x41c86a: pop rbp ; ret ; (1 found)
0x41cb58: pop rbp ; ret ; (1 found)
0x41cba2: pop rbp ; ret ; (1 found)
0x41cc13: pop rbp ; ret ; (1 found)
0x41cf67: pop rbp ; ret ; (1 found)
0x41d1d5: pop rbp ; ret ; (1 found)
0x41d2e2: pop rbp ; ret ; (1 found)
0x41d492: pop rbp ; ret ; (1 found)
0x41d5a9: pop rbp ; ret ; (1 found)
0x41d5c0: pop rbp ; ret ; (1 found)
0x41d61f: pop rbp ; ret ; (1 found)
0x41d6ee: pop rbp ; ret ; (1 found)
0x41d9ac: pop rbp ; ret ; (1 found)
0x41da28: pop rbp ; ret ; (1 found)
0x41daf1: pop rbp ; ret ; (1 found)
0x41dcdb: pop rbp ; ret ; (1 found)
0x41dd9d: pop rbp ; ret ; (1 found)
0x41ddbd: pop rbp ; ret ; (1 found)
0x41de3c: pop rbp ; ret ; (1 found)
0x41e233: pop rbp ; ret ; (1 found)
0x41e24b: pop rbp ; ret ; (1 found)
0x41e274: pop rbp ; ret ; (1 found)
0x41e285: pop rbp ; ret ; (1 found)
0x41e2b4: pop rbp ; ret ; (1 found)
0x41e2c5: pop rbp ; ret ; (1 found)
0x41e2f4: pop rbp ; ret ; (1 found)
0x41e305: pop rbp ; ret ; (1 found)
0x41e36c: pop rbp ; ret ; (1 found)
0x41e401: pop rbp ; ret ; (1 found)
0x41e483: pop rbp ; ret ; (1 found)
0x41e4ce: pop rbp ; ret ; (1 found)
0x41e570: pop rbp ; ret ; (1 found)
0x41e6ba: pop rbp ; ret ; (1 found)
0x41ea1d: pop rbp ; ret ; (1 found)
0x41eb61: pop rbp ; ret ; (1 found)
0x41ecf6: pop rbp ; ret ; (1 found)
0x41ed0c: pop rbp ; ret ; (1 found)
0x41ed2c: pop rbp ; ret ; (1 found)
0x41edb2: pop rbp ; ret ; (1 found)
0x41f580: pop rbp ; ret ; (1 found)
0x41f71d: pop rbp ; ret ; (1 found)
0x41faf5: pop rbp ; ret ; (1 found)
0x41fc13: pop rbp ; ret ; (1 found)
0x41fe1f: pop rbp ; ret ; (1 found)
0x41fe43: pop rbp ; ret ; (1 found)
0x42023e: pop rbp ; ret ; (1 found)
0x420469: pop rbp ; ret ; (1 found)
0x420470: pop rbp ; ret ; (1 found)
0x4205ef: pop rbp ; ret ; (1 found)
0x420665: pop rbp ; ret ; (1 found)
0x4207a0: pop rbp ; ret ; (1 found)
0x420808: pop rbp ; ret ; (1 found)
0x420943: pop rbp ; ret ; (1 found)
0x420961: pop rbp ; ret ; (1 found)
0x42097c: pop rbp ; ret ; (1 found)
0x420a0e: pop rbp ; ret ; (1 found)
0x420bb0: pop rbp ; ret ; (1 found)
0x420d68: pop rbp ; ret ; (1 found)
0x421198: pop rbp ; ret ; (1 found)
0x4213a4: pop rbp ; ret ; (1 found)
0x4213d3: pop rbp ; ret ; (1 found)
0x4213fe: pop rbp ; ret ; (1 found)
0x42141e: pop rbp ; ret ; (1 found)
0x421487: pop rbp ; ret ; (1 found)
0x42149e: pop rbp ; ret ; (1 found)
0x421535: pop rbp ; ret ; (1 found)
0x4215e4: pop rbp ; ret ; (1 found)
0x4217ac: pop rbp ; ret ; (1 found)
0x4217cf: pop rbp ; ret ; (1 found)
0x421993: pop rbp ; ret ; (1 found)
0x421ab9: pop rbp ; ret ; (1 found)
0x421b84: pop rbp ; ret ; (1 found)
0x421e11: pop rbp ; ret ; (1 found)
0x421ebb: pop rbp ; ret ; (1 found)
0x421ecc: pop rbp ; ret ; (1 found)
0x422020: pop rbp ; ret ; (1 found)
0x422305: pop rbp ; ret ; (1 found)
0x42231e: pop rbp ; ret ; (1 found)
0x4224ee: pop rbp ; ret ; (1 found)
0x4225f3: pop rbp ; ret ; (1 found)
0x422604: pop rbp ; ret ; (1 found)
0x422668: pop rbp ; ret ; (1 found)
0x42268e: pop rbp ; ret ; (1 found)
0x422837: pop rbp ; ret ; (1 found)
0x422acf: pop rbp ; ret ; (1 found)
0x422b76: pop rbp ; ret ; (1 found)
0x422c42: pop rbp ; ret ; (1 found)
0x422caa: pop rbp ; ret ; (1 found)
0x422ccc: pop rbp ; ret ; (1 found)
0x422d56: pop rbp ; ret ; (1 found)
0x422d67: pop rbp ; ret ; (1 found)
0x422e57: pop rbp ; ret ; (1 found)
0x422ec1: pop rbp ; ret ; (1 found)
0x423079: pop rbp ; ret ; (1 found)
0x423080: pop rbp ; ret ; (1 found)
0x42328a: pop rbp ; ret ; (1 found)
0x42329b: pop rbp ; ret ; (1 found)
0x423450: pop rbp ; ret ; (1 found)
0x4234bd: pop rbp ; ret ; (1 found)
0x4234ff: pop rbp ; ret ; (1 found)
0x423560: pop rbp ; ret ; (1 found)
0x42377a: pop rbp ; ret ; (1 found)
0x423802: pop rbp ; ret ; (1 found)
0x423868: pop rbp ; ret ; (1 found)
0x42392b: pop rbp ; ret ; (1 found)
0x4239b8: pop rbp ; ret ; (1 found)
0x4239d9: pop rbp ; ret ; (1 found)
0x4239fa: pop rbp ; ret ; (1 found)
0x423abc: pop rbp ; ret ; (1 found)
0x423adb: pop rbp ; ret ; (1 found)
0x423c66: pop rbp ; ret ; (1 found)
0x423d3c: pop rbp ; ret ; (1 found)
0x423e20: pop rbp ; ret ; (1 found)
0x424016: pop rbp ; ret ; (1 found)
0x4240b0: pop rbp ; ret ; (1 found)
0x4240d8: pop rbp ; ret ; (1 found)
0x424405: pop rbp ; ret ; (1 found)
0x424594: pop rbp ; ret ; (1 found)
0x4245e9: pop rbp ; ret ; (1 found)
0x4247b5: pop rbp ; ret ; (1 found)
0x4248db: pop rbp ; ret ; (1 found)
0x424a60: pop rbp ; ret ; (1 found)
0x424a90: pop rbp ; ret ; (1 found)
0x424b21: pop rbp ; ret ; (1 found)
0x424bb0: pop rbp ; ret ; (1 found)
0x424d59: pop rbp ; ret ; (1 found)
0x424d60: pop rbp ; ret ; (1 found)
0x4250de: pop rbp ; ret ; (1 found)
0x4251ae: pop rbp ; ret ; (1 found)
0x42538d: pop rbp ; ret ; (1 found)
0x4254c4: pop rbp ; ret ; (1 found)
0x426a78: pop rbp ; ret ; (1 found)
0x426cc7: pop rbp ; ret ; (1 found)
0x426e58: pop rbp ; ret ; (1 found)
0x426e99: pop rbp ; ret ; (1 found)
0x426f2f: pop rbp ; ret ; (1 found)
0x426f93: pop rbp ; ret ; (1 found)
0x426fd4: pop rbp ; ret ; (1 found)
0x42702d: pop rbp ; ret ; (1 found)
0x42705d: pop rbp ; ret ; (1 found)
0x427420: pop rbp ; ret ; (1 found)
0x4274fc: pop rbp ; ret ; (1 found)
0x427533: pop rbp ; ret ; (1 found)
0x42755e: pop rbp ; ret ; (1 found)
0x4275dc: pop rbp ; ret ; (1 found)
0x427613: pop rbp ; ret ; (1 found)
0x42763e: pop rbp ; ret ; (1 found)
0x4276e0: pop rbp ; ret ; (1 found)
0x42774a: pop rbp ; ret ; (1 found)
0x42778c: pop rbp ; ret ; (1 found)
0x427831: pop rbp ; ret ; (1 found)
0x427896: pop rbp ; ret ; (1 found)
0x4278ce: pop rbp ; ret ; (1 found)
0x427984: pop rbp ; ret ; (1 found)
0x427af6: pop rbp ; ret ; (1 found)
0x427c26: pop rbp ; ret ; (1 found)
0x418bcf: pop rbp ; retn 0xFFFF ; (1 found)
0x41f769: pop rbp ; setbe al ; ret ; (1 found)
0x403ac0: pop rbx ; pop rbp ; ret ; (1 found)
0x427749: pop rbx ; pop rbp ; ret ; (1 found)
0x42778b: pop rbx ; pop rbp ; ret ; (1 found)
0x427830: pop rbx ; pop rbp ; ret ; (1 found)
0x427895: pop rbx ; pop rbp ; ret ; (1 found)
0x4278cd: pop rbx ; pop rbp ; ret ; (1 found)
0x400114: pop rbx ; ret ; (1 found)
0x4111f2: pop rbx ; ret ; (1 found)
0x41adb1: pop rbx ; retn 0xFFFF ; (1 found)
0x40190c: pop rdi ; leave ; ret ; (1 found)
0x4010b7: pop rdi ; pop rbp ; ret ; (1 found)
0x401157: pop rdi ; pop rbp ; ret ; (1 found)
0x401267: pop rdi ; pop rbp ; ret ; (1 found)
0x4013f0: pop rdi ; pop rbp ; ret ; (1 found)
0x4014cf: pop rdi ; pop rbp ; ret ; (1 found)
0x40257c: pop rdi ; pop rbp ; ret ; (1 found)
0x4026ab: pop rdi ; pop rbp ; ret ; (1 found)
0x40401e: pop rdi ; pop rbp ; ret ; (1 found)
0x4046be: pop rdi ; pop rbp ; ret ; (1 found)
0x404a36: pop rdi ; pop rbp ; ret ; (1 found)
0x404b0f: pop rdi ; pop rbp ; ret ; (1 found)
0x4054a0: pop rdi ; pop rbp ; ret ; (1 found)
0x405bf8: pop rdi ; pop rbp ; ret ; (1 found)
0x40618c: pop rdi ; pop rbp ; ret ; (1 found)
0x4069d5: pop rdi ; pop rbp ; ret ; (1 found)
0x406af1: pop rdi ; pop rbp ; ret ; (1 found)
0x406ce8: pop rdi ; pop rbp ; ret ; (1 found)
0x4071c4: pop rdi ; pop rbp ; ret ; (1 found)
0x40754c: pop rdi ; pop rbp ; ret ; (1 found)
0x4075a6: pop rdi ; pop rbp ; ret ; (1 found)
0x40768f: pop rdi ; pop rbp ; ret ; (1 found)
0x4082f5: pop rdi ; pop rbp ; ret ; (1 found)
0x4084ca: pop rdi ; pop rbp ; ret ; (1 found)
0x408aeb: pop rdi ; pop rbp ; ret ; (1 found)
0x408f8c: pop rdi ; pop rbp ; ret ; (1 found)
0x4094b2: pop rdi ; pop rbp ; ret ; (1 found)
0x409511: pop rdi ; pop rbp ; ret ; (1 found)
0x409529: pop rdi ; pop rbp ; ret ; (1 found)
0x40955b: pop rdi ; pop rbp ; ret ; (1 found)
0x40964b: pop rdi ; pop rbp ; ret ; (1 found)
0x40986c: pop rdi ; pop rbp ; ret ; (1 found)
0x40a8d1: pop rdi ; pop rbp ; ret ; (1 found)
0x40acd4: pop rdi ; pop rbp ; ret ; (1 found)
0x40add8: pop rdi ; pop rbp ; ret ; (1 found)
0x40ae8b: pop rdi ; pop rbp ; ret ; (1 found)
0x40aeb6: pop rdi ; pop rbp ; ret ; (1 found)
0x40b049: pop rdi ; pop rbp ; ret ; (1 found)
0x40b3f3: pop rdi ; pop rbp ; ret ; (1 found)
0x40c2f0: pop rdi ; pop rbp ; ret ; (1 found)
0x40c3e6: pop rdi ; pop rbp ; ret ; (1 found)
0x40ce01: pop rdi ; pop rbp ; ret ; (1 found)
0x40d126: pop rdi ; pop rbp ; ret ; (1 found)
0x40d4e0: pop rdi ; pop rbp ; ret ; (1 found)
0x40d4fb: pop rdi ; pop rbp ; ret ; (1 found)
0x40da6e: pop rdi ; pop rbp ; ret ; (1 found)
0x40df1a: pop rdi ; pop rbp ; ret ; (1 found)
0x40df4a: pop rdi ; pop rbp ; ret ; (1 found)
0x40e078: pop rdi ; pop rbp ; ret ; (1 found)
0x40e360: pop rdi ; pop rbp ; ret ; (1 found)
0x40e898: pop rdi ; pop rbp ; ret ; (1 found)
0x40ec7e: pop rdi ; pop rbp ; ret ; (1 found)
0x40ed5d: pop rdi ; pop rbp ; ret ; (1 found)
0x40f88b: pop rdi ; pop rbp ; ret ; (1 found)
0x40fcb4: pop rdi ; pop rbp ; ret ; (1 found)
0x40fce1: pop rdi ; pop rbp ; ret ; (1 found)
0x40fd5f: pop rdi ; pop rbp ; ret ; (1 found)
0x4102d9: pop rdi ; pop rbp ; ret ; (1 found)
0x410f7b: pop rdi ; pop rbp ; ret ; (1 found)
0x4111d5: pop rdi ; pop rbp ; ret ; (1 found)
0x4116d0: pop rdi ; pop rbp ; ret ; (1 found)
0x411711: pop rdi ; pop rbp ; ret ; (1 found)
0x4122b1: pop rdi ; pop rbp ; ret ; (1 found)
0x41231c: pop rdi ; pop rbp ; ret ; (1 found)
0x413939: pop rdi ; pop rbp ; ret ; (1 found)
0x413b29: pop rdi ; pop rbp ; ret ; (1 found)
0x413dc7: pop rdi ; pop rbp ; ret ; (1 found)
0x41476f: pop rdi ; pop rbp ; ret ; (1 found)
0x414c18: pop rdi ; pop rbp ; ret ; (1 found)
0x414df4: pop rdi ; pop rbp ; ret ; (1 found)
0x414f8c: pop rdi ; pop rbp ; ret ; (1 found)
0x414fd1: pop rdi ; pop rbp ; ret ; (1 found)
0x415854: pop rdi ; pop rbp ; ret ; (1 found)
0x41830b: pop rdi ; pop rbp ; ret ; (1 found)
0x419078: pop rdi ; pop rbp ; ret ; (1 found)
0x419228: pop rdi ; pop rbp ; ret ; (1 found)
0x419464: pop rdi ; pop rbp ; ret ; (1 found)
0x419956: pop rdi ; pop rbp ; ret ; (1 found)
0x419d22: pop rdi ; pop rbp ; ret ; (1 found)
0x41a1f3: pop rdi ; pop rbp ; ret ; (1 found)
0x41aae5: pop rdi ; pop rbp ; ret ; (1 found)
0x41ab1f: pop rdi ; pop rbp ; ret ; (1 found)
0x41ace2: pop rdi ; pop rbp ; ret ; (1 found)
0x41af7d: pop rdi ; pop rbp ; ret ; (1 found)
0x41bb4f: pop rdi ; pop rbp ; ret ; (1 found)
0x41bcdf: pop rdi ; pop rbp ; ret ; (1 found)
0x41bede: pop rdi ; pop rbp ; ret ; (1 found)
0x41c295: pop rdi ; pop rbp ; ret ; (1 found)
0x41c5dd: pop rdi ; pop rbp ; ret ; (1 found)
0x41c611: pop rdi ; pop rbp ; ret ; (1 found)
0x41c869: pop rdi ; pop rbp ; ret ; (1 found)
0x41cc12: pop rdi ; pop rbp ; ret ; (1 found)
0x41cf66: pop rdi ; pop rbp ; ret ; (1 found)
0x41d2e1: pop rdi ; pop rbp ; ret ; (1 found)
0x41d491: pop rdi ; pop rbp ; ret ; (1 found)
0x41d61e: pop rdi ; pop rbp ; ret ; (1 found)
0x41d6ed: pop rdi ; pop rbp ; ret ; (1 found)
0x41daf0: pop rdi ; pop rbp ; ret ; (1 found)
0x41de3b: pop rdi ; pop rbp ; ret ; (1 found)
0x41f57f: pop rdi ; pop rbp ; ret ; (1 found)
0x41f71c: pop rdi ; pop rbp ; ret ; (1 found)
0x41fc12: pop rdi ; pop rbp ; ret ; (1 found)
0x41fe1e: pop rdi ; pop rbp ; ret ; (1 found)
0x41fe42: pop rdi ; pop rbp ; ret ; (1 found)
0x42023d: pop rdi ; pop rbp ; ret ; (1 found)
0x4205ee: pop rdi ; pop rbp ; ret ; (1 found)
0x420664: pop rdi ; pop rbp ; ret ; (1 found)
0x420942: pop rdi ; pop rbp ; ret ; (1 found)
0x420960: pop rdi ; pop rbp ; ret ; (1 found)
0x42097b: pop rdi ; pop rbp ; ret ; (1 found)
0x420a0d: pop rdi ; pop rbp ; ret ; (1 found)
0x420baf: pop rdi ; pop rbp ; ret ; (1 found)
0x420d67: pop rdi ; pop rbp ; ret ; (1 found)
0x421b83: pop rdi ; pop rbp ; ret ; (1 found)
0x421e10: pop rdi ; pop rbp ; ret ; (1 found)
0x42201f: pop rdi ; pop rbp ; ret ; (1 found)
0x422667: pop rdi ; pop rbp ; ret ; (1 found)
0x42268d: pop rdi ; pop rbp ; ret ; (1 found)
0x422836: pop rdi ; pop rbp ; ret ; (1 found)
0x422c41: pop rdi ; pop rbp ; ret ; (1 found)
0x423289: pop rdi ; pop rbp ; ret ; (1 found)
0x42329a: pop rdi ; pop rbp ; ret ; (1 found)
0x423d3b: pop rdi ; pop rbp ; ret ; (1 found)
0x423e1f: pop rdi ; pop rbp ; ret ; (1 found)
0x4247b4: pop rdi ; pop rbp ; ret ; (1 found)
0x42538c: pop rdi ; pop rbp ; ret ; (1 found)
0x426a77: pop rdi ; pop rbp ; ret ; (1 found)
0x426e57: pop rdi ; pop rbp ; ret ; (1 found)
0x427af5: pop rdi ; pop rbp ; ret ; (1 found)
0x4111f1: pop rdi ; pop rbx ; ret ; (1 found)
0x406eb1: pop rdx ; leave ; ret ; (1 found)
0x401e1b: pop rsi ; pop rbp ; ret ; (1 found)
0x401e73: pop rsi ; pop rbp ; ret ; (1 found)
0x403605: pop rsi ; pop rbp ; ret ; (1 found)
0x4038a6: pop rsi ; pop rbp ; ret ; (1 found)
0x405e6a: pop rsi ; pop rbp ; ret ; (1 found)
0x405e8c: pop rsi ; pop rbp ; ret ; (1 found)
0x40644f: pop rsi ; pop rbp ; ret ; (1 found)
0x4064e5: pop rsi ; pop rbp ; ret ; (1 found)
0x406502: pop rsi ; pop rbp ; ret ; (1 found)
0x406790: pop rsi ; pop rbp ; ret ; (1 found)
0x406fe9: pop rsi ; pop rbp ; ret ; (1 found)
0x407094: pop rsi ; pop rbp ; ret ; (1 found)
0x407aac: pop rsi ; pop rbp ; ret ; (1 found)
0x407b7c: pop rsi ; pop rbp ; ret ; (1 found)
0x40ad5e: pop rsi ; pop rbp ; ret ; (1 found)
0x40ba1f: pop rsi ; pop rbp ; ret ; (1 found)
0x40baf5: pop rsi ; pop rbp ; ret ; (1 found)
0x40bba0: pop rsi ; pop rbp ; ret ; (1 found)
0x40bbba: pop rsi ; pop rbp ; ret ; (1 found)
0x40c8d6: pop rsi ; pop rbp ; ret ; (1 found)
0x40c953: pop rsi ; pop rbp ; ret ; (1 found)
0x40cc86: pop rsi ; pop rbp ; ret ; (1 found)
0x40cff6: pop rsi ; pop rbp ; ret ; (1 found)
0x40d3ac: pop rsi ; pop rbp ; ret ; (1 found)
0x40d5ac: pop rsi ; pop rbp ; ret ; (1 found)
0x40d89b: pop rsi ; pop rbp ; ret ; (1 found)
0x40f6c8: pop rsi ; pop rbp ; ret ; (1 found)
0x40fb3d: pop rsi ; pop rbp ; ret ; (1 found)
0x4100bc: pop rsi ; pop rbp ; ret ; (1 found)
0x4104cb: pop rsi ; pop rbp ; ret ; (1 found)
0x4108b8: pop rsi ; pop rbp ; ret ; (1 found)
0x41093b: pop rsi ; pop rbp ; ret ; (1 found)
0x41135d: pop rsi ; pop rbp ; ret ; (1 found)
0x411467: pop rsi ; pop rbp ; ret ; (1 found)
0x411a5a: pop rsi ; pop rbp ; ret ; (1 found)
0x4130c6: pop rsi ; pop rbp ; ret ; (1 found)
0x4166ff: pop rsi ; pop rbp ; ret ; (1 found)
0x416b8c: pop rsi ; pop rbp ; ret ; (1 found)
0x416ba9: pop rsi ; pop rbp ; ret ; (1 found)
0x4174e2: pop rsi ; pop rbp ; ret ; (1 found)
0x41a8cf: pop rsi ; pop rbp ; ret ; (1 found)
0x41bfd8: pop rsi ; pop rbp ; ret ; (1 found)
0x41c687: pop rsi ; pop rbp ; ret ; (1 found)
0x41c701: pop rsi ; pop rbp ; ret ; (1 found)
0x41d9ab: pop rsi ; pop rbp ; ret ; (1 found)
0x41da27: pop rsi ; pop rbp ; ret ; (1 found)
0x41e56f: pop rsi ; pop rbp ; ret ; (1 found)
0x41ea1c: pop rsi ; pop rbp ; ret ; (1 found)
0x421197: pop rsi ; pop rbp ; ret ; (1 found)
0x4217ab: pop rsi ; pop rbp ; ret ; (1 found)
0x4217ce: pop rsi ; pop rbp ; ret ; (1 found)
0x421eba: pop rsi ; pop rbp ; ret ; (1 found)
0x421ecb: pop rsi ; pop rbp ; ret ; (1 found)
0x422b75: pop rsi ; pop rbp ; ret ; (1 found)
0x423779: pop rsi ; pop rbp ; ret ; (1 found)
0x423801: pop rsi ; pop rbp ; ret ; (1 found)
0x426cc6: pop rsi ; pop rbp ; ret ; (1 found)
0x426f2e: pop rsi ; pop rbp ; ret ; (1 found)
0x41df2d: pop rsp ; mov rdi, qword [r13+0x30] ; call rax ; (1 found)
0x401520: pop rsp ; pop rbp ; ret ; (1 found)
0x404dcc: pop rsp ; pop rbp ; ret ; (1 found)
0x404f4a: pop rsp ; pop rbp ; ret ; (1 found)
0x406648: pop rsp ; pop rbp ; ret ; (1 found)
0x406685: pop rsp ; pop rbp ; ret ; (1 found)
0x40804c: pop rsp ; pop rbp ; ret ; (1 found)
0x4080dd: pop rsp ; pop rbp ; ret ; (1 found)
0x40930d: pop rsp ; pop rbp ; ret ; (1 found)
0x40932b: pop rsp ; pop rbp ; ret ; (1 found)
0x40a554: pop rsp ; pop rbp ; ret ; (1 found)
0x40a5bc: pop rsp ; pop rbp ; ret ; (1 found)
0x40b847: pop rsp ; pop rbp ; ret ; (1 found)
0x40b857: pop rsp ; pop rbp ; ret ; (1 found)
0x40b9c2: pop rsp ; pop rbp ; ret ; (1 found)
0x40b9e4: pop rsp ; pop rbp ; ret ; (1 found)
0x40bcab: pop rsp ; pop rbp ; ret ; (1 found)
0x40ca44: pop rsp ; pop rbp ; ret ; (1 found)
0x40cb36: pop rsp ; pop rbp ; ret ; (1 found)
0x40cb48: pop rsp ; pop rbp ; ret ; (1 found)
0x40ddbc: pop rsp ; pop rbp ; ret ; (1 found)
0x40f228: pop rsp ; pop rbp ; ret ; (1 found)
0x40f371: pop rsp ; pop rbp ; ret ; (1 found)
0x40f3ef: pop rsp ; pop rbp ; ret ; (1 found)
0x40f4ee: pop rsp ; pop rbp ; ret ; (1 found)
0x410cef: pop rsp ; pop rbp ; ret ; (1 found)
0x410d17: pop rsp ; pop rbp ; ret ; (1 found)
0x41183b: pop rsp ; pop rbp ; ret ; (1 found)
0x4120f6: pop rsp ; pop rbp ; ret ; (1 found)
0x412117: pop rsp ; pop rbp ; ret ; (1 found)
0x4123cc: pop rsp ; pop rbp ; ret ; (1 found)
0x412431: pop rsp ; pop rbp ; ret ; (1 found)
0x413143: pop rsp ; pop rbp ; ret ; (1 found)
0x4144fe: pop rsp ; pop rbp ; ret ; (1 found)
0x41451a: pop rsp ; pop rbp ; ret ; (1 found)
0x4149d3: pop rsp ; pop rbp ; ret ; (1 found)
0x41570a: pop rsp ; pop rbp ; ret ; (1 found)
0x415783: pop rsp ; pop rbp ; ret ; (1 found)
0x41687e: pop rsp ; pop rbp ; ret ; (1 found)
0x416921: pop rsp ; pop rbp ; ret ; (1 found)
0x416dcc: pop rsp ; pop rbp ; ret ; (1 found)
0x416e16: pop rsp ; pop rbp ; ret ; (1 found)
0x417d32: pop rsp ; pop rbp ; ret ; (1 found)
0x417d59: pop rsp ; pop rbp ; ret ; (1 found)
0x417e42: pop rsp ; pop rbp ; ret ; (1 found)
0x4180af: pop rsp ; pop rbp ; ret ; (1 found)
0x4188b1: pop rsp ; pop rbp ; ret ; (1 found)
0x418ca0: pop rsp ; pop rbp ; ret ; (1 found)
0x41a0a9: pop rsp ; pop rbp ; ret ; (1 found)
0x41c2fe: pop rsp ; pop rbp ; ret ; (1 found)
0x41c36b: pop rsp ; pop rbp ; ret ; (1 found)
0x41c7f6: pop rsp ; pop rbp ; ret ; (1 found)
0x41dcda: pop rsp ; pop rbp ; ret ; (1 found)
0x41e36b: pop rsp ; pop rbp ; ret ; (1 found)
0x41ecf5: pop rsp ; pop rbp ; ret ; (1 found)
0x41ed0b: pop rsp ; pop rbp ; ret ; (1 found)
0x41ed2b: pop rsp ; pop rbp ; ret ; (1 found)
0x4213a3: pop rsp ; pop rbp ; ret ; (1 found)
0x4213d2: pop rsp ; pop rbp ; ret ; (1 found)
0x421486: pop rsp ; pop rbp ; ret ; (1 found)
0x42149d: pop rsp ; pop rbp ; ret ; (1 found)
0x421534: pop rsp ; pop rbp ; ret ; (1 found)
0x4215e3: pop rsp ; pop rbp ; ret ; (1 found)
0x421ab8: pop rsp ; pop rbp ; ret ; (1 found)
0x422304: pop rsp ; pop rbp ; ret ; (1 found)
0x42231d: pop rsp ; pop rbp ; ret ; (1 found)
0x4225f2: pop rsp ; pop rbp ; ret ; (1 found)
0x422603: pop rsp ; pop rbp ; ret ; (1 found)
0x422ca9: pop rsp ; pop rbp ; ret ; (1 found)
0x422ccb: pop rsp ; pop rbp ; ret ; (1 found)
0x422ec0: pop rsp ; pop rbp ; ret ; (1 found)
0x424404: pop rsp ; pop rbp ; ret ; (1 found)
0x4254c3: pop rsp ; pop rbp ; ret ; (1 found)
0x42741f: pop rsp ; pop rbp ; ret ; (1 found)
0x4274fb: pop rsp ; pop rbp ; ret ; (1 found)
0x427532: pop rsp ; pop rbp ; ret ; (1 found)
0x42755d: pop rsp ; pop rbp ; ret ; (1 found)
0x4275db: pop rsp ; pop rbp ; ret ; (1 found)
0x427612: pop rsp ; pop rbp ; ret ; (1 found)
0x42763d: pop rsp ; pop rbp ; ret ; (1 found)
0x427983: pop rsp ; pop rbp ; ret ; (1 found)
0x424b0d: popcnt edi, edi ; mov eax, edi ; ret ; (1 found)
0x424b0b: popcnt rdi, rdi ; mov eax, edi ; ret ; (1 found)
0x424b0c: popcnt rdi, rdi ; mov eax, edi ; ret ; (1 found)
0x40bdf4: popfq ; pop rax ; ret ; (1 found)
0x4104db: push 0x00000000 ; add byte [rax-0x77], cl ; ret ; (1 found)
0x408c6a: push 0x48FFFFFF ; mov edi,  [rbp-0x70] ; call qword [rbp+0x10] ; (1 found)
0x423864: push 0x5D000013 ; ret ; (1 found)
0x41f29b: push 0x7840110F ; ret ; (1 found)
0x41f29c: push 0x7840110F ; ret ; (1 found)
0x41f012: push 0x7E0F4866 ; retn 0x110F ; (1 found)
0x41f013: push 0x7E0F4866 ; retn 0x110F ; (1 found)
0x4170da: push 0xFFFFFFFF ; pop rax ; ret ; (1 found)
0x41d2f9: push cs ; nop word [rax+rax+0x00] ; ret ; (1 found)
0x4169a7: push qword [rbp+0x06] ; ret ; (1 found)
0x424a04: push qword [rbp+0x09] ; xor eax, eax ; ret ; (1 found)
0x41706b: push qword [rbx+0x01] ; ret ; (1 found)
0x4170cc: push qword [rbx+0x01] ; ret ; (1 found)
0x40cb1a: push qword [rbx-0x77] ; ret ; (1 found)
0x418fc8: push qword [rsi+0x05] ; xor eax, eax ; ret ; (1 found)
0x4036c0: push rax ; dec  [rax-0x7B] ; retn 0x850F ; (1 found)
0x40450a: push rax ; mov edi, 0x0F480043 ; retn 0x8948 ; (1 found)
0x41c118: push rax ; mov rdi, qword [rax+0x08] ; call qword [rax] ; (1 found)
0x41f17c: push rax ; movups  [rax+0x78], xmm0 ; ret ; (1 found)
0x41f17d: push rax ; movups  [rax+0x78], xmm0 ; ret ; (1 found)
0x41e205: push rax ; push rdi ; retn 0xFF01 ; (1 found)
0x415942: push rax ; ret ; (1 found)
0x415943: push rax ; ret ; (1 found)
0x426af0: push rax ; sub rsp, 0x20 ; call r13 ; (1 found)
0x409754: push rbp ; mov rbp, rsp ; call 0x00000000 ; (1 found)
0x4170c0: push rbp ; mov rbp, rsp ; syscall ; (1 found)
0x425e33: push rbp ; or cl, ch ; ret ; (1 found)
0x41fba5: push rbp ; ror byte [rcx+rcx*4-0x0A], 0x41 ; call rdi ; (1 found)
0x42072f: push rbp ; sal byte [rax+rbp+0x48], 0x83 ; ret ; (1 found)
0x41f6ec: push rbx ; dec  [rax-0x007F] ; ret ; (1 found)
0x404b91: push rbx ; or byte [rax+0x01], cl ; retn 0x3949 ; (1 found)
0x41f7e8: push rbx ; xor eax, eax ; ret ; (1 found)
0x41352f: push rcx ; xor byte [rax-0x77], cl ; retn 0xC148 ; (1 found)
0x4069f5: push rdi ; ret ; (1 found)
0x41e206: push rdi ; retn 0xFF01 ; (1 found)
0x414978: push rsi ; ret ; (1 found)
0x402854: push rsi ; retn 0x40E0 ; (1 found)
0x409638: push rsp ; ret ; (1 found)
0x404860: push rsp ; test eax, 0x89480002 ; ret ; (1 found)
0x42313b: pushfq ; retn 0xB60F ; (1 found)
0x42314d: pushfq ; retn 0xB60F ; (1 found)
0x408049: rcr byte [rbx+0x41], 0x5C ; pop rbp ; ret ; (1 found)
0x40b9e1: rcr byte [rbx+0x41], 0x5C ; pop rbp ; ret ; (1 found)
0x40ca41: rcr byte [rbx+0x41], 0x5C ; pop rbp ; ret ; (1 found)
0x416e13: rcr byte [rbx+0x41], 0x5C ; pop rbp ; ret ; (1 found)
0x41c2fb: rcr byte [rbx+0x41], 0x5C ; pop rbp ; ret ; (1 found)
0x41e368: rcr byte [rbx+0x41], 0x5C ; pop rbp ; ret ; (1 found)
0x4213a0: rcr byte [rbx+0x41], 0x5C ; pop rbp ; ret ; (1 found)
0x42741c: rcr byte [rbx+0x41], 0x5C ; pop rbp ; ret ; (1 found)
0x4224b0: rep stosb ; mov rax, r8 ; ret ; (1 found)
0x4005c5: rep stosd ; ret ; (1 found)
0x4000dc: ret ; (1 found)
0x400115: ret ; (1 found)
0x40014c: ret ; (1 found)
0x40014d: ret ; (1 found)
0x400165: ret ; (1 found)
0x400166: ret ; (1 found)
0x400194: ret ; (1 found)
0x4001af: ret ; (1 found)
0x4004fe: ret ; (1 found)
0x400566: ret ; (1 found)
0x400571: ret ; (1 found)
0x4005c7: ret ; (1 found)
0x400631: ret ; (1 found)
0x400638: ret ; (1 found)
0x40063a: ret ; (1 found)
0x40065a: ret ; (1 found)
0x40067b: ret ; (1 found)
0x4006bc: ret ; (1 found)
0x400728: ret ; (1 found)
0x400909: ret ; (1 found)
0x4010b9: ret ; (1 found)
0x401159: ret ; (1 found)
0x401219: ret ; (1 found)
0x401269: ret ; (1 found)
0x401368: ret ; (1 found)
0x4013f2: ret ; (1 found)
0x4014d1: ret ; (1 found)
0x401522: ret ; (1 found)
0x401542: ret ; (1 found)
0x401543: ret ; (1 found)
0x40156e: ret ; (1 found)
0x40190e: ret ; (1 found)
0x401975: ret ; (1 found)
0x4019ce: ret ; (1 found)
0x401a06: ret ; (1 found)
0x401a62: ret ; (1 found)
0x401bb2: ret ; (1 found)
0x401d37: ret ; (1 found)
0x401d56: ret ; (1 found)
0x401dae: ret ; (1 found)
0x401dc5: ret ; (1 found)
0x401e1d: ret ; (1 found)
0x401e75: ret ; (1 found)
0x401eaf: ret ; (1 found)
0x401ebe: ret ; (1 found)
0x401ec6: ret ; (1 found)
0x401edc: ret ; (1 found)
0x401eee: ret ; (1 found)
0x401f87: ret ; (1 found)
0x401fb6: ret ; (1 found)
0x40209f: ret ; (1 found)
0x4023d1: ret ; (1 found)
0x4023de: ret ; (1 found)
0x402403: ret ; (1 found)
0x40257e: ret ; (1 found)
0x4026ad: ret ; (1 found)
0x402725: ret ; (1 found)
0x402751: ret ; (1 found)
0x402edc: ret ; (1 found)
0x402f2e: ret ; (1 found)
0x402f6f: ret ; (1 found)
0x402f7c: ret ; (1 found)
0x402f9f: ret ; (1 found)
0x402fa9: ret ; (1 found)
0x402fc7: ret ; (1 found)
0x402fd1: ret ; (1 found)
0x403008: ret ; (1 found)
0x40301b: ret ; (1 found)
0x403037: ret ; (1 found)
0x4030bb: ret ; (1 found)
0x403126: ret ; (1 found)
0x4031c6: ret ; (1 found)
0x4031c7: ret ; (1 found)
0x4031f2: ret ; (1 found)
0x4031fd: ret ; (1 found)
0x40321b: ret ; (1 found)
0x403273: ret ; (1 found)
0x403282: ret ; (1 found)
0x40328d: ret ; (1 found)
0x403301: ret ; (1 found)
0x40330c: ret ; (1 found)
0x403317: ret ; (1 found)
0x403322: ret ; (1 found)
0x40332d: ret ; (1 found)
0x403338: ret ; (1 found)
0x403343: ret ; (1 found)
0x40334e: ret ; (1 found)
0x403359: ret ; (1 found)
0x403374: ret ; (1 found)
0x403387: ret ; (1 found)
0x4033af: ret ; (1 found)
0x4033ba: ret ; (1 found)
0x4033bd: ret ; (1 found)
0x4033c5: ret ; (1 found)
0x4033d0: ret ; (1 found)
0x4033ed: ret ; (1 found)
0x403400: ret ; (1 found)
0x403418: ret ; (1 found)
0x40342c: ret ; (1 found)
0x403437: ret ; (1 found)
0x403475: ret ; (1 found)
0x403480: ret ; (1 found)
0x40348b: ret ; (1 found)
0x4034bf: ret ; (1 found)
0x4034d5: ret ; (1 found)
0x403607: ret ; (1 found)
0x40360a: ret ; (1 found)
0x403683: ret ; (1 found)
0x40380d: ret ; (1 found)
0x403817: ret ; (1 found)
0x4038a8: ret ; (1 found)
0x403913: ret ; (1 found)
0x40392d: ret ; (1 found)
0x40394b: ret ; (1 found)
0x4039b7: ret ; (1 found)
0x4039fb: ret ; (1 found)
0x403a3b: ret ; (1 found)
0x403ac2: ret ; (1 found)
0x403cd3: ret ; (1 found)
0x403eb6: ret ; (1 found)
0x403efb: ret ; (1 found)
0x403f3e: ret ; (1 found)
0x403f70: ret ; (1 found)
0x403fa4: ret ; (1 found)
0x404020: ret ; (1 found)
0x40415b: ret ; (1 found)
0x404384: ret ; (1 found)
0x404439: ret ; (1 found)
0x404478: ret ; (1 found)
0x4044b1: ret ; (1 found)
0x4044f1: ret ; (1 found)
0x404577: ret ; (1 found)
0x4045ae: ret ; (1 found)
0x4045cb: ret ; (1 found)
0x4046c0: ret ; (1 found)
0x404778: ret ; (1 found)
0x40478a: ret ; (1 found)
0x40479b: ret ; (1 found)
0x4047e8: ret ; (1 found)
0x4047fa: ret ; (1 found)
0x40480b: ret ; (1 found)
0x404866: ret ; (1 found)
0x404878: ret ; (1 found)
0x40488d: ret ; (1 found)
0x404a38: ret ; (1 found)
0x404a67: ret ; (1 found)
0x404b11: ret ; (1 found)
0x404b70: ret ; (1 found)
0x404bcb: ret ; (1 found)
0x404c34: ret ; (1 found)
0x404cc3: ret ; (1 found)
0x404cc4: ret ; (1 found)
0x404cdf: ret ; (1 found)
0x404ce0: ret ; (1 found)
0x404dce: ret ; (1 found)
0x404eb5: ret ; (1 found)
0x404f4c: ret ; (1 found)
0x404ff5: ret ; (1 found)
0x405005: ret ; (1 found)
0x40501c: ret ; (1 found)
0x40504e: ret ; (1 found)
0x405085: ret ; (1 found)
0x405097: ret ; (1 found)
0x4050ad: ret ; (1 found)
0x4050de: ret ; (1 found)
0x405114: ret ; (1 found)
0x405124: ret ; (1 found)
0x405134: ret ; (1 found)
0x40516d: ret ; (1 found)
0x4051f4: ret ; (1 found)
0x40520f: ret ; (1 found)
0x405263: ret ; (1 found)
0x40529c: ret ; (1 found)
0x4052d2: ret ; (1 found)
0x405338: ret ; (1 found)
0x405374: ret ; (1 found)
0x40537d: ret ; (1 found)
0x405455: ret ; (1 found)
0x405456: ret ; (1 found)
0x4054a2: ret ; (1 found)
0x405589: ret ; (1 found)
0x405591: ret ; (1 found)
0x40588e: ret ; (1 found)
0x405bfa: ret ; (1 found)
0x405d00: ret ; (1 found)
0x405d0d: ret ; (1 found)
0x405d1e: ret ; (1 found)
0x405d2a: ret ; (1 found)
0x405d52: ret ; (1 found)
0x405e6c: ret ; (1 found)
0x405e8e: ret ; (1 found)
0x405efc: ret ; (1 found)
0x40618e: ret ; (1 found)
0x4062b9: ret ; (1 found)
0x406318: ret ; (1 found)
0x40637a: ret ; (1 found)
0x4063c9: ret ; (1 found)
0x4063e0: ret ; (1 found)
0x406451: ret ; (1 found)
0x4064e7: ret ; (1 found)
0x406504: ret ; (1 found)
0x4065c7: ret ; (1 found)
0x40660e: ret ; (1 found)
0x40664a: ret ; (1 found)
0x406679: ret ; (1 found)
0x406687: ret ; (1 found)
0x406792: ret ; (1 found)
0x4068bc: ret ; (1 found)
0x4069d7: ret ; (1 found)
0x4069f7: ret ; (1 found)
0x406af3: ret ; (1 found)
0x406b71: ret ; (1 found)
0x406ba9: ret ; (1 found)
0x406c5e: ret ; (1 found)
0x406c6a: ret ; (1 found)
0x406cea: ret ; (1 found)
0x406d42: ret ; (1 found)
0x406eb3: ret ; (1 found)
0x406f11: ret ; (1 found)
0x406feb: ret ; (1 found)
0x407096: ret ; (1 found)
0x407182: ret ; (1 found)
0x4071b1: ret ; (1 found)
0x4071c6: ret ; (1 found)
0x4072bf: ret ; (1 found)
0x407341: ret ; (1 found)
0x40737d: ret ; (1 found)
0x4073ad: ret ; (1 found)
0x407415: ret ; (1 found)
0x407439: ret ; (1 found)
0x407470: ret ; (1 found)
0x40754e: ret ; (1 found)
0x4075a8: ret ; (1 found)
0x407691: ret ; (1 found)
0x4079f4: ret ; (1 found)
0x407aae: ret ; (1 found)
0x407b7e: ret ; (1 found)
0x407bd1: ret ; (1 found)
0x407e69: ret ; (1 found)
0x407e96: ret ; (1 found)
0x407eb7: ret ; (1 found)
0x407f41: ret ; (1 found)
0x407f58: ret ; (1 found)
0x40804e: ret ; (1 found)
0x4080df: ret ; (1 found)
0x40817b: ret ; (1 found)
0x40828e: ret ; (1 found)
0x4082ba: ret ; (1 found)
0x4082c6: ret ; (1 found)
0x4082f7: ret ; (1 found)
0x408346: ret ; (1 found)
0x408356: ret ; (1 found)
0x4084cc: ret ; (1 found)
0x408683: ret ; (1 found)
0x4086e6: ret ; (1 found)
0x408746: ret ; (1 found)
0x4089b8: ret ; (1 found)
0x4089cf: ret ; (1 found)
0x4089ee: ret ; (1 found)
0x4089f9: ret ; (1 found)
0x408a02: ret ; (1 found)
0x408a62: ret ; (1 found)
0x408a77: ret ; (1 found)
0x408ac8: ret ; (1 found)
0x408aed: ret ; (1 found)
0x408c22: ret ; (1 found)
0x408d79: ret ; (1 found)
0x408e5c: ret ; (1 found)
0x408f42: ret ; (1 found)
0x408f43: ret ; (1 found)
0x408f8e: ret ; (1 found)
0x409057: ret ; (1 found)
0x4091dd: ret ; (1 found)
0x40930f: ret ; (1 found)
0x40932d: ret ; (1 found)
0x409438: ret ; (1 found)
0x4094b4: ret ; (1 found)
0x409513: ret ; (1 found)
0x40952b: ret ; (1 found)
0x40955d: ret ; (1 found)
0x4095a1: ret ; (1 found)
0x4095c2: ret ; (1 found)
0x4095d7: ret ; (1 found)
0x409628: ret ; (1 found)
0x409639: ret ; (1 found)
0x40964d: ret ; (1 found)
0x4096f0: ret ; (1 found)
0x40970b: ret ; (1 found)
0x409740: ret ; (1 found)
0x40975e: ret ; (1 found)
0x409799: ret ; (1 found)
0x409803: ret ; (1 found)
0x40986e: ret ; (1 found)
0x4098c7: ret ; (1 found)
0x4098d9: ret ; (1 found)
0x4098ed: ret ; (1 found)
0x40992b: ret ; (1 found)
0x40993b: ret ; (1 found)
0x40994c: ret ; (1 found)
0x409974: ret ; (1 found)
0x4099a4: ret ; (1 found)
0x409a3e: ret ; (1 found)
0x409a78: ret ; (1 found)
0x409a83: ret ; (1 found)
0x409aed: ret ; (1 found)
0x409b4f: ret ; (1 found)
0x409b88: ret ; (1 found)
0x409b90: ret ; (1 found)
0x409bf2: ret ; (1 found)
0x409c22: ret ; (1 found)
0x409dd5: ret ; (1 found)
0x409e74: ret ; (1 found)
0x409ede: ret ; (1 found)
0x409ef7: ret ; (1 found)
0x40a1e2: ret ; (1 found)
0x40a210: ret ; (1 found)
0x40a217: ret ; (1 found)
0x40a268: ret ; (1 found)
0x40a2ac: ret ; (1 found)
0x40a2c4: ret ; (1 found)
0x40a556: ret ; (1 found)
0x40a5be: ret ; (1 found)
0x40a64e: ret ; (1 found)
0x40a69a: ret ; (1 found)
0x40a709: ret ; (1 found)
0x40a8d3: ret ; (1 found)
0x40a992: ret ; (1 found)
0x40a9da: ret ; (1 found)
0x40ac39: ret ; (1 found)
0x40acd6: ret ; (1 found)
0x40ad4d: ret ; (1 found)
0x40ad60: ret ; (1 found)
0x40adda: ret ; (1 found)
0x40ae8d: ret ; (1 found)
0x40aeb8: ret ; (1 found)
0x40b04b: ret ; (1 found)
0x40b1e2: ret ; (1 found)
0x40b3b9: ret ; (1 found)
0x40b3f5: ret ; (1 found)
0x40b461: ret ; (1 found)
0x40b49a: ret ; (1 found)
0x40b4b8: ret ; (1 found)
0x40b4d6: ret ; (1 found)
0x40b50f: ret ; (1 found)
0x40b52d: ret ; (1 found)
0x40b581: ret ; (1 found)
0x40b59f: ret ; (1 found)
0x40b5d5: ret ; (1 found)
0x40b67a: ret ; (1 found)
0x40b6b3: ret ; (1 found)
0x40b6ec: ret ; (1 found)
0x40b70a: ret ; (1 found)
0x40b849: ret ; (1 found)
0x40b859: ret ; (1 found)
0x40b865: ret ; (1 found)
0x40b8b0: ret ; (1 found)
0x40b951: ret ; (1 found)
0x40b992: ret ; (1 found)
0x40b9c4: ret ; (1 found)
0x40b9e6: ret ; (1 found)
0x40ba21: ret ; (1 found)
0x40ba9e: ret ; (1 found)
0x40baf7: ret ; (1 found)
0x40bb0f: ret ; (1 found)
0x40bba2: ret ; (1 found)
0x40bbbc: ret ; (1 found)
0x40bc03: ret ; (1 found)
0x40bc92: ret ; (1 found)
0x40bcad: ret ; (1 found)
0x40bcbf: ret ; (1 found)
0x40bce1: ret ; (1 found)
0x40bce3: ret ; (1 found)
0x40bd15: ret ; (1 found)
0x40bd45: ret ; (1 found)
0x40bd5d: ret ; (1 found)
0x40bdf6: ret ; (1 found)
0x40be68: ret ; (1 found)
0x40be90: ret ; (1 found)
0x40beb8: ret ; (1 found)
0x40bee0: ret ; (1 found)
0x40bf08: ret ; (1 found)
0x40bf30: ret ; (1 found)
0x40bf61: ret ; (1 found)
0x40bfa1: ret ; (1 found)
0x40bfbf: ret ; (1 found)
0x40c013: ret ; (1 found)
0x40c031: ret ; (1 found)
0x40c06a: ret ; (1 found)
0x40c150: ret ; (1 found)
0x40c2f2: ret ; (1 found)
0x40c3b0: ret ; (1 found)
0x40c3e8: ret ; (1 found)
0x40c45b: ret ; (1 found)
0x40c4f5: ret ; (1 found)
0x40c581: ret ; (1 found)
0x40c5d5: ret ; (1 found)
0x40c61d: ret ; (1 found)
0x40c654: ret ; (1 found)
0x40c696: ret ; (1 found)
0x40c6d7: ret ; (1 found)
0x40c885: ret ; (1 found)
0x40c8d8: ret ; (1 found)
0x40c955: ret ; (1 found)
0x40ca46: ret ; (1 found)
0x40cab5: ret ; (1 found)
0x40cb1e: ret ; (1 found)
0x40cb38: ret ; (1 found)
0x40cb4a: ret ; (1 found)
0x40cbbb: ret ; (1 found)
0x40cc88: ret ; (1 found)
0x40ce03: ret ; (1 found)
0x40cf90: ret ; (1 found)
0x40cff8: ret ; (1 found)
0x40d04d: ret ; (1 found)
0x40d0d5: ret ; (1 found)
0x40d128: ret ; (1 found)
0x40d179: ret ; (1 found)
0x40d1e1: ret ; (1 found)
0x40d214: ret ; (1 found)
0x40d2f3: ret ; (1 found)
0x40d32b: ret ; (1 found)
0x40d3ae: ret ; (1 found)
0x40d401: ret ; (1 found)
0x40d462: ret ; (1 found)
0x40d4a3: ret ; (1 found)
0x40d4e2: ret ; (1 found)
0x40d4fd: ret ; (1 found)
0x40d5ae: ret ; (1 found)
0x40d666: ret ; (1 found)
0x40d683: ret ; (1 found)
0x40d73d: ret ; (1 found)
0x40d7db: ret ; (1 found)
0x40d7ee: ret ; (1 found)
0x40d822: ret ; (1 found)
0x40d89d: ret ; (1 found)
0x40d8a9: ret ; (1 found)
0x40d940: ret ; (1 found)
0x40da70: ret ; (1 found)
0x40ddae: ret ; (1 found)
0x40ddbe: ret ; (1 found)
0x40de2c: ret ; (1 found)
0x40df1c: ret ; (1 found)
0x40df4c: ret ; (1 found)
0x40df9c: ret ; (1 found)
0x40e016: ret ; (1 found)
0x40e07a: ret ; (1 found)
0x40e1da: ret ; (1 found)
0x40e1e2: ret ; (1 found)
0x40e362: ret ; (1 found)
0x40e880: ret ; (1 found)
0x40e89a: ret ; (1 found)
0x40ea97: ret ; (1 found)
0x40eac5: ret ; (1 found)
0x40ead5: ret ; (1 found)
0x40eae2: ret ; (1 found)
0x40eaf6: ret ; (1 found)
0x40eb0c: ret ; (1 found)
0x40ebbc: ret ; (1 found)
0x40ec80: ret ; (1 found)
0x40ecdb: ret ; (1 found)
0x40ed5f: ret ; (1 found)
0x40eeed: ret ; (1 found)
0x40ef91: ret ; (1 found)
0x40f084: ret ; (1 found)
0x40f0aa: ret ; (1 found)
0x40f0b8: ret ; (1 found)
0x40f108: ret ; (1 found)
0x40f11c: ret ; (1 found)
0x40f13a: ret ; (1 found)
0x40f142: ret ; (1 found)
0x40f146: ret ; (1 found)
0x40f194: ret ; (1 found)
0x40f19d: ret ; (1 found)
0x40f1bd: ret ; (1 found)
0x40f22a: ret ; (1 found)
0x40f239: ret ; (1 found)
0x40f373: ret ; (1 found)
0x40f3f1: ret ; (1 found)
0x40f4e0: ret ; (1 found)
0x40f4f0: ret ; (1 found)
0x40f523: ret ; (1 found)
0x40f541: ret ; (1 found)
0x40f59b: ret ; (1 found)
0x40f5c2: ret ; (1 found)
0x40f5ec: ret ; (1 found)
0x40f5f6: ret ; (1 found)
0x40f613: ret ; (1 found)
0x40f642: ret ; (1 found)
0x40f6ca: ret ; (1 found)
0x40f77b: ret ; (1 found)
0x40f84b: ret ; (1 found)
0x40f88d: ret ; (1 found)
0x40f8a1: ret ; (1 found)
0x40f911: ret ; (1 found)
0x40faf0: ret ; (1 found)
0x40fb3f: ret ; (1 found)
0x40fb7d: ret ; (1 found)
0x40fb9f: ret ; (1 found)
0x40fbd0: ret ; (1 found)
0x40fbfb: ret ; (1 found)
0x40fc2b: ret ; (1 found)
0x40fc53: ret ; (1 found)
0x40fcb6: ret ; (1 found)
0x40fce3: ret ; (1 found)
0x40fd23: ret ; (1 found)
0x40fd2b: ret ; (1 found)
0x40fd61: ret ; (1 found)
0x40fe04: ret ; (1 found)
0x40fe0a: ret ; (1 found)
0x40fed9: ret ; (1 found)
0x40fefd: ret ; (1 found)
0x40ff99: ret ; (1 found)
0x40ffa5: ret ; (1 found)
0x40ffd5: ret ; (1 found)
0x41006d: ret ; (1 found)
0x4100be: ret ; (1 found)
0x4100e2: ret ; (1 found)
0x41011d: ret ; (1 found)
0x410157: ret ; (1 found)
0x410166: ret ; (1 found)
0x410202: ret ; (1 found)
0x41024f: ret ; (1 found)
0x410266: ret ; (1 found)
0x4102db: ret ; (1 found)
0x410363: ret ; (1 found)
0x41045b: ret ; (1 found)
0x410470: ret ; (1 found)
0x4104cd: ret ; (1 found)
0x4104e0: ret ; (1 found)
0x410500: ret ; (1 found)
0x41052b: ret ; (1 found)
0x41056b: ret ; (1 found)
0x41059b: ret ; (1 found)
0x41062a: ret ; (1 found)
0x41067d: ret ; (1 found)
0x410732: ret ; (1 found)
0x41073d: ret ; (1 found)
0x410786: ret ; (1 found)
0x410795: ret ; (1 found)
0x4107b6: ret ; (1 found)
0x4107d5: ret ; (1 found)
0x410812: ret ; (1 found)
0x41085d: ret ; (1 found)
0x4108ba: ret ; (1 found)
0x4108e0: ret ; (1 found)
0x41092d: ret ; (1 found)
0x41093d: ret ; (1 found)
0x4109a0: ret ; (1 found)
0x4109c3: ret ; (1 found)
0x4109cd: ret ; (1 found)
0x4109ef: ret ; (1 found)
0x4109f3: ret ; (1 found)
0x410a15: ret ; (1 found)
0x410a1a: ret ; (1 found)
0x410a89: ret ; (1 found)
0x410a98: ret ; (1 found)
0x410b00: ret ; (1 found)
0x410b0f: ret ; (1 found)
0x410b5b: ret ; (1 found)
0x410b67: ret ; (1 found)
0x410b96: ret ; (1 found)
0x410bdf: ret ; (1 found)
0x410c39: ret ; (1 found)
0x410c63: ret ; (1 found)
0x410cad: ret ; (1 found)
0x410cf1: ret ; (1 found)
0x410d19: ret ; (1 found)
0x410d60: ret ; (1 found)
0x410d63: ret ; (1 found)
0x410dae: ret ; (1 found)
0x410dbb: ret ; (1 found)
0x410dc4: ret ; (1 found)
0x410e21: ret ; (1 found)
0x410ed8: ret ; (1 found)
0x410f7d: ret ; (1 found)
0x41100a: ret ; (1 found)
0x411054: ret ; (1 found)
0x411174: ret ; (1 found)
0x4111d7: ret ; (1 found)
0x4111f3: ret ; (1 found)
0x4111fc: ret ; (1 found)
0x41123e: ret ; (1 found)
0x41124c: ret ; (1 found)
0x4112a0: ret ; (1 found)
0x41135f: ret ; (1 found)
0x411469: ret ; (1 found)
0x411501: ret ; (1 found)
0x411531: ret ; (1 found)
0x411573: ret ; (1 found)
0x41157d: ret ; (1 found)
0x411681: ret ; (1 found)
0x4116d2: ret ; (1 found)
0x411713: ret ; (1 found)
0x41183d: ret ; (1 found)
0x411845: ret ; (1 found)
0x4118fb: ret ; (1 found)
0x411921: ret ; (1 found)
0x411a5c: ret ; (1 found)
0x411a60: ret ; (1 found)
0x411ce8: ret ; (1 found)
0x411cf0: ret ; (1 found)
0x411d27: ret ; (1 found)
0x411d61: ret ; (1 found)
0x411db4: ret ; (1 found)
0x411dbf: ret ; (1 found)
0x411dff: ret ; (1 found)
0x411eb1: ret ; (1 found)
0x411ee1: ret ; (1 found)
0x411f71: ret ; (1 found)
0x411fa9: ret ; (1 found)
0x412038: ret ; (1 found)
0x412088: ret ; (1 found)
0x41209e: ret ; (1 found)
0x4120aa: ret ; (1 found)
0x4120e5: ret ; (1 found)
0x4120f8: ret ; (1 found)
0x412119: ret ; (1 found)
0x41216a: ret ; (1 found)
0x412198: ret ; (1 found)
0x4121d2: ret ; (1 found)
0x4122b3: ret ; (1 found)
0x41231e: ret ; (1 found)
0x41237a: ret ; (1 found)
0x4123ce: ret ; (1 found)
0x412433: ret ; (1 found)
0x41246f: ret ; (1 found)
0x412485: ret ; (1 found)
0x4124bc: ret ; (1 found)
0x4124d5: ret ; (1 found)
0x412581: ret ; (1 found)
0x4125c3: ret ; (1 found)
0x412602: ret ; (1 found)
0x41261d: ret ; (1 found)
0x41268b: ret ; (1 found)
0x412690: ret ; (1 found)
0x41269a: ret ; (1 found)
0x4126b3: ret ; (1 found)
0x4126f6: ret ; (1 found)
0x412723: ret ; (1 found)
0x41272e: ret ; (1 found)
0x41276d: ret ; (1 found)
0x412afd: ret ; (1 found)
0x412e94: ret ; (1 found)
0x412ebc: ret ; (1 found)
0x412f2b: ret ; (1 found)
0x412f3c: ret ; (1 found)
0x412fab: ret ; (1 found)
0x412fbc: ret ; (1 found)
0x412fee: ret ; (1 found)
0x413010: ret ; (1 found)
0x413067: ret ; (1 found)
0x4130b9: ret ; (1 found)
0x4130c8: ret ; (1 found)
0x413145: ret ; (1 found)
0x413178: ret ; (1 found)
0x4131b1: ret ; (1 found)
0x4131d0: ret ; (1 found)
0x4131d9: ret ; (1 found)
0x4131de: ret ; (1 found)
0x41323e: ret ; (1 found)
0x413303: ret ; (1 found)
0x413318: ret ; (1 found)
0x41335b: ret ; (1 found)
0x41348d: ret ; (1 found)
0x41349f: ret ; (1 found)
0x4134d2: ret ; (1 found)
0x413561: ret ; (1 found)
0x413608: ret ; (1 found)
0x4136cf: ret ; (1 found)
0x4137e3: ret ; (1 found)
0x4138a2: ret ; (1 found)
0x4138f6: ret ; (1 found)
0x41393b: ret ; (1 found)
0x413a43: ret ; (1 found)
0x413b2b: ret ; (1 found)
0x413ba9: ret ; (1 found)
0x413dc9: ret ; (1 found)
0x413ec9: ret ; (1 found)
0x414095: ret ; (1 found)
0x414101: ret ; (1 found)
0x4142b9: ret ; (1 found)
0x4142cf: ret ; (1 found)
0x414423: ret ; (1 found)
0x4144f2: ret ; (1 found)
0x414500: ret ; (1 found)
0x41450e: ret ; (1 found)
0x41451c: ret ; (1 found)
0x414578: ret ; (1 found)
0x41458b: ret ; (1 found)
0x41459c: ret ; (1 found)
0x4145db: ret ; (1 found)
0x414633: ret ; (1 found)
0x414771: ret ; (1 found)
0x41497a: ret ; (1 found)
0x41498a: ret ; (1 found)
0x4149d5: ret ; (1 found)
0x4149e5: ret ; (1 found)
0x4149f1: ret ; (1 found)
0x414b14: ret ; (1 found)
0x414b2c: ret ; (1 found)
0x414c1a: ret ; (1 found)
0x414d85: ret ; (1 found)
0x414df6: ret ; (1 found)
0x414e4b: ret ; (1 found)
0x414e86: ret ; (1 found)
0x414eb5: ret ; (1 found)
0x414ec6: ret ; (1 found)
0x414f0a: ret ; (1 found)
0x414f8e: ret ; (1 found)
0x414fd3: ret ; (1 found)
0x4152dc: ret ; (1 found)
0x4152ec: ret ; (1 found)
0x41531c: ret ; (1 found)
0x41532f: ret ; (1 found)
0x41539a: ret ; (1 found)
0x4154f8: ret ; (1 found)
0x41556c: ret ; (1 found)
0x41557a: ret ; (1 found)
0x4155ba: ret ; (1 found)
0x415663: ret ; (1 found)
0x415678: ret ; (1 found)
0x41569e: ret ; (1 found)
0x4156be: ret ; (1 found)
0x41570c: ret ; (1 found)
0x415732: ret ; (1 found)
0x415785: ret ; (1 found)
0x4157f6: ret ; (1 found)
0x415856: ret ; (1 found)
0x4158ea: ret ; (1 found)
0x4158f7: ret ; (1 found)
0x415926: ret ; (1 found)
0x415944: ret ; (1 found)
0x415970: ret ; (1 found)
0x4159b1: ret ; (1 found)
0x4159d9: ret ; (1 found)
0x4159f2: ret ; (1 found)
0x415a70: ret ; (1 found)
0x415b89: ret ; (1 found)
0x415c91: ret ; (1 found)
0x415cc1: ret ; (1 found)
0x415cfa: ret ; (1 found)
0x415d51: ret ; (1 found)
0x415d7e: ret ; (1 found)
0x415dc1: ret ; (1 found)
0x415e46: ret ; (1 found)
0x415e47: ret ; (1 found)
0x415e91: ret ; (1 found)
0x415f16: ret ; (1 found)
0x415f17: ret ; (1 found)
0x415f4a: ret ; (1 found)
0x415f51: ret ; (1 found)
0x415f88: ret ; (1 found)
0x415f9e: ret ; (1 found)
0x415faa: ret ; (1 found)
0x416003: ret ; (1 found)
0x41604f: ret ; (1 found)
0x41609d: ret ; (1 found)
0x416121: ret ; (1 found)
0x41615e: ret ; (1 found)
0x416180: ret ; (1 found)
0x416202: ret ; (1 found)
0x41620a: ret ; (1 found)
0x41621c: ret ; (1 found)
0x416239: ret ; (1 found)
0x4162b1: ret ; (1 found)
0x41631e: ret ; (1 found)
0x41637a: ret ; (1 found)
0x4163ae: ret ; (1 found)
0x4163cc: ret ; (1 found)
0x41641f: ret ; (1 found)
0x416422: ret ; (1 found)
0x416436: ret ; (1 found)
0x416462: ret ; (1 found)
0x416475: ret ; (1 found)
0x416492: ret ; (1 found)
0x4164a0: ret ; (1 found)
0x4164c7: ret ; (1 found)
0x4164d8: ret ; (1 found)
0x416534: ret ; (1 found)
0x41653a: ret ; (1 found)
0x416589: ret ; (1 found)
0x4165a9: ret ; (1 found)
0x4165c0: ret ; (1 found)
0x416617: ret ; (1 found)
0x41662c: ret ; (1 found)
0x41663b: ret ; (1 found)
0x416701: ret ; (1 found)
0x41677a: ret ; (1 found)
0x416880: ret ; (1 found)
0x416923: ret ; (1 found)
0x4169aa: ret ; (1 found)
0x4169bf: ret ; (1 found)
0x4169f0: ret ; (1 found)
0x4169f3: ret ; (1 found)
0x4169f7: ret ; (1 found)
0x416a40: ret ; (1 found)
0x416a4a: ret ; (1 found)
0x416a59: ret ; (1 found)
0x416a75: ret ; (1 found)
0x416aac: ret ; (1 found)
0x416ae7: ret ; (1 found)
0x416af5: ret ; (1 found)
0x416b4b: ret ; (1 found)
0x416b8e: ret ; (1 found)
0x416bab: ret ; (1 found)
0x416cbc: ret ; (1 found)
0x416cd0: ret ; (1 found)
0x416dce: ret ; (1 found)
0x416e18: ret ; (1 found)
0x416f62: ret ; (1 found)
0x416ff2: ret ; (1 found)
0x416fff: ret ; (1 found)
0x41702d: ret ; (1 found)
0x41706e: ret ; (1 found)
0x4170cf: ret ; (1 found)
0x4170dd: ret ; (1 found)
0x417115: ret ; (1 found)
0x417118: ret ; (1 found)
0x417191: ret ; (1 found)
0x4171df: ret ; (1 found)
0x417239: ret ; (1 found)
0x4172bf: ret ; (1 found)
0x41739d: ret ; (1 found)
0x41749d: ret ; (1 found)
0x4174e4: ret ; (1 found)
0x41754a: ret ; (1 found)
0x417613: ret ; (1 found)
0x417814: ret ; (1 found)
0x4178b2: ret ; (1 found)
0x4178b3: ret ; (1 found)
0x4178bc: ret ; (1 found)
0x41790c: ret ; (1 found)
0x417932: ret ; (1 found)
0x4179a7: ret ; (1 found)
0x4179f0: ret ; (1 found)
0x417d34: ret ; (1 found)
0x417d5b: ret ; (1 found)
0x417e44: ret ; (1 found)
0x4180b1: ret ; (1 found)
0x41830d: ret ; (1 found)
0x41846c: ret ; (1 found)
0x4186bc: ret ; (1 found)
0x4186e9: ret ; (1 found)
0x4187c1: ret ; (1 found)
0x4187ce: ret ; (1 found)
0x418876: ret ; (1 found)
0x4188b3: ret ; (1 found)
0x418932: ret ; (1 found)
0x418ad8: ret ; (1 found)
0x418b12: ret ; (1 found)
0x418ca2: ret ; (1 found)
0x418d45: ret ; (1 found)
0x418eee: ret ; (1 found)
0x418f1a: ret ; (1 found)
0x418f44: ret ; (1 found)
0x418f4d: ret ; (1 found)
0x418f6a: ret ; (1 found)
0x418fcd: ret ; (1 found)
0x41907a: ret ; (1 found)
0x41922a: ret ; (1 found)
0x419466: ret ; (1 found)
0x419958: ret ; (1 found)
0x419b35: ret ; (1 found)
0x419d24: ret ; (1 found)
0x419fde: ret ; (1 found)
0x41a0ab: ret ; (1 found)
0x41a0ca: ret ; (1 found)
0x41a0f7: ret ; (1 found)
0x41a155: ret ; (1 found)
0x41a1f5: ret ; (1 found)
0x41a337: ret ; (1 found)
0x41a36c: ret ; (1 found)
0x41a3e8: ret ; (1 found)
0x41a534: ret ; (1 found)
0x41a5f9: ret ; (1 found)
0x41a7c5: ret ; (1 found)
0x41a8d1: ret ; (1 found)
0x41a986: ret ; (1 found)
0x41a9dc: ret ; (1 found)
0x41a9fe: ret ; (1 found)
0x41aa28: ret ; (1 found)
0x41aabc: ret ; (1 found)
0x41aae7: ret ; (1 found)
0x41ab21: ret ; (1 found)
0x41ab55: ret ; (1 found)
0x41ac5a: ret ; (1 found)
0x41acd2: ret ; (1 found)
0x41ace4: ret ; (1 found)
0x41ad21: ret ; (1 found)
0x41ae99: ret ; (1 found)
0x41aea4: ret ; (1 found)
0x41aea7: ret ; (1 found)
0x41aea8: ret ; (1 found)
0x41aef7: ret ; (1 found)
0x41af6d: ret ; (1 found)
0x41af7f: ret ; (1 found)
0x41afb9: ret ; (1 found)
0x41b049: ret ; (1 found)
0x41b184: ret ; (1 found)
0x41b1b9: ret ; (1 found)
0x41b1c2: ret ; (1 found)
0x41b2c2: ret ; (1 found)
0x41b31f: ret ; (1 found)
0x41b398: ret ; (1 found)
0x41b3a4: ret ; (1 found)
0x41b5cf: ret ; (1 found)
0x41ba81: ret ; (1 found)
0x41bb51: ret ; (1 found)
0x41bce1: ret ; (1 found)
0x41bee0: ret ; (1 found)
0x41bfda: ret ; (1 found)
0x41c0a2: ret ; (1 found)
0x41c0cc: ret ; (1 found)
0x41c297: ret ; (1 found)
0x41c300: ret ; (1 found)
0x41c30b: ret ; (1 found)
0x41c36d: ret ; (1 found)
0x41c3d8: ret ; (1 found)
0x41c3f5: ret ; (1 found)
0x41c415: ret ; (1 found)
0x41c49f: ret ; (1 found)
0x41c560: ret ; (1 found)
0x41c5c7: ret ; (1 found)
0x41c5df: ret ; (1 found)
0x41c613: ret ; (1 found)
0x41c689: ret ; (1 found)
0x41c703: ret ; (1 found)
0x41c792: ret ; (1 found)
0x41c7f8: ret ; (1 found)
0x41c86b: ret ; (1 found)
0x41c87c: ret ; (1 found)
0x41c8e8: ret ; (1 found)
0x41cb59: ret ; (1 found)
0x41cba3: ret ; (1 found)
0x41cc02: ret ; (1 found)
0x41cc14: ret ; (1 found)
0x41cca1: ret ; (1 found)
0x41cd1f: ret ; (1 found)
0x41cd4e: ret ; (1 found)
0x41ce92: ret ; (1 found)
0x41cf68: ret ; (1 found)
0x41d19b: ret ; (1 found)
0x41d1c4: ret ; (1 found)
0x41d1d6: ret ; (1 found)
0x41d27c: ret ; (1 found)
0x41d293: ret ; (1 found)
0x41d2c9: ret ; (1 found)
0x41d2e3: ret ; (1 found)
0x41d2ea: ret ; (1 found)
0x41d300: ret ; (1 found)
0x41d30e: ret ; (1 found)
0x41d493: ret ; (1 found)
0x41d5aa: ret ; (1 found)
0x41d5c1: ret ; (1 found)
0x41d5cf: ret ; (1 found)
0x41d620: ret ; (1 found)
0x41d692: ret ; (1 found)
0x41d6ef: ret ; (1 found)
0x41d7b5: ret ; (1 found)
0x41d7cf: ret ; (1 found)
0x41d7da: ret ; (1 found)
0x41d814: ret ; (1 found)
0x41d822: ret ; (1 found)
0x41d854: ret ; (1 found)
0x41d87a: ret ; (1 found)
0x41d8f9: ret ; (1 found)
0x41d90e: ret ; (1 found)
0x41d9ad: ret ; (1 found)
0x41da29: ret ; (1 found)
0x41daf2: ret ; (1 found)
0x41dc06: ret ; (1 found)
0x41dc4f: ret ; (1 found)
0x41dc63: ret ; (1 found)
0x41dc78: ret ; (1 found)
0x41dc9b: ret ; (1 found)
0x41dcdc: ret ; (1 found)
0x41dce0: ret ; (1 found)
0x41dd9e: ret ; (1 found)
0x41ddbe: ret ; (1 found)
0x41de3d: ret ; (1 found)
0x41e100: ret ; (1 found)
0x41e1ff: ret ; (1 found)
0x41e234: ret ; (1 found)
0x41e24c: ret ; (1 found)
0x41e275: ret ; (1 found)
0x41e286: ret ; (1 found)
0x41e2b5: ret ; (1 found)
0x41e2c6: ret ; (1 found)
0x41e2f5: ret ; (1 found)
0x41e306: ret ; (1 found)
0x41e32d: ret ; (1 found)
0x41e36d: ret ; (1 found)
0x41e402: ret ; (1 found)
0x41e484: ret ; (1 found)
0x41e4cf: ret ; (1 found)
0x41e535: ret ; (1 found)
0x41e571: ret ; (1 found)
0x41e5d9: ret ; (1 found)
0x41e6bb: ret ; (1 found)
0x41e7ab: ret ; (1 found)
0x41e7b5: ret ; (1 found)
0x41e81a: ret ; (1 found)
0x41e874: ret ; (1 found)
0x41e8ee: ret ; (1 found)
0x41e948: ret ; (1 found)
0x41e9dc: ret ; (1 found)
0x41ea1e: ret ; (1 found)
0x41eb62: ret ; (1 found)
0x41ebd9: ret ; (1 found)
0x41ec7e: ret ; (1 found)
0x41ecf7: ret ; (1 found)
0x41ed06: ret ; (1 found)
0x41ed0d: ret ; (1 found)
0x41ed16: ret ; (1 found)
0x41ed26: ret ; (1 found)
0x41ed2d: ret ; (1 found)
0x41eda6: ret ; (1 found)
0x41edb3: ret ; (1 found)
0x41edda: ret ; (1 found)
0x41ee3b: ret ; (1 found)
0x41ee65: ret ; (1 found)
0x41ef0e: ret ; (1 found)
0x41ef27: ret ; (1 found)
0x41ef3b: ret ; (1 found)
0x41ef78: ret ; (1 found)
0x41f03d: ret ; (1 found)
0x41f0e6: ret ; (1 found)
0x41f125: ret ; (1 found)
0x41f182: ret ; (1 found)
0x41f2a1: ret ; (1 found)
0x41f2c2: ret ; (1 found)
0x41f2e3: ret ; (1 found)
0x41f30c: ret ; (1 found)
0x41f581: ret ; (1 found)
0x41f6f0: ret ; (1 found)
0x41f71e: ret ; (1 found)
0x41f743: ret ; (1 found)
0x41f76d: ret ; (1 found)
0x41f7eb: ret ; (1 found)
0x41f7f5: ret ; (1 found)
0x41f805: ret ; (1 found)
0x41f815: ret ; (1 found)
0x41f825: ret ; (1 found)
0x41f835: ret ; (1 found)
0x41f83b: ret ; (1 found)
0x41f841: ret ; (1 found)
0x41f8f4: ret ; (1 found)
0x41f8fd: ret ; (1 found)
0x41f905: ret ; (1 found)
0x41f915: ret ; (1 found)
0x41f925: ret ; (1 found)
0x41f935: ret ; (1 found)
0x41f945: ret ; (1 found)
0x41f94b: ret ; (1 found)
0x41f951: ret ; (1 found)
0x41faf6: ret ; (1 found)
0x41fb0a: ret ; (1 found)
0x41fc14: ret ; (1 found)
0x41fd54: ret ; (1 found)
0x41fe20: ret ; (1 found)
0x41fe44: ret ; (1 found)
0x41ff17: ret ; (1 found)
0x41ff90: ret ; (1 found)
0x41ffd4: ret ; (1 found)
0x4201e0: ret ; (1 found)
0x4201f3: ret ; (1 found)
0x42023f: ret ; (1 found)
0x420272: ret ; (1 found)
0x4202cc: ret ; (1 found)
0x42030c: ret ; (1 found)
0x42034d: ret ; (1 found)
0x420352: ret ; (1 found)
0x4203c6: ret ; (1 found)
0x420432: ret ; (1 found)
0x42046a: ret ; (1 found)
0x420471: ret ; (1 found)
0x4204ca: ret ; (1 found)
0x42055e: ret ; (1 found)
0x42058c: ret ; (1 found)
0x4205ac: ret ; (1 found)
0x4205f0: ret ; (1 found)
0x420666: ret ; (1 found)
0x4206e3: ret ; (1 found)
0x4206f6: ret ; (1 found)
0x420735: ret ; (1 found)
0x4207a1: ret ; (1 found)
0x420809: ret ; (1 found)
0x42087d: ret ; (1 found)
0x420889: ret ; (1 found)
0x4208d8: ret ; (1 found)
0x4208e1: ret ; (1 found)
0x4208e6: ret ; (1 found)
0x4208ef: ret ; (1 found)
0x42090d: ret ; (1 found)
0x420944: ret ; (1 found)
0x420962: ret ; (1 found)
0x42097d: ret ; (1 found)
0x420a0f: ret ; (1 found)
0x420b1c: ret ; (1 found)
0x420bb1: ret ; (1 found)
0x420bf1: ret ; (1 found)
0x420c16: ret ; (1 found)
0x420c26: ret ; (1 found)
0x420c71: ret ; (1 found)
0x420d1e: ret ; (1 found)
0x420d69: ret ; (1 found)
0x421199: ret ; (1 found)
0x4212cc: ret ; (1 found)
0x421302: ret ; (1 found)
0x421345: ret ; (1 found)
0x4213a5: ret ; (1 found)
0x4213d4: ret ; (1 found)
0x4213da: ret ; (1 found)
0x4213ff: ret ; (1 found)
0x42141f: ret ; (1 found)
0x421488: ret ; (1 found)
0x42149f: ret ; (1 found)
0x421536: ret ; (1 found)
0x4215e5: ret ; (1 found)
0x4217ad: ret ; (1 found)
0x4217d0: ret ; (1 found)
0x421954: ret ; (1 found)
0x421994: ret ; (1 found)
0x4219bb: ret ; (1 found)
0x421a23: ret ; (1 found)
0x421aba: ret ; (1 found)
0x421ac0: ret ; (1 found)
0x421b85: ret ; (1 found)
0x421c6a: ret ; (1 found)
0x421e12: ret ; (1 found)
0x421e76: ret ; (1 found)
0x421eaa: ret ; (1 found)
0x421ebc: ret ; (1 found)
0x421ecd: ret ; (1 found)
0x421f14: ret ; (1 found)
0x421fff: ret ; (1 found)
0x422021: ret ; (1 found)
0x4220e7: ret ; (1 found)
0x422129: ret ; (1 found)
0x422155: ret ; (1 found)
0x4221a9: ret ; (1 found)
0x4221fb: ret ; (1 found)
0x422232: ret ; (1 found)
0x4222f8: ret ; (1 found)
0x422306: ret ; (1 found)
0x42231f: ret ; (1 found)
0x42239a: ret ; (1 found)
0x4223c8: ret ; (1 found)
0x422407: ret ; (1 found)
0x422455: ret ; (1 found)
0x4224b5: ret ; (1 found)
0x4224ef: ret ; (1 found)
0x422516: ret ; (1 found)
0x42253d: ret ; (1 found)
0x42255f: ret ; (1 found)
0x42257d: ret ; (1 found)
0x4225f4: ret ; (1 found)
0x422605: ret ; (1 found)
0x422669: ret ; (1 found)
0x42268f: ret ; (1 found)
0x4226be: ret ; (1 found)
0x422838: ret ; (1 found)
0x422ad0: ret ; (1 found)
0x422ad8: ret ; (1 found)
0x422ae5: ret ; (1 found)
0x422b30: ret ; (1 found)
0x422b77: ret ; (1 found)
0x422b86: ret ; (1 found)
0x422c29: ret ; (1 found)
0x422c43: ret ; (1 found)
0x422cab: ret ; (1 found)
0x422ccd: ret ; (1 found)
0x422d2d: ret ; (1 found)
0x422d57: ret ; (1 found)
0x422d68: ret ; (1 found)
0x422d9c: ret ; (1 found)
0x422de3: ret ; (1 found)
0x422e58: ret ; (1 found)
0x422ec2: ret ; (1 found)
0x422f1a: ret ; (1 found)
0x422f7f: ret ; (1 found)
0x422f80: ret ; (1 found)
0x422fda: ret ; (1 found)
0x42303f: ret ; (1 found)
0x423040: ret ; (1 found)
0x42307a: ret ; (1 found)
0x423081: ret ; (1 found)
0x4230e7: ret ; (1 found)
0x42311d: ret ; (1 found)
0x423154: ret ; (1 found)
0x4231b4: ret ; (1 found)
0x4231fd: ret ; (1 found)
0x423230: ret ; (1 found)
0x42328b: ret ; (1 found)
0x42329c: ret ; (1 found)
0x4232ee: ret ; (1 found)
0x423303: ret ; (1 found)
0x42336e: ret ; (1 found)
0x423383: ret ; (1 found)
0x423431: ret ; (1 found)
0x423451: ret ; (1 found)
0x423498: ret ; (1 found)
0x4234be: ret ; (1 found)
0x4234ee: ret ; (1 found)
0x423500: ret ; (1 found)
0x423561: ret ; (1 found)
0x42377b: ret ; (1 found)
0x423803: ret ; (1 found)
0x42383c: ret ; (1 found)
0x423869: ret ; (1 found)
0x42392c: ret ; (1 found)
0x4239b9: ret ; (1 found)
0x4239da: ret ; (1 found)
0x4239fb: ret ; (1 found)
0x423a06: ret ; (1 found)
0x423a41: ret ; (1 found)
0x423a96: ret ; (1 found)
0x423abd: ret ; (1 found)
0x423adc: ret ; (1 found)
0x423bbb: ret ; (1 found)
0x423bc7: ret ; (1 found)
0x423bca: ret ; (1 found)
0x423c67: ret ; (1 found)
0x423d3d: ret ; (1 found)
0x423e21: ret ; (1 found)
0x423f1a: ret ; (1 found)
0x424017: ret ; (1 found)
0x42409d: ret ; (1 found)
0x4240b1: ret ; (1 found)
0x4240c5: ret ; (1 found)
0x4240d9: ret ; (1 found)
0x424151: ret ; (1 found)
0x4241d5: ret ; (1 found)
0x42424c: ret ; (1 found)
0x424282: ret ; (1 found)
0x4242b7: ret ; (1 found)
0x4242f7: ret ; (1 found)
0x4243c0: ret ; (1 found)
0x424406: ret ; (1 found)
0x424564: ret ; (1 found)
0x424565: ret ; (1 found)
0x424566: ret ; (1 found)
0x424595: ret ; (1 found)
0x4245db: ret ; (1 found)
0x4245ea: ret ; (1 found)
0x42460f: ret ; (1 found)
0x424620: ret ; (1 found)
0x4246c7: ret ; (1 found)
0x4247b6: ret ; (1 found)
0x4247f0: ret ; (1 found)
0x4248dc: ret ; (1 found)
0x42495c: ret ; (1 found)
0x424974: ret ; (1 found)
0x4249c7: ret ; (1 found)
0x424a09: ret ; (1 found)
0x424a35: ret ; (1 found)
0x424a61: ret ; (1 found)
0x424a91: ret ; (1 found)
0x424acf: ret ; (1 found)
0x424ad5: ret ; (1 found)
0x424b12: ret ; (1 found)
0x424b22: ret ; (1 found)
0x424b4b: ret ; (1 found)
0x424b7d: ret ; (1 found)
0x424b85: ret ; (1 found)
0x424bb1: ret ; (1 found)
0x424bfb: ret ; (1 found)
0x424c21: ret ; (1 found)
0x424c9b: ret ; (1 found)
0x424cac: ret ; (1 found)
0x424cad: ret ; (1 found)
0x424d1b: ret ; (1 found)
0x424d2c: ret ; (1 found)
0x424d2d: ret ; (1 found)
0x424d5a: ret ; (1 found)
0x424d61: ret ; (1 found)
0x424dfd: ret ; (1 found)
0x424e7c: ret ; (1 found)
0x4250df: ret ; (1 found)
0x4251af: ret ; (1 found)
0x425247: ret ; (1 found)
0x425292: ret ; (1 found)
0x42538e: ret ; (1 found)
0x4253c7: ret ; (1 found)
0x4253df: ret ; (1 found)
0x42544f: ret ; (1 found)
0x4254c5: ret ; (1 found)
0x4255b3: ret ; (1 found)
0x425e36: ret ; (1 found)
0x426015: ret ; (1 found)
0x42667d: ret ; (1 found)
0x426a43: ret ; (1 found)
0x426a79: ret ; (1 found)
0x426acd: ret ; (1 found)
0x426c0e: ret ; (1 found)
0x426c3f: ret ; (1 found)
0x426cc8: ret ; (1 found)
0x426cf3: ret ; (1 found)
0x426d1c: ret ; (1 found)
0x426e59: ret ; (1 found)
0x426e8f: ret ; (1 found)
0x426e9a: ret ; (1 found)
0x426ecf: ret ; (1 found)
0x426f14: ret ; (1 found)
0x426f17: ret ; (1 found)
0x426f18: ret ; (1 found)
0x426f30: ret ; (1 found)
0x426f6e: ret ; (1 found)
0x426f94: ret ; (1 found)
0x426fd5: ret ; (1 found)
0x426fe0: ret ; (1 found)
0x42702e: ret ; (1 found)
0x42705e: ret ; (1 found)
0x427060: ret ; (1 found)
0x4270bf: ret ; (1 found)
0x4270f2: ret ; (1 found)
0x42710d: ret ; (1 found)
0x42711b: ret ; (1 found)
0x427160: ret ; (1 found)
0x427208: ret ; (1 found)
0x427224: ret ; (1 found)
0x427246: ret ; (1 found)
0x42726e: ret ; (1 found)
0x42727f: ret ; (1 found)
0x4272ab: ret ; (1 found)
0x4272ce: ret ; (1 found)
0x427309: ret ; (1 found)
0x427421: ret ; (1 found)
0x42747c: ret ; (1 found)
0x427480: ret ; (1 found)
0x427490: ret ; (1 found)
0x4274fd: ret ; (1 found)
0x427534: ret ; (1 found)
0x42755f: ret ; (1 found)
0x4275dd: ret ; (1 found)
0x427614: ret ; (1 found)
0x42763f: ret ; (1 found)
0x427660: ret ; (1 found)
0x427679: ret ; (1 found)
0x4276e1: ret ; (1 found)
0x4276e4: ret ; (1 found)
0x42774b: ret ; (1 found)
0x42778d: ret ; (1 found)
0x427832: ret ; (1 found)
0x427897: ret ; (1 found)
0x4278cf: ret ; (1 found)
0x427914: ret ; (1 found)
0x42791a: ret ; (1 found)
0x427985: ret ; (1 found)
0x427a0a: ret ; (1 found)
0x427a81: ret ; (1 found)
0x427aa5: ret ; (1 found)
0x427aad: ret ; (1 found)
0x427ab4: ret ; (1 found)
0x427af7: ret ; (1 found)
0x427bd0: ret ; (1 found)
0x427c27: ret ; (1 found)
0x401192: retn 0x0000 ; (1 found)
0x409ce6: retn 0x0000 ; (1 found)
0x40a082: retn 0x0000 ; (1 found)
0x40a451: retn 0x0000 ; (1 found)
0x411612: retn 0x0000 ; (1 found)
0x4150ba: retn 0x0000 ; (1 found)
0x41ac02: retn 0x0000 ; (1 found)
0x41c504: retn 0x0000 ; (1 found)
0x42270f: retn 0x0000 ; (1 found)
0x425b8b: retn 0x0000 ; (1 found)
0x40798a: retn 0x0001 ; (1 found)
0x40e629: retn 0x0001 ; (1 found)
0x40e63f: retn 0x0001 ; (1 found)
0x41e11a: retn 0x0001 ; (1 found)
0x40bf5c: retn 0x0002 ; (1 found)
0x419b2a: retn 0x0002 ; (1 found)
0x41a1c9: retn 0x0002 ; (1 found)
0x41a1ca: retn 0x0002 ; (1 found)
0x41a2a9: retn 0x0002 ; (1 found)
0x408c28: retn 0x0003 ; (1 found)
0x409dd6: retn 0x0003 ; (1 found)
0x401fad: retn 0x0043 ; (1 found)
0x40e98d: retn 0x0043 ; (1 found)
0x40e9e6: retn 0x0043 ; (1 found)
0x40e9e7: retn 0x0043 ; (1 found)
0x40eca0: retn 0x0043 ; (1 found)
0x40ecb3: retn 0x0043 ; (1 found)
0x40ecd0: retn 0x0043 ; (1 found)
0x40eea5: retn 0x0043 ; (1 found)
0x40eedd: retn 0x0043 ; (1 found)
0x41eead: retn 0x0049 ; (1 found)
0x414f7a: retn 0x008C ; (1 found)
0x40d77f: retn 0x00B8 ; (1 found)
0x40449a: retn 0x00DB ; (1 found)
0x417355: retn 0x0149 ; (1 found)
0x41904d: retn 0x01B8 ; (1 found)
0x40084a: retn 0x0277 ; (1 found)
0x4156c2: retn 0x0277 ; (1 found)
0x41cc79: retn 0x0293 ; (1 found)
0x41e6d5: retn 0x02BE ; (1 found)
0x4150a7: retn 0x02E9 ; (1 found)
0x40dbb3: retn 0x0348 ; (1 found)
0x40dbb4: retn 0x0348 ; (1 found)
0x425832: retn 0x0349 ; (1 found)
0x425858: retn 0x0349 ; (1 found)
0x425886: retn 0x0349 ; (1 found)
0x4258b8: retn 0x0349 ; (1 found)
0x4258f2: retn 0x0349 ; (1 found)
0x425917: retn 0x0349 ; (1 found)
0x425944: retn 0x0349 ; (1 found)
0x425975: retn 0x0349 ; (1 found)
0x4259a6: retn 0x0349 ; (1 found)
0x4049ca: retn 0x0384 ; (1 found)
0x40d8d6: retn 0x0387 ; (1 found)
0x4026ca: retn 0x03A7 ; (1 found)
0x4231a3: retn 0x03E8 ; (1 found)
0x40363e: retn 0x042E ; (1 found)
0x41e717: retn 0x04BE ; (1 found)
0x4215d5: retn 0x04C6 ; (1 found)
0x406601: retn 0x0589 ; (1 found)
0x406602: retn 0x0589 ; (1 found)
0x40cde7: retn 0x058B ; (1 found)
0x40ce0f: retn 0x058B ; (1 found)
0x40ce27: retn 0x058B ; (1 found)
0x40d107: retn 0x058B ; (1 found)
0x40d247: retn 0x058B ; (1 found)
0x41730d: retn 0x058B ; (1 found)
0x4176c0: retn 0x0673 ; (1 found)
0x4236a2: retn 0x0844 ; (1 found)
0x420dde: retn 0x088B ; (1 found)
0x40a8ee: retn 0x094D ; (1 found)
0x412889: retn 0x0972 ; (1 found)
0x412c2a: retn 0x0972 ; (1 found)
0x425de0: retn 0x0A73 ; (1 found)
0x41db04: retn 0x0B41 ; (1 found)
0x426912: retn 0x0B73 ; (1 found)
0x42395a: retn 0x0C20 ; (1 found)
0x4086f7: retn 0x0C8D ; (1 found)
0x40377b: retn 0x0F01 ; (1 found)
0x405b7d: retn 0x0F01 ; (1 found)
0x40fe46: retn 0x0F01 ; (1 found)
0x41caae: retn 0x0F01 ; (1 found)
0x422f72: retn 0x0F01 ; (1 found)
0x423032: retn 0x0F01 ; (1 found)
0x40ff2c: retn 0x0F02 ; (1 found)
0x41f9df: retn 0x0F02 ; (1 found)
0x41f9cd: retn 0x0F04 ; (1 found)
0x4199f7: retn 0x0F0F ; (1 found)
0x40ede7: retn 0x0F41 ; (1 found)
0x4162a5: retn 0x0F41 ; (1 found)
0x4014bb: retn 0x0F48 ; (1 found)
0x41040e: retn 0x0F48 ; (1 found)
0x40b78b: retn 0x0F49 ; (1 found)
0x40e2e6: retn 0x0F49 ; (1 found)
0x403f1d: retn 0x0F66 ; (1 found)
0x41607b: retn 0x0F66 ; (1 found)
0x41dd8b: retn 0x0F66 ; (1 found)
0x4157eb: retn 0x0F72 ; (1 found)
0x4267d2: retn 0x0FFF ; (1 found)
0x413b09: retn 0x110F ; (1 found)
0x413c5c: retn 0x110F ; (1 found)
0x41f018: retn 0x110F ; (1 found)
0x418ad1: retn 0x1389 ; (1 found)
0x41529f: retn 0x13E9 ; (1 found)
0x40ca19: retn 0x1473 ; (1 found)
0x4230e0: retn 0x14E8 ; (1 found)
0x4118d3: retn 0x1523 ; (1 found)
0x407a57: retn 0x1674 ; (1 found)
0x40e937: retn 0x1674 ; (1 found)
0x40e423: retn 0x1A74 ; (1 found)
0x405652: retn 0x1FEB ; (1 found)
0x4057ea: retn 0x1FEB ; (1 found)
0x405852: retn 0x1FEB ; (1 found)
0x417bcf: retn 0x2141 ; (1 found)
0x413529: retn 0x214C ; (1 found)
0x421fdb: retn 0x214C ; (1 found)
0x421fdc: retn 0x214C ; (1 found)
0x423c19: retn 0x214C ; (1 found)
0x423c98: retn 0x214C ; (1 found)
0x40a938: retn 0x214D ; (1 found)
0x405ab6: retn 0x2774 ; (1 found)
0x419b03: retn 0x2948 ; (1 found)
0x41be90: retn 0x2948 ; (1 found)
0x4229a8: retn 0x2949 ; (1 found)
0x424e35: retn 0x2B48 ; (1 found)
0x42362f: retn 0x3108 ; (1 found)
0x40728d: retn 0x3145 ; (1 found)
0x41f89b: retn 0x3145 ; (1 found)
0x425d4e: retn 0x3941 ; (1 found)
0x40ed95: retn 0x3944 ; (1 found)
0x40b98f: retn 0x3948 ; (1 found)
0x4178ac: retn 0x3948 ; (1 found)
0x41b187: retn 0x3948 ; (1 found)
0x41b434: retn 0x3948 ; (1 found)
0x41ca05: retn 0x3948 ; (1 found)
0x42709b: retn 0x3948 ; (1 found)
0x404b95: retn 0x3949 ; (1 found)
0x413460: retn 0x3949 ; (1 found)
0x413461: retn 0x3949 ; (1 found)
0x408441: retn 0x394C ; (1 found)
0x418a5c: retn 0x394C ; (1 found)
0x419895: retn 0x394C ; (1 found)
0x41ac95: retn 0x394C ; (1 found)
0x41af32: retn 0x394C ; (1 found)
0x42521f: retn 0x3A41 ; (1 found)
0x4216fb: retn 0x3AE9 ; (1 found)
0x42218b: retn 0x3B48 ; (1 found)
0x4221dd: retn 0x3B48 ; (1 found)
0x422212: retn 0x3B48 ; (1 found)
0x407a62: retn 0x3D75 ; (1 found)
0x405bb0: retn 0x4001 ; (1 found)
0x402856: retn 0x40E0 ; (1 found)
0x40216a: retn 0x4101 ; (1 found)
0x416227: retn 0x4101 ; (1 found)
0x40c34e: retn 0x4102 ; (1 found)
0x40c4ce: retn 0x4103 ; (1 found)
0x4257cd: retn 0x4108 ; (1 found)
0x4259f7: retn 0x4108 ; (1 found)
0x425c2c: retn 0x4108 ; (1 found)
0x425e8c: retn 0x4108 ; (1 found)
0x426042: retn 0x4108 ; (1 found)
0x41f8a1: retn 0x4114 ; (1 found)
0x425788: retn 0x4130 ; (1 found)
0x411091: retn 0x41F3 ; (1 found)
0x425a71: retn 0x4230 ; (1 found)
0x411af4: retn 0x428B ; (1 found)
0x410f82: retn 0x4302 ; (1 found)
0x41729e: retn 0x4389 ; (1 found)
0x41729f: retn 0x4389 ; (1 found)
0x4237d2: retn 0x4401 ; (1 found)
0x423712: retn 0x4501 ; (1 found)
0x4255fb: retn 0x4508 ; (1 found)
0x41cc84: retn 0x4589 ; (1 found)
0x41cc85: retn 0x4589 ; (1 found)
0x417301: retn 0x4789 ; (1 found)
0x417302: retn 0x4789 ; (1 found)
0x404cb5: retn 0x4801 ; (1 found)
0x40752a: retn 0x4801 ; (1 found)
0x407679: retn 0x4801 ; (1 found)
0x409c62: retn 0x4801 ; (1 found)
0x410215: retn 0x4801 ; (1 found)
0x41202a: retn 0x4801 ; (1 found)
0x41354a: retn 0x4801 ; (1 found)
0x4137b4: retn 0x4801 ; (1 found)
0x4157f2: retn 0x4801 ; (1 found)
0x415dad: retn 0x4801 ; (1 found)
0x415e3b: retn 0x4801 ; (1 found)
0x415e7d: retn 0x4801 ; (1 found)
0x415f0b: retn 0x4801 ; (1 found)
0x4161df: retn 0x4801 ; (1 found)
0x4216ad: retn 0x4801 ; (1 found)
0x422f02: retn 0x4801 ; (1 found)
0x422fc2: retn 0x4801 ; (1 found)
0x423119: retn 0x4801 ; (1 found)
0x423762: retn 0x4801 ; (1 found)
0x423c3d: retn 0x4801 ; (1 found)
0x423cc0: retn 0x4801 ; (1 found)
0x423de3: retn 0x4801 ; (1 found)
0x4273bf: retn 0x4801 ; (1 found)
0x40e41f: retn 0x4802 ; (1 found)
0x40f3b0: retn 0x4802 ; (1 found)
0x4215bf: retn 0x4802 ; (1 found)
0x40e439: retn 0x4804 ; (1 found)
0x41787c: retn 0x4804 ; (1 found)
0x410f0d: retn 0x4808 ; (1 found)
0x42145a: retn 0x4808 ; (1 found)
0x422062: retn 0x4808 ; (1 found)
0x427723: retn 0x4808 ; (1 found)
0x4278c1: retn 0x4808 ; (1 found)
0x411803: retn 0x480C ; (1 found)
0x41122f: retn 0x4810 ; (1 found)
0x423654: retn 0x4810 ; (1 found)
0x42368b: retn 0x4810 ; (1 found)
0x40a427: retn 0x4850 ; (1 found)
0x40fdf3: retn 0x48EC ; (1 found)
0x409a66: retn 0x48F0 ; (1 found)
0x410617: retn 0x4901 ; (1 found)
0x417dc4: retn 0x4904 ; (1 found)
0x41627a: retn 0x4908 ; (1 found)
0x417deb: retn 0x4966 ; (1 found)
0x4099d5: retn 0x4C01 ; (1 found)
0x40fe7c: retn 0x4C10 ; (1 found)
0x4106ac: retn 0x4C10 ; (1 found)
0x408660: retn 0x4C8B ; (1 found)
0x405ae6: retn 0x4D02 ; (1 found)
0x40c45e: retn 0x4D05 ; (1 found)
0x41010f: retn 0x4E0F ; (1 found)
0x42387a: retn 0x5C05 ; (1 found)
0x4216d8: retn 0x5DE9 ; (1 found)
0x415808: retn 0x6073 ; (1 found)
0x40ca61: retn 0x6348 ; (1 found)
0x4157fa: retn 0x6373 ; (1 found)
0x40c0c0: retn 0x6601 ; (1 found)
0x4203a2: retn 0x6610 ; (1 found)
0x422f46: retn 0x6610 ; (1 found)
0x41609b: retn 0x66C3 ; (1 found)
0x41609c: retn 0x66C3 ; (1 found)
0x41611f: retn 0x66C3 ; (1 found)
0x416120: retn 0x66C3 ; (1 found)
0x42580d: retn 0x6774 ; (1 found)
0x4231a0: retn 0x6948 ; (1 found)
0x4231ec: retn 0x6948 ; (1 found)
0x416469: retn 0x7401 ; (1 found)
0x402ad9: retn 0x7404 ; (1 found)
0x406f88: retn 0x7404 ; (1 found)
0x41644f: retn 0x7404 ; (1 found)
0x402aea: retn 0x7408 ; (1 found)
0x415657: retn 0x7408 ; (1 found)
0x415db4: retn 0x740F ; (1 found)
0x415e84: retn 0x740F ; (1 found)
0x417c64: retn 0x740F ; (1 found)
0x402c38: retn 0x7410 ; (1 found)
0x416486: retn 0x7410 ; (1 found)
0x402afb: retn 0x7420 ; (1 found)
0x402c47: retn 0x7420 ; (1 found)
0x42721c: retn 0x7450 ; (1 found)
0x40284f: retn 0x7506 ; (1 found)
0x416481: retn 0x7508 ; (1 found)
0x4164a9: retn 0x7540 ; (1 found)
0x40ff26: retn 0x7579 ; (1 found)
0x40cf32: retn 0x78E8 ; (1 found)
0x40d78c: retn 0x7974 ; (1 found)
0x423752: retn 0x7FFF ; (1 found)
0x425b1c: retn 0x8003 ; (1 found)
0x403705: retn 0x8148 ; (1 found)
0x421d5d: retn 0x8149 ; (1 found)
0x4184c6: retn 0x820F ; (1 found)
0x418b27: retn 0x820F ; (1 found)
0x418cae: retn 0x820F ; (1 found)
0x418dba: retn 0x820F ; (1 found)
0x418e2a: retn 0x820F ; (1 found)
0x419807: retn 0x820F ; (1 found)
0x41f37f: retn 0x820F ; (1 found)
0x41f433: retn 0x820F ; (1 found)
0x41fbd9: retn 0x8302 ; (1 found)
0x413eba: retn 0x830F ; (1 found)
0x41951f: retn 0x830F ; (1 found)
0x40cdb1: retn 0x8310 ; (1 found)
0x40edf8: retn 0x8341 ; (1 found)
0x42411b: retn 0x8341 ; (1 found)
0x42411c: retn 0x8341 ; (1 found)
0x404a29: retn 0x8348 ; (1 found)
0x41294c: retn 0x8348 ; (1 found)
0x4129c2: retn 0x8348 ; (1 found)
0x412a02: retn 0x8348 ; (1 found)
0x412cee: retn 0x8348 ; (1 found)
0x412d62: retn 0x8348 ; (1 found)
0x412da2: retn 0x8348 ; (1 found)
0x414651: retn 0x8348 ; (1 found)
0x4165d5: retn 0x8348 ; (1 found)
0x4177f0: retn 0x8348 ; (1 found)
0x4193cf: retn 0x8348 ; (1 found)
0x41954a: retn 0x8348 ; (1 found)
0x419bf0: retn 0x8348 ; (1 found)
0x419cc3: retn 0x8348 ; (1 found)
0x41ad3e: retn 0x8348 ; (1 found)
0x41afd6: retn 0x8348 ; (1 found)
0x41b164: retn 0x8348 ; (1 found)
0x41f78f: retn 0x8348 ; (1 found)
0x421f92: retn 0x8348 ; (1 found)
0x423664: retn 0x8348 ; (1 found)
0x42506d: retn 0x8348 ; (1 found)
0x425145: retn 0x8348 ; (1 found)
0x4273a7: retn 0x8348 ; (1 found)
0x427783: retn 0x8348 ; (1 found)
0x401458: retn 0x8349 ; (1 found)
0x41756b: retn 0x8389 ; (1 found)
0x41a8f3: retn 0x8389 ; (1 found)
0x409bfe: retn 0x8401 ; (1 found)
0x409c8e: retn 0x8401 ; (1 found)
0x40f7fe: retn 0x840F ; (1 found)
0x41888b: retn 0x840F ; (1 found)
0x41b285: retn 0x840F ; (1 found)
0x41d85f: retn 0x840F ; (1 found)
0x41d88e: retn 0x840F ; (1 found)
0x41d8ba: retn 0x840F ; (1 found)
0x4250bb: retn 0x840F ; (1 found)
0x402888: retn 0x8445 ; (1 found)
0x4151a5: retn 0x8445 ; (1 found)
0x402179: retn 0x8501 ; (1 found)
0x4021a2: retn 0x8501 ; (1 found)
0x4021fa: retn 0x8501 ; (1 found)
0x402252: retn 0x8501 ; (1 found)
0x4036c4: retn 0x850F ; (1 found)
0x40afc3: retn 0x850F ; (1 found)
0x418b86: retn 0x850F ; (1 found)
0x41a16f: retn 0x850F ; (1 found)
0x41d7c5: retn 0x850F ; (1 found)
0x41d807: retn 0x850F ; (1 found)
0x411408: retn 0x8548 ; (1 found)
0x415a5a: retn 0x8548 ; (1 found)
0x419859: retn 0x8548 ; (1 found)
0x419d3b: retn 0x8548 ; (1 found)
0x421be2: retn 0x8548 ; (1 found)
0x42369b: retn 0x8548 ; (1 found)
0x426f84: retn 0x8548 ; (1 found)
0x407e45: retn 0x8589 ; (1 found)
0x407f03: retn 0x8589 ; (1 found)
0x425a9a: retn 0x85E9 ; (1 found)
0x4133cf: retn 0x87EB ; (1 found)
0x411fed: retn 0x8830 ; (1 found)
0x422c94: retn 0x8901 ; (1 found)
0x40844a: retn 0x8941 ; (1 found)
0x411336: retn 0x8941 ; (1 found)
0x41ab44: retn 0x8941 ; (1 found)
0x41b4b1: retn 0x8941 ; (1 found)
0x41bffd: retn 0x8941 ; (1 found)
0x4222cd: retn 0x8941 ; (1 found)
0x42414e: retn 0x8941 ; (1 found)
0x4274d8: retn 0x8941 ; (1 found)
0x4275b8: retn 0x8941 ; (1 found)
0x403585: retn 0x8944 ; (1 found)
0x409af9: retn 0x8944 ; (1 found)
0x409b22: retn 0x8944 ; (1 found)
0x40de0e: retn 0x8944 ; (1 found)
0x40ef72: retn 0x8944 ; (1 found)
0x4243f6: retn 0x8944 ; (1 found)
0x401388: retn 0x8948 ; (1 found)
0x401389: retn 0x8948 ; (1 found)
0x4014be: retn 0x8948 ; (1 found)
0x4014bf: retn 0x8948 ; (1 found)
0x404485: retn 0x8948 ; (1 found)
0x404510: retn 0x8948 ; (1 found)
0x404511: retn 0x8948 ; (1 found)
0x40ce80: retn 0x8948 ; (1 found)
0x411d73: retn 0x8948 ; (1 found)
0x411d74: retn 0x8948 ; (1 found)
0x41352c: retn 0x8948 ; (1 found)
0x4188d5: retn 0x8948 ; (1 found)
0x419504: retn 0x8948 ; (1 found)
0x419607: retn 0x8948 ; (1 found)
0x4198d3: retn 0x8948 ; (1 found)
0x419b55: retn 0x8948 ; (1 found)
0x41b2e7: retn 0x8948 ; (1 found)
0x42053c: retn 0x8948 ; (1 found)
0x421ca4: retn 0x8948 ; (1 found)
0x422e53: retn 0x8948 ; (1 found)
0x42322c: retn 0x8948 ; (1 found)
0x424938: retn 0x8948 ; (1 found)
0x42494e: retn 0x8948 ; (1 found)
0x424d92: retn 0x8948 ; (1 found)
0x426b14: retn 0x8948 ; (1 found)
0x40a9d7: retn 0x8949 ; (1 found)
0x40d1ed: retn 0x8949 ; (1 found)
0x410099: retn 0x8949 ; (1 found)
0x410411: retn 0x8949 ; (1 found)
0x410412: retn 0x8949 ; (1 found)
0x410895: retn 0x8949 ; (1 found)
0x416d6d: retn 0x8949 ; (1 found)
0x41766e: retn 0x8949 ; (1 found)
0x4177ea: retn 0x8949 ; (1 found)
0x41a408: retn 0x8949 ; (1 found)
0x40dc49: retn 0x894A ; (1 found)
0x40d0c7: retn 0x894C ; (1 found)
0x40d5d8: retn 0x894C ; (1 found)
0x419a60: retn 0x894C ; (1 found)
0x41cc93: retn 0x894C ; (1 found)
0x41d019: retn 0x894C ; (1 found)
0x422c14: retn 0x894C ; (1 found)
0x416d16: retn 0x894D ; (1 found)
0x4074c5: retn 0x8B14 ; (1 found)
0x405483: retn 0x8B48 ; (1 found)
0x405484: retn 0x8B48 ; (1 found)
0x4081cd: retn 0x8B48 ; (1 found)
0x408591: retn 0x8B48 ; (1 found)
0x40a011: retn 0x8B48 ; (1 found)
0x413eb3: retn 0x8B48 ; (1 found)
0x4169b2: retn 0x8B48 ; (1 found)
0x416abe: retn 0x8B48 ; (1 found)
0x416ada: retn 0x8B48 ; (1 found)
0x416bf6: retn 0x8B48 ; (1 found)
0x417df4: retn 0x8B48 ; (1 found)
0x419f0c: retn 0x8B48 ; (1 found)
0x424e5a: retn 0x8B48 ; (1 found)
0x418668: retn 0x8B49 ; (1 found)
0x4210b3: retn 0x8B4C ; (1 found)
0x40dcf4: retn 0x8D01 ; (1 found)
0x404a7d: retn 0x8D48 ; (1 found)
0x4225d7: retn 0x8D48 ; (1 found)
0x425fdb: retn 0x8D48 ; (1 found)
0x42742d: retn 0x8D4A ; (1 found)
0x419bdb: retn 0x8D4C ; (1 found)
0x419cae: retn 0x8D4C ; (1 found)
0x41733f: retn 0x8E73 ; (1 found)
0x425a8e: retn 0x91E9 ; (1 found)
0x4133cc: retn 0x940F ; (1 found)
0x424be5: retn 0x9680 ; (1 found)
0x41d832: retn 0x9774 ; (1 found)
0x413633: retn 0x97E9 ; (1 found)
0x4255c7: retn 0xADEB ; (1 found)
0x4016f7: retn 0xAF0F ; (1 found)
0x4016fa: retn 0xAF0F ; (1 found)
0x40d9d0: retn 0xAF0F ; (1 found)
0x41a9d3: retn 0xB60F ; (1 found)
0x41aab3: retn 0xB60F ; (1 found)
0x41dc1c: retn 0xB60F ; (1 found)
0x41f8e4: retn 0xB60F ; (1 found)
0x42214d: retn 0xB60F ; (1 found)
0x42313c: retn 0xB60F ; (1 found)
0x42314e: retn 0xB60F ; (1 found)
0x4253f1: retn 0xB60F ; (1 found)
0x425b5a: retn 0xB60F ; (1 found)
0x404d1b: retn 0xB70F ; (1 found)
0x408670: retn 0xB70F ; (1 found)
0x405c0c: retn 0xB802 ; (1 found)
0x42492b: retn 0xB848 ; (1 found)
0x410b08: retn 0xB8EB ; (1 found)
0x40c180: retn 0xB901 ; (1 found)
0x425d27: retn 0xBD80 ; (1 found)
0x40c135: retn 0xBE01 ; (1 found)
0x427439: retn 0xBE02 ; (1 found)
0x426bf3: retn 0xBE0F ; (1 found)
0x42082e: retn 0xBE90 ; (1 found)
0x403f5e: retn 0xC031 ; (1 found)
0x403ff7: retn 0xC031 ; (1 found)
0x405cf4: retn 0xC031 ; (1 found)
0x41ef64: retn 0xC031 ; (1 found)
0x42522b: retn 0xC031 ; (1 found)
0x42766a: retn 0xC031 ; (1 found)
0x405360: retn 0xC085 ; (1 found)
0x405623: retn 0xC085 ; (1 found)
0x4057ac: retn 0xC085 ; (1 found)
0x407539: retn 0xC101 ; (1 found)
0x413533: retn 0xC148 ; (1 found)
0x41379d: retn 0xC148 ; (1 found)
0x416519: retn 0xC148 ; (1 found)
0x41758a: retn 0xC148 ; (1 found)
0x41781b: retn 0xC148 ; (1 found)
0x417872: retn 0xC148 ; (1 found)
0x41a912: retn 0xC148 ; (1 found)
0x41ab64: retn 0xC148 ; (1 found)
0x41c01e: retn 0xC148 ; (1 found)
0x423c26: retn 0xC148 ; (1 found)
0x423ca9: retn 0xC148 ; (1 found)
0x423dcc: retn 0xC148 ; (1 found)
0x424924: retn 0xC148 ; (1 found)
0x424947: retn 0xC148 ; (1 found)
0x4271c8: retn 0xC166 ; (1 found)
0x417591: retn 0xC1F6 ; (1 found)
0x41a919: retn 0xC1F6 ; (1 found)
0x41ab6b: retn 0xC1F6 ; (1 found)
0x41c025: retn 0xC1F6 ; (1 found)
0x42082b: retn 0xC2EB ; (1 found)
0x42082c: retn 0xC2EB ; (1 found)
0x410afd: retn 0xC304 ; (1 found)
0x410afe: retn 0xC304 ; (1 found)
0x41cb56: retn 0xC35D ; (1 found)
0x41cb57: retn 0xC35D ; (1 found)
0x426013: retn 0xC3EB ; (1 found)
0x420412: retn 0xC510 ; (1 found)
0x423007: retn 0xC510 ; (1 found)
0x404afa: retn 0xC748 ; (1 found)
0x404afb: retn 0xC748 ; (1 found)
0x4231ef: retn 0xCA00 ; (1 found)
0x41cc47: retn 0xCA83 ; (1 found)
0x41142d: retn 0xCE89 ; (1 found)
0x40a1df: retn 0xD009 ; (1 found)
0x410b90: retn 0xD009 ; (1 found)
0x41f73d: retn 0xD009 ; (1 found)
0x411fce: retn 0xD021 ; (1 found)
0x4272ff: retn 0xD139 ; (1 found)
0x40d31d: retn 0xD201 ; (1 found)
0x41de54: retn 0xD230 ; (1 found)
0x4151ea: retn 0xD285 ; (1 found)
0x40284b: retn 0xD2F7 ; (1 found)
0x41de60: retn 0xD2F7 ; (1 found)
0x417597: retn 0xD348 ; (1 found)
0x417598: retn 0xD348 ; (1 found)
0x41a91f: retn 0xD348 ; (1 found)
0x41a920: retn 0xD348 ; (1 found)
0x41ab71: retn 0xD348 ; (1 found)
0x41ab72: retn 0xD348 ; (1 found)
0x41c02b: retn 0xD348 ; (1 found)
0x41c02c: retn 0xD348 ; (1 found)
0x419ef8: retn 0xD575 ; (1 found)
0x408826: retn 0xD609 ; (1 found)
0x409ddb: retn 0xDAF7 ; (1 found)
0x41e382: retn 0xDAF7 ; (1 found)
0x420ebb: retn 0xDAF7 ; (1 found)
0x411166: retn 0xDC00 ; (1 found)
0x40de2f: retn 0xDDEB ; (1 found)
0x409f2c: retn 0xDE89 ; (1 found)
0x41d7ea: retn 0xDF74 ; (1 found)
0x426c11: retn 0xE0EB ; (1 found)
0x41d464: retn 0xE281 ; (1 found)
0x4077a7: retn 0xE283 ; (1 found)
0x4133b9: retn 0xE283 ; (1 found)
0x4161c0: retn 0xE283 ; (1 found)
0x41db44: retn 0xE283 ; (1 found)
0x41de0b: retn 0xE283 ; (1 found)
0x41de4a: retn 0xE283 ; (1 found)
0x41deee: retn 0xE283 ; (1 found)
0x423d90: retn 0xE283 ; (1 found)
0x423ff8: retn 0xE283 ; (1 found)
0x412032: retn 0xE372 ; (1 found)
0x41f52f: retn 0xE673 ; (1 found)
0x40f3b4: retn 0xE975 ; (1 found)
0x425dea: retn 0xE9EB ; (1 found)
0x404363: retn 0xEA75 ; (1 found)
0x419c83: retn 0xEA75 ; (1 found)
0x405bde: retn 0xEB01 ; (1 found)
0x40c264: retn 0xEB02 ; (1 found)
0x41e974: retn 0xEB10 ; (1 found)
0x41edd3: retn 0xEBE8 ; (1 found)
0x40fdea: retn 0xEC05 ; (1 found)
0x40fe80: retn 0xED75 ; (1 found)
0x4106b0: retn 0xED75 ; (1 found)
0x40e177: retn 0xEE75 ; (1 found)
0x40e43d: retn 0xF075 ; (1 found)
0x40e8fd: retn 0xF075 ; (1 found)
0x40e94d: retn 0xF075 ; (1 found)
0x40dec6: retn 0xF189 ; (1 found)
0x40dec7: retn 0xF189 ; (1 found)
0x41de74: retn 0xF229 ; (1 found)
0x40daeb: retn 0xF748 ; (1 found)
0x40e347: retn 0xFCB8 ; (1 found)
0x41bc95: retn 0xFE7F ; (1 found)
0x41e208: retn 0xFF01 ; (1 found)
0x4110a3: retn 0xFF3D ; (1 found)
0x4213fa: retn 0xFF3E ; (1 found)
0x407474: retn 0xFF85 ; (1 found)
0x406243: retn 0xFFB8 ; (1 found)
0x404afe: retn 0xFFFC ; (1 found)
0x42326a: retn 0xFFFE ; (1 found)
0x424041: retn 0xFFFE ; (1 found)
0x401cca: retn 0xFFFF ; (1 found)
0x404af3: retn 0xFFFF ; (1 found)
0x4067d0: retn 0xFFFF ; (1 found)
0x408f0a: retn 0xFFFF ; (1 found)
0x408f0b: retn 0xFFFF ; (1 found)
0x408f92: retn 0xFFFF ; (1 found)
0x40b0d6: retn 0xFFFF ; (1 found)
0x40b0fe: retn 0xFFFF ; (1 found)
0x40b11e: retn 0xFFFF ; (1 found)
0x4123dc: retn 0xFFFF ; (1 found)
0x4131ab: retn 0xFFFF ; (1 found)
0x4131ca: retn 0xFFFF ; (1 found)
0x415b0a: retn 0xFFFF ; (1 found)
0x418bd0: retn 0xFFFF ; (1 found)
0x41adb2: retn 0xFFFF ; (1 found)
0x417593: rol  [rax+0x48], 0x0F ; retn 0xD348 ; (1 found)
0x41a91b: rol  [rax+0x48], 0x0F ; retn 0xD348 ; (1 found)
0x41ab6d: rol  [rax+0x48], 0x0F ; retn 0xD348 ; (1 found)
0x41c027: rol  [rax+0x48], 0x0F ; retn 0xD348 ; (1 found)
0x425d23: rol  [rcx+0x0F], 0xFFFFFF93 ; retn 0xBD80 ; (1 found)
0x4169f2: rol bl, 0x48 ; mov eax, edi ; ret ; (1 found)
0x41591c: rol byte [rax+0x0307283D], 0x00 ; add byte [rbp+0x0A], dh ; ret ; (1 found)
0x4253bf: rol byte [rax+0x0B74FFF9], cl ; mov eax, edx ; ret ; (1 found)
0x416095: rol byte [rax+0x0F480038], cl ; retn 0x66C3 ; (1 found)
0x416119: rol byte [rax+0x0F480038], cl ; retn 0x66C3 ; (1 found)
0x410a81: rol byte [rax+rcx*2], 0x98 ; mov rax, qword [rsi+rax] ; ret ; (1 found)
0x4271c3: rol byte [rax-0x0A], 1 ; out 0x89, eax ; retn 0xC166 ; (1 found)
0x4086f1: rol byte [rax-0x6BF0A4C1], cl ; retn 0x0C8D ; (1 found)
0x4033ef: rol byte [rbx+0x0B770FF8], 1 ; mov  [0x0000000000445F88], 0x00000009 ; ret ; (1 found)
0x4033f0: rol byte [rbx+0x0B770FF8], 1 ; mov  [0x0000000000445F88], 0x00000009 ; ret ; (1 found)
0x427114: rol byte [rbx-0x177C3F20], 0x80 ; ret ; (1 found)
0x4270eb: rol byte [rbx-0x3F7C0320], 0x08 ; ret ; (1 found)
0x41f766: rol byte [rbx-0x69F0A201], 0xC0 ; ret ; (1 found)
0x40a1d9: rol byte [rbx-0x6BF0E301], 0xC2 ; or eax, edx ; ret ; (1 found)
0x41ad1b: rol byte [rbx-0x7AF0FC19], 1 ; ret ; (1 found)
0x41afb3: rol byte [rbx-0x7AF0FC19], 1 ; ret ; (1 found)
0x42369e: rol byte [rcx+0x0F], 0x94 ; retn 0x0844 ; (1 found)
0x412687: rol byte [rcx+rbp-0x40], 0xC3 ; nop  [rax+0x00] ; ret ; (1 found)
0x415db1: rol byte [rcx], 0xF6 ; retn 0x740F ; (1 found)
0x415e81: rol byte [rcx], 0xF6 ; retn 0x740F ; (1 found)
0x424118: rol byte [rdi+rcx+0x47], 1 ; retn 0x8341 ; (1 found)
0x41629f: rol cl, 0xE8 ; add ecx,  [rax+0x01] ; retn 0x0F41 ; (1 found)
0x418f40: ror  [rax+0x39], 0xFFFFFFB4 ; ret ; (1 found)
0x418eea: ror  [rax+0x39], 0xFFFFFFBC ; ret ; (1 found)
0x4081ca: ror  [rax-0x77], 1 ; retn 0x8B48 ; (1 found)
0x424e57: ror  [rax-0x77], 1 ; retn 0x8B48 ; (1 found)
0x407676: ror  [rax-0x7D], 1 ; retn 0x4801 ; (1 found)
0x415daa: ror  [rax-0x7D], 1 ; retn 0x4801 ; (1 found)
0x415e7a: ror  [rax-0x7D], 1 ; retn 0x4801 ; (1 found)
0x4216aa: ror  [rax-0x7D], 1 ; retn 0x4801 ; (1 found)
0x418468: ror  [rbp+0x39], 0xFFFFFFB4 ; ret ; (1 found)
0x418b83: ror  [rcx+0x39], cl ; retn 0x850F ; (1 found)
0x4099d2: ror  [rcx-0x7D], 1 ; retn 0x4C01 ; (1 found)
0x41f2dd: ror byte [0x000000000042332C], 1 ; ret ; (1 found)
0x403776: ror byte [fs:rax-0x7D], 1 ; retn 0x0F01 ; (1 found)
0x41a9d6: ror byte [rax+0x09], cl ; fimul word [rax-0x77] ; ret ; (1 found)
0x421fd8: ror byte [rax+0x0F], 1 ; retn 0x214C ; (1 found)
0x41345d: ror byte [rax+0x0F], 1 ; retn 0x3949 ; (1 found)
0x41729b: ror byte [rax+0x0F], 1 ; retn 0x4389 ; (1 found)
0x401385: ror byte [rax+0x0F], 1 ; retn 0x8948 ; (1 found)
0x40b1df: ror byte [rax+0x21], 1 ; ret ; (1 found)
0x41631a: ror byte [rax+0x29], 1 ; clc ; ret ; (1 found)
0x416376: ror byte [rax+0x29], 1 ; clc ; ret ; (1 found)
0x413171: ror byte [rax+0x39], 0xD1 ; sbb eax, 0x00000000 ; ret ; (1 found)
0x425fd8: ror byte [rax+0x63], cl ; retn 0x8D48 ; (1 found)
0x4123d9: ror byte [rax-0x007F], 1 ; retn 0xFFFF ; (1 found)
0x424ca8: ror byte [rax-0x73], 1 ; add al, 0x41 ; ret ; (1 found)
0x424d28: ror byte [rax-0x73], 1 ; add al, 0x41 ; ret ; (1 found)
0x410afa: ror byte [rax-0x75], 0x44 ; retn 0xC304 ; (1 found)
0x41c1a8: ror byte [rax-0x75], 0x75 ; enter 0x8948, 0xD7 ; call rsi ; (1 found)
0x41fbca: ror byte [rax-0x75], 0x75 ; enter 0x894C, 0xF7 ; call r15 ; (1 found)
0x41a530: ror byte [rax-0x75], 0x84 ; ret ; (1 found)
0x4231f9: ror byte [rax-0x77], 1 ; cli ; ret ; (1 found)
0x4216f8: ror byte [rax-0x77], 1 ; retn 0x3AE9 ; (1 found)
0x40d317: ror byte [rax-0x7B], cl ; test byte [rdi], 0x94 ; retn 0xD201 ; (1 found)
0x40fef6: ror byte [rax-0x7D], 0xC0 ; adc byte [rcx+0x39], cl ; ret ; (1 found)
0x427890: ror byte [rax-0x7D], 0xC4 ; sbb byte [rbx+0x5D], bl ; ret ; (1 found)
0x403777: ror byte [rax-0x7D], 1 ; retn 0x0F01 ; (1 found)
0x403778: ror byte [rax-0x7D], 1 ; retn 0x0F01 ; (1 found)
0x407536: ror byte [rax-0x7D], 1 ; retn 0xC101 ; (1 found)
0x417dc1: ror byte [rax-0x7D], cl ; retn 0x4904 ; (1 found)
0x40afbb: ror byte [rbx+0x02D5EE35], 1 ; add byte [rcx], bh ; retn 0x850F ; (1 found)
0x40ca10: ror byte [rbx+0x1F0F2043], cl ; add byte [rcx], dil ; retn 0x1473 ; (1 found)
0x420729: ror byte [rbx-0x74B737B3], 0x55 ; sal byte [rax+rbp+0x48], 0x83 ; ret ; (1 found)
0x4255f4: ror byte [rcx+0x03], 1 ; adc byte [r9-0x7D], r8L ; retn 0x4508 ; (1 found)
0x41aab6: ror byte [rcx+0x09], cl ; fmul qword [rax-0x77] ; ret ; (1 found)
0x41fba6: ror byte [rcx+rcx*4-0x0A], 0x41 ; call rdi ; (1 found)
0x402849: ror byte [rcx-0x092D083E], 1 ; retn 0x7506 ; (1 found)
0x401daa: ror byte [rcx-0x77], 0x34 ; ret ; (1 found)
0x40dbb0: ror byte [rdi+rcx+0x4F], 1 ; retn 0x0348 ; (1 found)
0x423fef: ror byte [rdi], 0x11 ; xchg  [rax-0x77000000], ecx ; retn 0xE283 ; (1 found)
0x42667a: ror byte [rdi], 0x82 ; ret ; (1 found)
0x406ba6: ror byte [rdi], 0x84 ; ret ; (1 found)
0x408c25: ror byte [rdi], 0x84 ; retn 0x0003 ; (1 found)
0x404381: ror byte [rdi], 0x85 ; ret ; (1 found)
0x410af7: ror byte [rdi], 0x94 ; ror byte [rax-0x75], 0x44 ; retn 0xC304 ; (1 found)
0x40f610: ror byte [rdi], 0x95 ; ret ; (1 found)
0x40d77c: ror byte [rdi], 0x95 ; retn 0x00B8 ; (1 found)
0x423139: ror byte [rdi], 0x9C ; retn 0xB60F ; (1 found)
0x42314b: ror byte [rdi], 0x9C ; retn 0xB60F ; (1 found)
0x411333: ror byte [rdi], 0xAB ; retn 0x8941 ; (1 found)
0x410b92: ror byte [rdi], 1 ; mov dh, 0xC0 ; ret ; (1 found)
0x41f73f: ror byte [rdi], 1 ; mov dh, 0xC0 ; ret ; (1 found)
0x4172ff: ror byte [rdi], 1 ; retn 0x4789 ; (1 found)
0x40dec4: ror byte [rdi], 1 ; retn 0xF189 ; (1 found)
0x411fcb: ror byte [rdi], cl ; xchg eax, ebp ; retn 0xD021 ; (1 found)
0x424d5c: ror byte [rdx+rax*2+0x00], 0x5D ; ret ; (1 found)
0x405336: ror cl, 1 ; ret ; (1 found)
0x41ef25: ror cl, 1 ; ret ; (1 found)
0x412720: sal  [rbp-0x1B], 1 ; ret ; (1 found)
0x427301: sal  [rdx-0x24], 1 ; mov eax, 0xFFFFFFFF ; ret ; (1 found)
0x420730: sal byte [rax+rbp+0x48], 0x83 ; ret ; (1 found)
0x416aa6: sal byte [rbp+0x16], cl ; mov rax, rdx ; ret ; (1 found)
0x41f8ef: sal byte [rbp+0x4E], cl ; xor eax, eax ; ret ; (1 found)
0x426aee: sal byte [rbp+0x50], 0x48 ; sub esp, 0x20 ; call r13 ; (1 found)
0x4169b9: sal byte [rbp-0x0C], 0x48 ; mov eax, edx ; ret ; (1 found)
0x416ae1: sal byte [rbp-0x0C], 0x48 ; mov eax, edx ; ret ; (1 found)
0x420345: sal byte [rbp-0x18], cl ; mov eax, 0x00000001 ; ret ; (1 found)
0x416419: sal byte [rbp-0x1C], 0x44 ; sub eax, eax ; ret ; (1 found)
0x41a246: sal byte [rbx+rbx*4+0x4C], 0x89 ; out dx, eax ; call 0x00000000 ; (1 found)
0x40015a: sal byte [rcx+rcx-0x45], 0x07 ; add byte [rsi+rcx-0x0D14EF33], dh ; ret ; (1 found)
0x404792: sal byte [rcx], cl ; leave ; call 0x00000000 ; (1 found)
0x404802: sal byte [rcx], cl ; leave ; call 0x00000000 ; (1 found)
0x405ccc: sal byte [rdi+rax-0x77], 0xF7 ; call 0x00000000 ; (1 found)
0x4212c7: sal byte [rsi+rax*2+0x48], 0x89 ; ret ; (1 found)
0x427024: sal byte [rsi+rax-0x0A], 0x40 ; add  [rbx+rax+0x5D], esi ; ret ; (1 found)
0x416b46: sal byte [rsp+rbx+0x48], 0x89 ; ret ; (1 found)
0x416ab9: sal byte [rsp+rsi+0x48], 0x89 ; retn 0x8B48 ; (1 found)
0x40284d: sal dh, cl ; retn 0x7506 ; (1 found)
0x40156d: salc ; ret ; (1 found)
0x4245f6: salc ; syscall ; (1 found)
0x42244e: sar  [rdx+0x7F], 0x00000000 ; mov rax, r8 ; ret ; (1 found)
0x424c18: sar al, 1 ; syscall ; (1 found)
0x403d04: sar bh, 0xFF ; call qword [rax-0x6F6F6F70] ; (1 found)
0x41e3fe: sar byte [rax+0x07], 0x5D ; ret ; (1 found)
0x4005c0: sar byte [rcx-0x0C03FFF8], 0xAB ; ret ; (1 found)
0x4133c9: sar byte [rcx], 1 ; retn 0x940F ; (1 found)
0x4133ca: sar byte [rcx], 1 ; retn 0x940F ; (1 found)
0x415cf6: sar byte [rdi+0x1F], 0x5D ; ret ; (1 found)
0x40e931: sar dh, 0xFF ; dec  [rax+0x39] ; retn 0x1674 ; (1 found)
0x423fa7: sar dh, 0xFF ; jmp qword [rbp+0x48] ; (1 found)
0x420eca: sar dh, 0xFF ; jmp qword [rsi-0x70] ; (1 found)
0x4203c4: sar eax, 1 ; ret ; (1 found)
0x420430: sar eax, 1 ; ret ; (1 found)
0x4203c3: sar rax, 1 ; ret ; (1 found)
0x42042f: sar rax, 1 ; ret ; (1 found)
0x401a39: sbb  [rax], eax ; add byte [rax], al ; call qword [rax] ; (1 found)
0x40a1dc: sbb al, 0x0F ; xchg eax, esp ; retn 0xD009 ; (1 found)
0x4172fd: sbb al, 0x39 ; ror byte [rdi], 1 ; retn 0x4789 ; (1 found)
0x41733a: sbb al, 0x8B ; and byte [r9], dil ; retn 0x8E73 ; (1 found)
0x422184: sbb al, 0xBA ; add byte [rax-0x77], cl ; retn 0x3B48 ; (1 found)
0x4221d6: sbb al, 0xBA ; add byte [rax-0x77], cl ; retn 0x3B48 ; (1 found)
0x42220b: sbb al, 0xBA ; add byte [rax-0x77], cl ; retn 0x3B48 ; (1 found)
0x41e73b: sbb al, 0xFF ; call qword [rax+0x0020BA90] ; (1 found)
0x41e6f8: sbb al, 0xFF ; call qword [rax-0x41FFE0F1] ; (1 found)
0x41e6f9: sbb al, 0xFF ; call qword [rax-0x41FFE0F1] ; (1 found)
0x4034bb: sbb al, byte [rax] ; add byte [rax], al ; ret ; (1 found)
0x41464c: sbb al, byte [rbx] ; add byte [rax-0x77], cl ; retn 0x8348 ; (1 found)
0x414f78: sbb al, ch ; retn 0x008C ; (1 found)
0x4184c2: sbb byte [r9+0x39], cl ; retn 0x820F ; (1 found)
0x401382: sbb byte [rax+0x39], cl ; ror byte [rax+0x0F], 1 ; retn 0x8948 ; (1 found)
0x416fef: sbb byte [rax-0x39], cl ; ret ; (1 found)
0x424561: sbb byte [rax-0x75], cl ; ret ; (1 found)
0x40d3fe: sbb byte [rax-0x77], cl ; ret ; (1 found)
0x421ea7: sbb byte [rax-0x7D], cl ; ret ; (1 found)
0x40f116: sbb byte [rax], al ; add byte [rax-0x77], cl ; ret ; (1 found)
0x40f117: sbb byte [rax], al ; add byte [rax-0x77], cl ; ret ; (1 found)
0x427894: sbb byte [rbx+0x5D], bl ; ret ; (1 found)
0x4184c3: sbb byte [rcx+0x39], cl ; retn 0x820F ; (1 found)
0x411492: sbb cl, byte [rbx+0x00] ; add byte [rcx+rcx*4-0x09], cl ; call r13 ; (1 found)
0x416499: sbb eax,  [rax] ; add byte [rcx], al ; syscall ; (1 found)
0x413175: sbb eax, 0x00000000 ; ret ; (1 found)
0x40404f: sbb eax, 0x0002B1AC ; mov ecx, 0x0000FDE9 ; call rbx ; (1 found)
0x40c5cf: sbb eax, 0x9000003E ; leave ; ret ; (1 found)
0x400147: sbb eax, 0xF6300376 ; ret ; (1 found)
0x41cbfa: sbb eax, 0xFE712BE8 ; dec  [rax-0x77] ; ret ; (1 found)
0x4220e4: sbb eax, 0xFFFFFFFF ; ret ; (1 found)
0x422126: sbb eax, 0xFFFFFFFF ; ret ; (1 found)
0x41e751: sbb edi, edi ; call qword [rax-0x45FFE0F1] ; (1 found)
0x41e769: sbb edi, edi ; call qword [rax-0x6FFFE0F1] ; (1 found)
0x41464b: sbb r8L, byte [r11] ; add byte [rax-0x77], cl ; retn 0x8348 ; (1 found)
0x4016f9: scasd ; retn 0xAF0F ; (1 found)
0x417589: scasd ; retn 0xC148 ; (1 found)
0x41a911: scasd ; retn 0xC148 ; (1 found)
0x41ab63: scasd ; retn 0xC148 ; (1 found)
0x41c01d: scasd ; retn 0xC148 ; (1 found)
0x4243ba: setb al ; movzx eax, al ; ret ; (1 found)
0x409b84: setb al ; pop rbp ; ret ; (1 found)
0x41f76a: setbe al ; ret ; (1 found)
0x403fa0: sete al ; leave ; ret ; (1 found)
0x410af8: sete al ; mov rax, qword [rdx+rax*8+0x04] ; ret ; (1 found)
0x412482: sete al ; ret ; (1 found)
0x4124d2: sete al ; ret ; (1 found)
0x40a1dd: sete dl ; or eax, edx ; ret ; (1 found)
0x427674: setnb al ; and eax, edx ; ret ; (1 found)
0x40b608: setnl bh ; call qword [rax-0x6F6F6F70] ; (1 found)
0x41109e: shl  [fs:rsi+0x0F], 1 ; xlatb ; retn 0xFF3D ; (1 found)
0x417df0: shl  [rsi+0x0F], 1 ; insb ; retn 0x8B48 ; (1 found)
0x41109f: shl  [rsi+0x0F], 1 ; xlatb ; retn 0xFF3D ; (1 found)
0x427676: shl byte [rcx], 0xD0 ; ret ; (1 found)
0x411406: shl byte [rcx], 1 ; retn 0x8548 ; (1 found)
0x41142b: shl byte [rcx], 1 ; retn 0xCE89 ; (1 found)
0x41edd1: shl byte [rcx], 1 ; retn 0xEBE8 ; (1 found)
0x40c149: shl byte [rsi-0x77], 0x07 ; mov rax, rdx ; ret ; (1 found)
0x424bf6: shl eax, 0x02 ; xchg rax, rdx ; ret ; (1 found)
0x424bf5: shl rax, 0x02 ; xchg rax, rdx ; ret ; (1 found)
0x4193c7: shr al, 0x73 ; mov ecx, 0x8948FFFF ; retn 0x8348 ; (1 found)
0x40459c: shr byte [rbx-0x09CEFFFE], 1 ; movsx ecx, byte [rsi+0x0042AC14] ; call r14 ; (1 found)
0x41f2bf: shr eax, 0x10 ; ret ; (1 found)
0x404cdb: shr eax, 0x18 ; mov  [rsi], edi ; ret ; (1 found)
0x4221a4: shr eax, 0x21 ; add eax, edx ; ret ; (1 found)
0x4221f6: shr eax, 0x21 ; add eax, edx ; ret ; (1 found)
0x42222b: shr eax, 0x21 ; lea eax,  [rdx+rax+0x01] ; ret ; (1 found)
0x424b78: shr eax, cl ; and eax, 0x01 ; ret ; (1 found)
0x426cf0: shr ebx, 0xFFFFFFE9 ; ret ; (1 found)
0x4221a3: shr rax, 0x21 ; add eax, edx ; ret ; (1 found)
0x4221f5: shr rax, 0x21 ; add eax, edx ; ret ; (1 found)
0x42222a: shr rax, 0x21 ; lea eax,  [rdx+rax+0x01] ; ret ; (1 found)
0x424b77: shr rax, cl ; and eax, 0x01 ; ret ; (1 found)
0x41ef37: sldt word [rax] ; leave ; ret ; (1 found)
0x4045c5: stc ; call r14 ; (1 found)
0x401a61: stc ; ret ; (1 found)
0x4125c1: stc ; xlatb ; ret ; (1 found)
0x404056: std ; add byte [rax], al ; call rbx ; (1 found)
0x4043eb: std ; add byte [rax], al ; call rbx ; (1 found)
0x421c65: std ; dec  [rax-0x77] ; ret ; (1 found)
0x421c66: std ; dec  [rax-0x77] ; ret ; (1 found)
0x421bde: std ; dec  [rax-0x77] ; retn 0x8548 ; (1 found)
0x4243f2: std ; dec  [rax-0x77] ; retn 0x8944 ; (1 found)
0x411170: sti ; or al, byte [rcx-0x007F] ; ret ; (1 found)
0x400639: sti ; ret ; (1 found)
0x4224b1: stosb ; mov rax, r8 ; ret ; (1 found)
0x4004fd: stosb ; ret ; (1 found)
0x4005c6: stosd ; ret ; (1 found)
0x411335: stosd ; retn 0x8941 ; (1 found)
0x4231ae: str word [rax-0x6E] ; ret ; (1 found)
0x4231af: str word [rax-0x6E] ; ret ; (1 found)
0x4231b0: str word [rax-0x6E] ; ret ; (1 found)
0x424df6: sub  [0x0000000000445F50], eax ; leave ; ret ; (1 found)
0x400145: sub  [0xFFFFFFFFF67004C2], ebx ; ret ; (1 found)
0x400146: sub  [0xFFFFFFFFF67004C2], ebx ; ret ; (1 found)
0x40ef6d: sub  [rax], eax ; add byte [rax-0x77], cl ; retn 0x8944 ; (1 found)
0x42403b: sub  [rbp-0x0317FFBE], edx ; retn 0xFFFE ; (1 found)
0x41c8e3: sub al, 0xFF ; dec  [rax-0x77] ; ret ; (1 found)
0x419be8: sub byte [r8-0x77], cl ; adc byte [r8-0x77], cl ; retn 0x8348 ; (1 found)
0x419cbb: sub byte [r8-0x77], cl ; adc byte [r8-0x77], cl ; retn 0x8348 ; (1 found)
0x41d198: sub byte [r9], r8L ; ret ; (1 found)
0x41984f: sub byte [rax-0x73], cl ; or  [rax+0x48000003], 0xFFFFFF89 ; retn 0x8548 ; (1 found)
0x419be9: sub byte [rax-0x77], cl ; adc byte [r8-0x77], cl ; retn 0x8348 ; (1 found)
0x419cbc: sub byte [rax-0x77], cl ; adc byte [r8-0x77], cl ; retn 0x8348 ; (1 found)
0x40be23: sub byte [rax-0x77], cl ; mov edi, edi ; jmp qword [0x0042BE70+rdi*8] ; (1 found)
0x40cf2f: sub byte [rax-0x77], cl ; retn 0x78E8 ; (1 found)
0x40ce7d: sub byte [rax-0x77], cl ; retn 0x8948 ; (1 found)
0x420732: sub byte [rax-0x7D], cl ; ret ; (1 found)
0x400763: sub byte [rax], al ; mov rax, 0xFFFF800000100771 ; jmp rax ; (1 found)
0x41d199: sub byte [rcx], al ; ret ; (1 found)
0x41648b: sub eax,  [rcx] ; add byte [rax], al ; syscall ; (1 found)
0x426ac0: sub eax, 0x00008673 ; sub rsp, 0x20 ; call r13 ; (1 found)
0x4031f6: sub eax, 0x00020004 ; add byte [rax], al ; ret ; (1 found)
0x40327b: sub eax, 0x00150004 ; add byte [rax], al ; ret ; (1 found)
0x40326c: sub eax, 0x00170004 ; add byte [rax], al ; ret ; (1 found)
0x40de27: sub eax, 0x01 ; and eax, edx ; ret ; (1 found)
0x410e1e: sub eax, 0x01 ; ret ; (1 found)
0x403812: sub eax, 0x39480004 ; ret ; (1 found)
0x426e95: sub eax, 0x5DFFFFE6 ; ret ; (1 found)
0x42198f: sub eax, 0x5DFFFFFB ; ret ; (1 found)
0x402165: sub eax, 0x83480F75 ; retn 0x4101 ; (1 found)
0x4023c9: sub eax, 0x894C1075 ; fmul  [rcx-0x7D] ; ret ; (1 found)
0x422d97: sub eax, 0xC90000C4 ; ret ; (1 found)
0x427118: sub eax, 0xFFFFFF80 ; ret ; (1 found)
0x412689: sub eax, eax ; ret ; (1 found)
0x4126f4: sub eax, eax ; ret ; (1 found)
0x41641d: sub eax, eax ; ret ; (1 found)
0x416434: sub eax, eax ; ret ; (1 found)
0x4043a0: sub eax, edi ; mov ecx, 0x0042A6D4 ; call rsi ; (1 found)
0x41631c: sub eax, edi ; ret ; (1 found)
0x416378: sub eax, edi ; ret ; (1 found)
0x423bb9: sub eax, edi ; ret ; (1 found)
0x423bc5: sub eax, edi ; ret ; (1 found)
0x4203c1: sub eax, edi ; sar rax, 1 ; ret ; (1 found)
0x42042d: sub eax, edi ; sar rax, 1 ; ret ; (1 found)
0x403ef9: sub eax, edx ; ret ; (1 found)
0x403f3c: sub eax, edx ; ret ; (1 found)
0x41257f: sub eax, edx ; ret ; (1 found)
0x412600: sub eax, edx ; ret ; (1 found)
0x41261b: sub eax, edx ; ret ; (1 found)
0x4162af: sub eax, edx ; ret ; (1 found)
0x423152: sub eax, edx ; ret ; (1 found)
0x416237: sub eax, esi ; ret ; (1 found)
0x410e1b: sub eax, esi ; sub rax, 0x01 ; ret ; (1 found)
0x412688: sub eax, r8d ; ret ; (1 found)
0x4126f3: sub eax, r8d ; ret ; (1 found)
0x41641c: sub eax, r8d ; ret ; (1 found)
0x416433: sub eax, r8d ; ret ; (1 found)
0x40d409: sub ebx, 0x08 ; call qword [rbx] ; (1 found)
0x4161fd: sub ecx, eax ; mov eax, r9d ; ret ; (1 found)
0x41d749: sub edi, edi ; call qword [rax+0x00003ABA] ; (1 found)
0x41d75e: sub edi, edi ; call qword [rax+0x1F0F2E66] ; (1 found)
0x41cbfc: sub esi,  [rcx-0x02] ; dec  [rax-0x77] ; ret ; (1 found)
0x4270b9: sub esi, 0x30 ; mov rax, rsi ; ret ; (1 found)
0x40cde1: sub esp,  [rdx-0x76B80000] ; retn 0x058B ; (1 found)
0x426ac6: sub esp, 0x20 ; call r13 ; (1 found)
0x426af2: sub esp, 0x20 ; call r13 ; (1 found)
0x405332: sub esp, 0x20 ; call rax ; (1 found)
0x40439f: sub r8d, edi ; mov ecx, 0x0042A6D4 ; call rsi ; (1 found)
0x4161fc: sub r9d, eax ; mov eax, r9d ; ret ; (1 found)
0x410e1d: sub rax, 0x01 ; ret ; (1 found)
0x41631b: sub rax, rdi ; ret ; (1 found)
0x416377: sub rax, rdi ; ret ; (1 found)
0x423bb8: sub rax, rdi ; ret ; (1 found)
0x423bc4: sub rax, rdi ; ret ; (1 found)
0x4203bf: sub rax, rdi ; sar rax, 1 ; ret ; (1 found)
0x4203c0: sub rax, rdi ; sar rax, 1 ; ret ; (1 found)
0x42042b: sub rax, rdi ; sar rax, 1 ; ret ; (1 found)
0x42042c: sub rax, rdi ; sar rax, 1 ; ret ; (1 found)
0x410e1a: sub rax, rsi ; sub rax, 0x01 ; ret ; (1 found)
0x40d408: sub rbx, 0x08 ; call qword [rbx] ; (1 found)
0x4270b8: sub rsi, 0x30 ; mov rax, rsi ; ret ; (1 found)
0x426ac5: sub rsp, 0x20 ; call r13 ; (1 found)
0x426af1: sub rsp, 0x20 ; call r13 ; (1 found)
0x405330: sub rsp, 0x20 ; call rax ; (1 found)
0x405331: sub rsp, 0x20 ; call rax ; (1 found)
0x416472: syscall ; leave ; ret ; (1 found)
0x41648f: syscall ; leave ; ret ; (1 found)
0x41649d: syscall ; leave ; ret ; (1 found)
0x4164d5: syscall ; leave ; ret ; (1 found)
0x4111fa: syscall ; ret ; (1 found)
0x401899: syscall ; (1 found)
0x4018cb: syscall ; (1 found)
0x4111fa: syscall ; (1 found)
0x411e4c: syscall ; (1 found)
0x411e56: syscall ; (1 found)
0x416472: syscall ; (1 found)
0x41648f: syscall ; (1 found)
0x41649d: syscall ; (1 found)
0x4164c1: syscall ; (1 found)
0x4164d5: syscall ; (1 found)
0x41705e: syscall ; (1 found)
0x4170c4: syscall ; (1 found)
0x417111: syscall ; (1 found)
0x4239ff: syscall ; (1 found)
0x4245f7: syscall ; (1 found)
0x424c1a: syscall ; (1 found)
0x42573f: syscall ; (1 found)
0x426c3b: syscall ; (1 found)
0x426c6a: syscall ; (1 found)
0x426c8a: syscall ; (1 found)
0x426ca0: syscall ; (1 found)
0x426e3b: syscall ; (1 found)
0x4274d4: syscall ; (1 found)
0x4275b4: syscall ; (1 found)
0x427c20: syscall ; (1 found)
0x41de6e: test  [0xFFFFFFFF8941DE77], esi ; retn 0xF229 ; (1 found)
0x4208db: test  [rax-0x0A000000], ecx ; ret ; (1 found)
0x40442a: test  [rbx+0x558905CA], 0xF1894890 ; call r15 ; (1 found)
0x410e19: test byte [rax+0x29], 0xF0 ; sub rax, 0x01 ; ret ; (1 found)
0x41fd2c: test byte [rax-0x77], 0xDF ; mov rax, qword [rbp-0x40] ; call rax ; (1 found)
0x427240: test byte [rax], dl ; adc byte [rax+rax], 0x00 ; ret ; (1 found)
0x427268: test byte [rax], dl ; adc byte [rax+rax], 0x00 ; ret ; (1 found)
0x41d45e: test byte [rbp-0x77000000], cl ; retn 0xE281 ; (1 found)
0x427c1c: test byte [rbx+0x00], al ; clc ; syscall ; (1 found)
0x4086ea: test byte [rbx+0x6F7501F9], 0x31 ; rol byte [rax-0x6BF0A4C1], cl ; retn 0x0C8D ; (1 found)
0x417667: test byte [rbx+rax+0x00], al ; add byte [rcx-0x77], cl ; retn 0x8949 ; (1 found)
0x402fa4: test byte [rcx+0x02], ah ; add byte [rax], al ; ret ; (1 found)
0x423628: test byte [rcx+rax+0x00], al ; add byte [rax-0x7D], cl ; retn 0x3108 ; (1 found)
0x4154f2: test byte [rdi-0x14000002], dl ; ret ; (1 found)
0x423698: test byte [rdi], 0x94 ; retn 0x8548 ; (1 found)
0x40d31a: test byte [rdi], 0x94 ; retn 0xD201 ; (1 found)
0x40d3fa: test byte [rdx+0x00], 0x76 ; sbb byte [rax-0x77], cl ; ret ; (1 found)
0x40367d: test byte [rdx+0x5D000005], ch ; ret ; (1 found)
0x40c455: test byte [rdx-0x76000002], cl ; ret ; (1 found)
0x4187c7: test byte [rsi+rax+0x394D0000], al ; ret ; (1 found)
0x41b17d: test byte [rsi], ch ; add eax, 0x29480000 ; ret ; (1 found)
0x404773: test eax, 0x5D000042 ; ret ; (1 found)
0x41de6a: test eax, 0x850F02A8 ; xor eax, 0x89000003 ; retn 0xF229 ; (1 found)
0x404861: test eax, 0x89480002 ; ret ; (1 found)
0x4164b7: test eax, 0xF87D8D48 ; mov eax, 0x000001B0 ; syscall ; (1 found)
0x4239b1: ud0 edx,  [0x00000000004380A8] ; pop rbp ; ret ; (1 found)
0x4239d2: ud0 edx,  [0x00000000004380A8] ; pop rbp ; ret ; (1 found)
0x42244d: vmovdqu  [r8], xmm0 ; mov rax, r8 ; ret ; (1 found)
0x422400: vmovdqu  [rdi], xmm0 ; mov rax, r8 ; ret ; (1 found)
0x41a248: wait ; mov rdi, r13 ; call 0x00000000 ; (1 found)
0x401eac: wrmsr ; pop rbp ; ret ; (1 found)
0x4031f5: xchg  [0x00000000004231FF], ebp ; add byte [rax], al ; ret ; (1 found)
0x4097fd: xchg  [rax+0x02], ebx ; add byte [rax-0x77], cl ; ret ; (1 found)
0x423ff2: xchg  [rax-0x77000000], ecx ; retn 0xE283 ; (1 found)
0x425b26: xchg  [rcx+0x0F000000], ecx ; mov dh, 0xD2 ; jmp qword [0x0042AEF0+rdx*8] ; (1 found)
0x415941: xchg  [rdx+0x50], eax ; ret ; (1 found)
0x410525: xchg  [rdx-0x01], eax ; dec  [rax-0x77] ; ret ; (1 found)
0x402f9a: xchg byte [rax+0x03], bl ; add byte [rax], al ; ret ; (1 found)
0x426b0f: xchg byte [rax], al ; add byte [rax-0x77], cl ; retn 0x8948 ; (1 found)
0x4030b6: xchg byte [rcx+0x01], bl ; add byte [rax], al ; ret ; (1 found)
0x40f612: xchg eax, ebp ; ret ; (1 found)
0x40d77e: xchg eax, ebp ; retn 0x00B8 ; (1 found)
0x415a59: xchg eax, ebp ; retn 0x8548 ; (1 found)
0x4210b2: xchg eax, ebp ; retn 0x8B4C ; (1 found)
0x425b59: xchg eax, ebp ; retn 0xB60F ; (1 found)
0x411fcd: xchg eax, ebp ; retn 0xD021 ; (1 found)
0x425a8d: xchg eax, ebx ; retn 0x91E9 ; (1 found)
0x42214c: xchg eax, ebx ; retn 0xB60F ; (1 found)
0x425d26: xchg eax, ebx ; retn 0xBD80 ; (1 found)
0x427675: xchg eax, ebx ; shl byte [rcx], 0xD0 ; ret ; (1 found)
0x400113: xchg eax, edx ; pop rbx ; ret ; (1 found)
0x42311c: xchg eax, edx ; ret ; (1 found)
0x4231b3: xchg eax, edx ; ret ; (1 found)
0x424bfa: xchg eax, edx ; ret ; (1 found)
0x42709a: xchg eax, edx ; retn 0x3948 ; (1 found)
0x4274d7: xchg eax, edx ; retn 0x8941 ; (1 found)
0x4275b7: xchg eax, edx ; retn 0x8941 ; (1 found)
0x427669: xchg eax, edx ; retn 0xC031 ; (1 found)
0x408825: xchg eax, edx ; retn 0xD609 ; (1 found)
0x40588d: xchg eax, esi ; ret ; (1 found)
0x425a99: xchg eax, esi ; retn 0x85E9 ; (1 found)
0x405588: xchg eax, esp ; ret ; (1 found)
0x407bd0: xchg eax, esp ; ret ; (1 found)
0x40e628: xchg eax, esp ; retn 0x0001 ; (1 found)
0x4236a1: xchg eax, esp ; retn 0x0844 ; (1 found)
0x4086f6: xchg eax, esp ; retn 0x0C8D ; (1 found)
0x402887: xchg eax, esp ; retn 0x8445 ; (1 found)
0x42369a: xchg eax, esp ; retn 0x8548 ; (1 found)
0x4133ce: xchg eax, esp ; retn 0x87EB ; (1 found)
0x41dc1b: xchg eax, esp ; retn 0xB60F ; (1 found)
0x40a1de: xchg eax, esp ; retn 0xD009 ; (1 found)
0x410b8f: xchg eax, esp ; retn 0xD009 ; (1 found)
0x41f73c: xchg eax, esp ; retn 0xD009 ; (1 found)
0x40d31c: xchg eax, esp ; retn 0xD201 ; (1 found)
0x410af9: xchg eax, esp ; ror byte [rax-0x75], 0x44 ; retn 0xC304 ; (1 found)
0x415940: xchg qword [rdx+0x50], rax ; ret ; (1 found)
0x42311b: xchg rax, rdx ; ret ; (1 found)
0x4231b2: xchg rax, rdx ; ret ; (1 found)
0x424bf9: xchg rax, rdx ; ret ; (1 found)
0x41c1af: xlatb ; call rsi ; (1 found)
0x410b62: xlatb ; or rax, 0xFFFFFFFFFFFFFFFF ; ret ; (1 found)
0x4125c2: xlatb ; ret ; (1 found)
0x4110a2: xlatb ; retn 0xFF3D ; (1 found)
0x415e35: xor  [rax-0x78], eax ; xor cl, byte [rax-0x7D] ; retn 0x4801 ; (1 found)
0x415f05: xor  [rax-0x78], eax ; xor cl, byte [rax-0x7D] ; retn 0x4801 ; (1 found)
0x42055b: xor  [rax-0x7D], ecx ; ret ; (1 found)
0x409dd1: xor  [rbx+0x05], ecx ; ret ; (1 found)
0x402fcd: xor  [rbx], eax ; add byte [rax], al ; ret ; (1 found)
0x4120e0: xor  [rcx], eax ; add byte [rax-0x77], cl ; ret ; (1 found)
0x40c00f: xor  [rdx], eax ; add cl, cl ; ret ; (1 found)
0x40c02d: xor  [rdx], eax ; add cl, cl ; ret ; (1 found)
0x40c066: xor  [rdx], eax ; add cl, cl ; ret ; (1 found)
0x422ddf: xor  [rdx], eax ; add cl, cl ; ret ; (1 found)
0x413ec7: xor al, ch ; ret ; (1 found)
0x40f4da: xor bh, byte [rbx+0x00] ; add byte [rax-0x77], cl ; ret ; (1 found)
0x4109ee: xor bl, al ; mov eax,  [rdi+0x10] ; ret ; (1 found)
0x4199f3: xor byte [r9-0x0A], al ; retn 0x0F0F ; (1 found)
0x4270bb: xor byte [rax-0x77], cl ; lock ret ; (1 found)
0x413530: xor byte [rax-0x77], cl ; retn 0xC148 ; (1 found)
0x4068b8: xor byte [rax], al ; add bh, dh ; ret ; (1 found)
0x402fc3: xor byte [rbx], al ; add byte [rax], al ; ret ; (1 found)
0x4199f4: xor byte [rcx-0x0A], al ; retn 0x0F0F ; (1 found)
0x41e763: xor byte [rcx-0x2B17FFBE], ah ; sbb edi, edi ; call qword [rax-0x6FFFE0F1] ; (1 found)
0x407e64: xor byte [rdx+0x03], bl ; add al, ch ; ret ; (1 found)
0x40bf9d: xor byte [rdx], al ; add cl, cl ; ret ; (1 found)
0x40bfba: xor byte [rdx], al ; add cl, cl ; ret ; (1 found)
0x40bfbb: xor byte [rdx], al ; add cl, cl ; ret ; (1 found)
0x41d804: xor cl, byte [rax-0x77] ; retn 0x850F ; (1 found)
0x415e38: xor cl, byte [rax-0x7D] ; retn 0x4801 ; (1 found)
0x415f08: xor cl, byte [rax-0x7D] ; retn 0x4801 ; (1 found)
0x40014a: xor dh, dh ; ret ; (1 found)
0x40d0d0: xor eax,  [rax] ; add byte [rax-0x77], cl ; ret ; (1 found)
0x409708: xor eax, 0x01 ; ret ; (1 found)
0x4152e7: xor eax, 0x5DFFFFFC ; ret ; (1 found)
0x41de6f: xor eax, 0x89000003 ; retn 0xF229 ; (1 found)
0x40d45d: xor eax, 0x89480000 ; ret ; (1 found)
0x4089cc: xor eax, eax ; leave ; ret ; (1 found)
0x405378: xor eax, eax ; mov  [rsi+0x18], eax ; ret ; (1 found)
0x422d54: xor eax, eax ; pop rbp ; ret ; (1 found)
0x422d65: xor eax, eax ; pop rbp ; ret ; (1 found)
0x400564: xor eax, eax ; ret ; (1 found)
0x403608: xor eax, eax ; ret ; (1 found)
0x406378: xor eax, eax ; ret ; (1 found)
0x4063c7: xor eax, eax ; ret ; (1 found)
0x408a00: xor eax, eax ; ret ; (1 found)
0x4096ee: xor eax, eax ; ret ; (1 found)
0x40973e: xor eax, eax ; ret ; (1 found)
0x409a76: xor eax, eax ; ret ; (1 found)
0x40fe08: xor eax, eax ; ret ; (1 found)
0x412698: xor eax, eax ; ret ; (1 found)
0x412f29: xor eax, eax ; ret ; (1 found)
0x412fa9: xor eax, eax ; ret ; (1 found)
0x416208: xor eax, eax ; ret ; (1 found)
0x416420: xor eax, eax ; ret ; (1 found)
0x4169f1: xor eax, eax ; ret ; (1 found)
0x416a48: xor eax, eax ; ret ; (1 found)
0x41718f: xor eax, eax ; ret ; (1 found)
0x418fcb: xor eax, eax ; ret ; (1 found)
0x41a0c8: xor eax, eax ; ret ; (1 found)
0x41e818: xor eax, eax ; ret ; (1 found)
0x41f7e9: xor eax, eax ; ret ; (1 found)
0x41f8f2: xor eax, eax ; ret ; (1 found)
0x420350: xor eax, eax ; ret ; (1 found)
0x4213d8: xor eax, eax ; ret ; (1 found)
0x422d2b: xor eax, eax ; ret ; (1 found)
0x42342f: xor eax, eax ; ret ; (1 found)
0x423496: xor eax, eax ; ret ; (1 found)
0x423bc8: xor eax, eax ; ret ; (1 found)
0x42460d: xor eax, eax ; ret ; (1 found)
0x42461e: xor eax, eax ; ret ; (1 found)
0x424a07: xor eax, eax ; ret ; (1 found)
0x424acd: xor eax, eax ; ret ; (1 found)
0x424b49: xor eax, eax ; ret ; (1 found)
0x424c99: xor eax, eax ; ret ; (1 found)
0x424d19: xor eax, eax ; ret ; (1 found)
0x4276e2: xor eax, eax ; ret ; (1 found)
0x4018c9: xor eax, eax ; syscall ; (1 found)
0x4111e5: xor ebp, ebp ; call r8 ; (1 found)
0x404793: xor ecx, ecx ; call 0x00000000 ; (1 found)
0x404803: xor ecx, ecx ; call 0x00000000 ; (1 found)
0x411239: xor ecx, ecx ; movzx edx, cl ; ret ; (1 found)
0x4232fe: xor edi, eax ; mov rax, rdi ; ret ; (1 found)
0x42337e: xor edi, eax ; mov rax, rdi ; ret ; (1 found)
0x4155b6: xor edx, edx ; mov eax, edx ; ret ; (1 found)
0x416af0: xor edx, edx ; mov rax, rdx ; ret ; (1 found)
0x404dd7: xor edx, edx ; mov rcx, rbx ; call r12 ; (1 found)
0x404df7: xor edx, edx ; mov rcx, rbx ; call r12 ; (1 found)
0x404e12: xor edx, edx ; mov rcx, rbx ; call r12 ; (1 found)
0x404e43: xor edx, edx ; mov rcx, rbx ; call r12 ; (1 found)
0x4045a0: xor esi, esi ; movsx ecx, byte [rsi+0x0042AC14] ; call r14 ; (1 found)
0x4109ed: xor r11L, r8L ; mov eax,  [rdi+0x10] ; ret ; (1 found)
0x4018c8: xor r8d, r8d ; syscall ; (1 found)
0x41f8f1: xor rax, r8 ; ret ; (1 found)
0x4111e4: xor rbp, rbp ; call r8 ; (1 found)
0x4232fd: xor rdi, rax ; mov rax, rdi ; ret ; (1 found)
0x42337d: xor rdi, rax ; mov rax, rdi ; ret ; (1 found)
