Trying to open 'ld-linux-x86-64.so.2'..
Loading ELF information..
FileFormat: Elf, Arch: x64

Wait a few seconds, rp++ is looking for gadgets (2 threads max)..
A total of 4969 gadgets found.
0x21ce1: aaa ; lea rax, qword [rdi] ; ret ; (1 found)
0x2177a: aaa ; mov  [rdi+rdx-0x04], esi ; ret ; (1 found)
0x21782: aaa ; mov byte [rdi+rdx-0x01], sil ; ret ; (1 found)
0x2153a: aaa ; mov qword [rdi+rdx-0x08], rcx ; ret ; (1 found)
0x21772: aaa ; mov qword [rdi+rdx-0x08], rsi ; ret ; (1 found)
0x2152b: aaa ; ret ; (1 found)
0x21768: aaa ; ret ; (1 found)
0x15a11: aaa ; retn 0x0001 ; (1 found)
0x1113: aad 0x00 ; nop  [rax] ; call qword [rbx] ; (1 found)
0x1bd03: aam 0xFF ; jmp qword [rsi+0x2E] ; (1 found)
0x11dfe: adc  [0x00000000000330E0], eax ; ret ; (1 found)
0x16f8e: adc  [rax+0x0F], ecx ; retn 0x8B48 ; (1 found)
0x20944: adc  [rax], eax ; add byte [rax], al ; syscall ; (1 found)
0x11eae: adc  [rbx+0x000002D8], eax ; syscall ; (1 found)
0x372b: adc  [rbx], eax ; pop rbx ; ret ; (1 found)
0x2163e: adc  [rcx], eax ; ret ; (1 found)
0x21740: adc  [rdi+0x20], eax ; movups  [rdi+0x30], xmm0 ; ret ; (1 found)
0x21744: adc  [rdi+0x30], eax ; ret ; (1 found)
0x216a7: adc  [rdi+0x30], edi ; movups  [rdx+rdi-0x10], xmm8 ; ret ; (1 found)
0x216e1: adc  [rdi+rdx-0x10], eax ; movups  [rdi], xmm0 ; ret ; (1 found)
0x214fb: adc  [rdi+rdx-0x10], ecx ; ret ; (1 found)
0x21553: adc  [rdi+rdx-0x10], edx ; movups  [rdi+rdx-0x20], xmm3 ; ret ; (1 found)
0x21558: adc  [rdi+rdx-0x20], ebx ; ret ; (1 found)
0x215a9: adc  [rdi+rdx-0x30], esi ; movups  [rdi+rdx-0x40], xmm7 ; ret ; (1 found)
0x215ae: adc  [rdi+rdx-0x40], edi ; ret ; (1 found)
0x216ee: adc  [rdi-0x10], eax ; ret ; (1 found)
0x216ea: adc  [rdi-0x20], eax ; movups  [rdi-0x10], xmm0 ; ret ; (1 found)
0x214f8: adc  [rdi], eax ; movups  [rdi+rdx-0x10], xmm1 ; ret ; (1 found)
0x216e6: adc  [rdi], eax ; ret ; (1 found)
0x216ac: adc  [rdx+rdi-0x10], eax ; ret ; (1 found)
0x2163b: adc  [rdx], eax ; movups  [rcx], xmm0 ; ret ; (1 found)
0xc709: adc al, 0x00 ; add byte [rax], al ; syscall ; (1 found)
0x222e7: adc al, 0x0A ; jmp r10 ; (1 found)
0x23aa7: adc al, 0x0A ; jmp r10 ; (1 found)
0x20d1: adc al, 0x11 ; mov qword [rax+0x08], rdx ; ret ; (1 found)
0x21ed0: adc al, 0x48 ; lea eax,  [rdi+0x14] ; ret ; (1 found)
0x16f65: adc al, 0x85 ; retn 0x3575 ; (1 found)
0x16f66: adc al, 0x85 ; retn 0x3575 ; (1 found)
0x105b1: adc al, 0x8A ; mov qword [rax+0x00000328], rdx ; ret ; (1 found)
0x25804: adc al, ch ; test eax, 0x8949FFFE ; ret ; (1 found)
0x12b52: adc byte [r8-0x7D], cl ; ret ; (1 found)
0x1fb18: adc byte [rax+0x01], cl ; ret ; (1 found)
0x21c27: adc byte [rax+0x0F], cl ; mov esp, 0x1D8D4CD2 ; call qword [rbp+0x00] ; (1 found)
0x11b3f: adc byte [rax+0x29], cl ; ret ; (1 found)
0x1a195: adc byte [rax-0x75], cl ; or eax, 0x0001796B ; call rbx ; (1 found)
0x3498: adc byte [rax-0x77], cl ; retn 0x3FE8 ; (1 found)
0x45a1: adc byte [rax-0x7B], cl ; sal byte [rbp-0x17], cl ; ret ; (1 found)
0x266d: adc byte [rax-0x7D], cl ; ret ; (1 found)
0x12b53: adc byte [rax-0x7D], cl ; ret ; (1 found)
0x6ed7: adc byte [rax-0x7D], cl ; retn 0x4810 ; (1 found)
0x6ed8: adc byte [rax-0x7D], cl ; retn 0x4810 ; (1 found)
0x19661: adc byte [rax-0x7D], cl ; retn 0x4810 ; (1 found)
0x19662: adc byte [rax-0x7D], cl ; retn 0x4810 ; (1 found)
0x1b66f: adc byte [rax-0x7D], cl ; retn 0x4810 ; (1 found)
0x1b670: adc byte [rax-0x7D], cl ; retn 0x4810 ; (1 found)
0x1ca51: adc byte [rax-0x7D], cl ; retn 0x4810 ; (1 found)
0x1ca52: adc byte [rax-0x7D], cl ; retn 0x4810 ; (1 found)
0x1cd92: adc byte [rax-0x7D], cl ; retn 0x4810 ; (1 found)
0x1cd93: adc byte [rax-0x7D], cl ; retn 0x4810 ; (1 found)
0xae25: adc byte [rax-0x7D], cl ; retn 0x4C10 ; (1 found)
0x11085: adc byte [rbx+0x5D], bl ; pop r12 ; ret ; (1 found)
0x1922c: adc byte [rbx+0x5D], bl ; pop r12 ; ret ; (1 found)
0xd9ee: adc byte [rbx+0x5D], bl ; ret ; (1 found)
0xd9ef: adc byte [rbx+0x5D], bl ; ret ; (1 found)
0x11b17: adc byte [rbx-0x51], dh ; xor eax, eax ; ret ; (1 found)
0xf3a8: adc byte [rcx-0x77], cl ; retn 0x8B49 ; (1 found)
0x101d6: adc cl, byte [rax+0x01] ; retn 0x8D49 ; (1 found)
0x256c1: adc eax, 0x00001D9A ; add rax, rdx ; ret ; (1 found)
0x2058b: adc eax, 0x00012D30 ; add word [rdx+rax*2], 0x0001 ; ret ; (1 found)
0x19552: adc eax, 0x000184D9 ; pop r12 ; ret ; (1 found)
0x111bb: adc eax, 0x00021EC0 ; mov rax, rdx ; ret ; (1 found)
0x5c9b: adc eax, 0x7515FF01 ; mov ebp, 0x89480002 ; retn 0x8548 ; (1 found)
0x50ea: adc eax, 0x89480001 ; ret ; (1 found)
0x1a9f2: adc eax, 0xFFFE9CA9 ; mov rsp, r13 ; jmp r12 ; (1 found)
0x4be9: adc ecx,  [rax-0x7D] ; ret ; (1 found)
0x20854: adc edi,  [rax+0x00000048] ; syscall ; (1 found)
0x25803: adc r8L, bpl ; test eax, 0x8949FFFE ; ret ; (1 found)
0x5a8b: add  [rax+0x01], ecx ; ret ; (1 found)
0xa6fa: add  [rax+0x01], ecx ; ror byte [rax-0x77], 1 ; retn 0xC148 ; (1 found)
0x192b7: add  [rax+0x01], ecx ; ror byte [rax-0x77], 1 ; retn 0xC148 ; (1 found)
0x587c: add  [rax+0x39], ecx ; retn 0x0F48 ; (1 found)
0xc53b: add  [rax+0x39], ecx ; retn 0x1072 ; (1 found)
0x186d5: add  [rax+0x39], ecx ; retn 0x8575 ; (1 found)
0x138a6: add  [rax-0x77], ecx ; push rax ; ret ; (1 found)
0x4cd3: add  [rax-0x77], ecx ; retn 0x894C ; (1 found)
0x9e8e: add  [rax-0x77], ecx ; retn 0x8B49 ; (1 found)
0x9e8f: add  [rax-0x77], ecx ; retn 0x8B49 ; (1 found)
0x3462: add  [rax-0x7D], ecx ; ret ; (1 found)
0x139fb: add  [rax-0x7D], ecx ; ret ; (1 found)
0x17270: add  [rax-0x7D], ecx ; ret ; (1 found)
0x1858b: add  [rax-0x7D], ecx ; ret ; (1 found)
0x185f6: add  [rax-0x7D], ecx ; ret ; (1 found)
0x1bfb2: add  [rax-0x7D], ecx ; ret ; (1 found)
0x1c370: add  [rax-0x7D], ecx ; ret ; (1 found)
0x1eed1: add  [rax-0x7D], ecx ; ret ; (1 found)
0x1f453: add  [rax-0x7D], ecx ; ret ; (1 found)
0x1d972: add  [rax-0x7D], ecx ; retn 0x3908 ; (1 found)
0x1e77: add  [rax-0x7D], ecx ; retn 0x4901 ; (1 found)
0x64b3: add  [rax-0x7D], ecx ; retn 0x8401 ; (1 found)
0x64b4: add  [rax-0x7D], ecx ; retn 0x8401 ; (1 found)
0xc69a: add  [rax-0x7D], ecx ; retn 0x8401 ; (1 found)
0xc69b: add  [rax-0x7D], ecx ; retn 0x8401 ; (1 found)
0x19462: add  [rax-0x7D], ecx ; retn 0x8401 ; (1 found)
0x19463: add  [rax-0x7D], ecx ; retn 0x8401 ; (1 found)
0x3461: add  [rax-0x7D], r9d ; ret ; (1 found)
0x12d11: add  [rax], eax ; add byte [rax], al ; ret ; (1 found)
0x18f76: add  [rax], eax ; add byte [rax], al ; ret ; (1 found)
0x2053c: add  [rax], eax ; add byte [rax], al ; ret ; (1 found)
0x12c31: add  [rax], eax ; add byte [rax], al ; syscall ; (1 found)
0x20971: add  [rax], eax ; add byte [rax], al ; syscall ; (1 found)
0x17d7c: add  [rax], eax ; add byte [rbx+0x5D], bl ; ret ; (1 found)
0x17e3d: add  [rax], eax ; add byte [rbx+0x5D], bl ; ret ; (1 found)
0x2058e: add  [rax], eax ; add word [rdx+rax*2], 0x0001 ; ret ; (1 found)
0x1a19b: add  [rax], eax ; call rbx ; (1 found)
0x1834a: add  [rax], eax ; call rsi ; (1 found)
0x13e43: add  [rax], eax ; mov eax, 0x00000015 ; syscall ; (1 found)
0x13e44: add  [rax], eax ; mov eax, 0x00000015 ; syscall ; (1 found)
0x200be: add  [rax], eax ; mov eax, 0xFFFFFFFF ; ret ; (1 found)
0x206ee: add  [rax], eax ; mov eax, 0xFFFFFFFF ; ret ; (1 found)
0x2075e: add  [rax], eax ; mov eax, 0xFFFFFFFF ; ret ; (1 found)
0x207a6: add  [rax], eax ; mov eax, 0xFFFFFFFF ; ret ; (1 found)
0x207c6: add  [rax], eax ; mov eax, 0xFFFFFFFF ; ret ; (1 found)
0x2082e: add  [rax], eax ; mov eax, 0xFFFFFFFF ; ret ; (1 found)
0x20886: add  [rax], eax ; mov eax, 0xFFFFFFFF ; ret ; (1 found)
0x2090e: add  [rax], eax ; mov eax, 0xFFFFFFFF ; ret ; (1 found)
0x204c6: add  [rax], eax ; mov rax, 0xFFFFFFFFFFFFFFFF ; ret ; (1 found)
0x20786: add  [rax], eax ; mov rax, 0xFFFFFFFFFFFFFFFF ; ret ; (1 found)
0x20936: add  [rax], eax ; mov rax, 0xFFFFFFFFFFFFFFFF ; ret ; (1 found)
0x2095e: add  [rax], eax ; mov rax, 0xFFFFFFFFFFFFFFFF ; ret ; (1 found)
0x20986: add  [rax], eax ; mov rax, 0xFFFFFFFFFFFFFFFF ; ret ; (1 found)
0x20a7e: add  [rax], eax ; mov rax, 0xFFFFFFFFFFFFFFFF ; ret ; (1 found)
0x11dfb: add  [rax], eax ; movups  [0x00000000000330E0], xmm0 ; ret ; (1 found)
0x19555: add  [rax], eax ; pop r12 ; ret ; (1 found)
0x148e4: add  [rax], eax ; pop rbx ; ret ; (1 found)
0x16585: add  [rax], eax ; ret ; (1 found)
0x19006: add  [rax], eax ; ret ; (1 found)
0x20654: add  [rax], eax ; ret ; (1 found)
0x14519: add  [rbx+0x485B01FE], eax ; cmove eax, edx ; ret ; (1 found)
0x1451c: add  [rbx+0x48], ebx ; cmove eax, edx ; ret ; (1 found)
0x14f33: add  [rbx-0x50F0FE40], eax ; retn 0xDA89 ; (1 found)
0x1868: add  [rbx], eax ; add byte [rcx-0x77], cl ; ret ; (1 found)
0x144c2: add  [rcx+0x0F], eax ; xchg eax, esp ; ret ; (1 found)
0x3a03: add  [rcx-0x007F], ecx ; ret ; (1 found)
0x200a4: add  [rcx], eax ; add byte [rax], al ; syscall ; (1 found)
0x2071c: add  [rcx], eax ; add byte [rax], al ; syscall ; (1 found)
0x14f36: add  [rdi], ecx ; scasd ; retn 0xDA89 ; (1 found)
0x20591: add  [rdx+rax*2], 0x01 ; ret ; (1 found)
0x1fe7d: add al, 0x00 ; add bl, ch ; ret ; (1 found)
0x7382: add al, 0x00 ; add byte [rax+0x01], cl ; retn 0xBA41 ; (1 found)
0x18e20: add al, 0x00 ; add byte [rax], al ; ret ; (1 found)
0x9a5f: add al, 0x00 ; add byte [rcx], al ; retn 0x8348 ; (1 found)
0x9a60: add al, 0x00 ; add byte [rcx], al ; retn 0x8348 ; (1 found)
0x7212: add al, 0x00 ; add dh, dh ; retn 0x7402 ; (1 found)
0x1cb23: add al, 0x00 ; add dh, dh ; retn 0x7402 ; (1 found)
0x1b576: add al, 0x01 ; add al, ch ; retn 0xFFDB ; (1 found)
0x254b8: add al, 0x07 ; ret ; (1 found)
0x255d6: add al, 0x07 ; ret ; (1 found)
0x212f9: add al, 0x07 ; sub eax, ecx ; ret ; (1 found)
0x213bb: add al, 0x07 ; sub eax, ecx ; ret ; (1 found)
0x2367a: add al, 0x17 ; sub eax, ecx ; ret ; (1 found)
0x2522f: add al, 0x17 ; sub eax, ecx ; ret ; (1 found)
0x21d3b: add al, 0x48 ; lea eax,  [rdi+0x05] ; ret ; (1 found)
0x25254: add al, 0x48 ; xor eax, eax ; ret ; (1 found)
0x1670f: add al, 0x4A ; lea esi,  [rax+rsi] ; call rcx ; (1 found)
0x1979a: add al, 0x80 ; add rax, r8 ; jmp rax ; (1 found)
0x197d0: add al, 0x81 ; add rax, r9 ; jmp rax ; (1 found)
0x16392: add al, 0x81 ; add rax, rcx ; jmp rax ; (1 found)
0x19030: add al, 0x81 ; add rax, rcx ; jmp rax ; (1 found)
0x1468b: add al, 0x96 ; add rax, rsi ; jmp rax ; (1 found)
0xe57b: add al, 0xAE ; add rax, rsi ; jmp rax ; (1 found)
0xefd6: add al, 0xAF ; add rax, rdi ; jmp rax ; (1 found)
0x145dd: add al, 0xB7 ; add rax, rdi ; jmp rax ; (1 found)
0x14641: add al, 0xB9 ; add rax, rcx ; jmp rax ; (1 found)
0x11e50: add al, byte [rax] ; add byte [rax+0x000000DA], bh ; syscall ; (1 found)
0x6751: add al, byte [rax] ; add byte [rax+0x29], cl ; ret ; (1 found)
0x8540: add al, byte [rax] ; add byte [rax+0x39], cl ; ret ; (1 found)
0x56ae: add al, byte [rax] ; add byte [rax-0x77], cl ; ret ; (1 found)
0x6388: add al, byte [rax] ; add byte [rax-0x77], cl ; ret ; (1 found)
0x1e147: add al, byte [rax] ; add byte [rax], al ; call rax ; (1 found)
0xb164: add al, byte [rax] ; add byte [rcx+0x148B48D8], cl ; retn 0xB60F ; (1 found)
0x38d0: add al, byte [rax] ; add rsp, 0x08 ; ret ; (1 found)
0xa90d: add al, byte [rax] ; add rsp, 0x08 ; ret ; (1 found)
0x10713: add al, byte [rax] ; add rsp, 0x18 ; ret ; (1 found)
0x113ef: add al, byte [rax] ; mov qword [rsi], rax ; ret ; (1 found)
0x111be: add al, byte [rax] ; mov rax, rdx ; ret ; (1 found)
0x31c0: add al, byte [rax] ; nop word [rax+rax+0x00] ; ret ; (1 found)
0x11e02: add al, byte [rax] ; ret ; (1 found)
0x362e: add al, byte [rdx] ; add byte [rax-0x77], cl ; retn 0x894C ; (1 found)
0x362f: add al, byte [rdx] ; add byte [rax-0x77], cl ; retn 0x894C ; (1 found)
0x1f4bb: add al, ch ; call rdi ; (1 found)
0xb850: add al, ch ; ficom  [rdi-0x01] ; jmp qword [rsi+0x2E] ; (1 found)
0x559d: add al, ch ; mov ebp, 0x890001B0 ; retn 0x01B8 ; (1 found)
0x1b578: add al, ch ; retn 0xFFDB ; (1 found)
0xe752: add bh, bh ; ror byte [rax-0x7D], 1 ; ret ; (1 found)
0x154a2: add bh, dh ; retn 0x0000 ; (1 found)
0x18dbd: add bh, dh ; retn 0x0000 ; (1 found)
0x11b3d: add bl, ch ; adc byte [rax+0x29], cl ; ret ; (1 found)
0x1fe7f: add bl, ch ; ret ; (1 found)
0x18e5a: add byte [r8-0x77], r9L ; ret ; (1 found)
0x1b9f6: add byte [r8-0x77], r9L ; retn 0xC148 ; (1 found)
0x2096f: add byte [rax+0x00000001], bh ; syscall ; (1 found)
0x2076f: add byte [rax+0x00000008], bh ; syscall ; (1 found)
0x20a8f: add byte [rax+0x0000000B], bh ; syscall ; (1 found)
0x20dd0: add byte [rax+0x0000000D], bh ; syscall ; (1 found)
0x13e45: add byte [rax+0x00000015], bh ; syscall ; (1 found)
0x2567f: add byte [rax+0x00000026], bh ; syscall ; (1 found)
0x20c2f: add byte [rax+0x00000027], bh ; syscall ; ret ; (1 found)
0x20c2f: add byte [rax+0x00000027], bh ; syscall ; (1 found)
0x20c2e: add byte [rax+0x00000027], dil ; syscall ; ret ; (1 found)
0x20c2e: add byte [rax+0x00000027], dil ; syscall ; (1 found)
0x20819: add byte [rax+0x00000048], bh ; syscall ; (1 found)
0x20871: add byte [rax+0x00000048], bh ; syscall ; (1 found)
0x20b8c: add byte [rax+0x000000CA], bh ; syscall ; ret ; (1 found)
0x20bab: add byte [rax+0x000000CA], bh ; syscall ; ret ; (1 found)
0x20aee: add byte [rax+0x000000CA], bh ; syscall ; (1 found)
0x20b8c: add byte [rax+0x000000CA], bh ; syscall ; (1 found)
0x20bab: add byte [rax+0x000000CA], bh ; syscall ; (1 found)
0x20b3f: add byte [rax+0x000000CA], bh ; xor sil, 0x80 ; syscall ; (1 found)
0x11e52: add byte [rax+0x000000DA], bh ; syscall ; (1 found)
0xff12: add byte [rax+0x01], cl ; enter 0x8D49, 0x04 ; retn 0x8948 ; (1 found)
0x1237e: add byte [rax+0x01], cl ; ret ; (1 found)
0x1291f: add byte [rax+0x01], cl ; retn 0x42F6 ; (1 found)
0x7384: add byte [rax+0x01], cl ; retn 0xBA41 ; (1 found)
0x1c5b1: add byte [rax+0x01], cl ; retn 0xBA41 ; (1 found)
0x21cdf: add byte [rax+0x078D4837], cl ; ret ; (1 found)
0x1436e: add byte [rax+0x08408B48], dl ; ret ; (1 found)
0x14c69: add byte [rax+0x0F], cl ; mov  [0x920F00000002B9D1], eax ; retn 0xD284 ; (1 found)
0x33ce: add byte [rax+0x0F], cl ; ret ; (1 found)
0x159a0: add byte [rax+0x0F], cl ; ret ; (1 found)
0x7a25: add byte [rax+0x0F], cl ; retn 0x3145 ; (1 found)
0x12d9d: add byte [rax+0x0F], cl ; retn 0x8948 ; (1 found)
0x7316: add byte [rax+0x29], cl ; enter 0x8D48, 0x1C ; retn 0x3948 ; (1 found)
0x237da: add byte [rax+0x29], cl ; lock pop rbx ; ret ; (1 found)
0x6753: add byte [rax+0x29], cl ; ret ; (1 found)
0x678a: add byte [rax+0x29], cl ; retn 0xC148 ; (1 found)
0x785e: add byte [rax+0x29], cl ; retn 0xC148 ; (1 found)
0x204f0: add byte [rax+0x29], cl ; retn 0xC148 ; (1 found)
0x20105: add byte [rax+0x39480000], al ; ret ; (1 found)
0x2017a: add byte [rax+0x39480000], al ; ret ; (1 found)
0x3f44: add byte [rax+0x39], cl ; ret ; (1 found)
0x8542: add byte [rax+0x39], cl ; ret ; (1 found)
0xa94d: add byte [rax+0x39], cl ; ret ; (1 found)
0xee31: add byte [rax+0x39], cl ; ret ; (1 found)
0x20108: add byte [rax+0x39], cl ; ret ; (1 found)
0x20114: add byte [rax+0x39], cl ; ret ; (1 found)
0x2017d: add byte [rax+0x39], cl ; ret ; (1 found)
0x20189: add byte [rax+0x39], cl ; ret ; (1 found)
0xdacd: add byte [rax+0x39], cl ; retn 0x7D72 ; (1 found)
0xb458: add byte [rax+0x39], cl ; retn 0x830F ; (1 found)
0x14092: add byte [rax+0x39], cl ; retn 0x830F ; (1 found)
0xc647: add byte [rax+0x63], cl ; ret ; (1 found)
0xc88a: add byte [rax+0x63], cl ; ret ; (1 found)
0xdb4f: add byte [rax-0x00000001], bh ; pop rbx ; ret ; (1 found)
0x1fa19: add byte [rax-0x00000001], bh ; ret ; (1 found)
0x200bf: add byte [rax-0x00000001], bh ; ret ; (1 found)
0x2034f: add byte [rax-0x00000001], bh ; ret ; (1 found)
0x206a9: add byte [rax-0x00000001], bh ; ret ; (1 found)
0x206ef: add byte [rax-0x00000001], bh ; ret ; (1 found)
0x2075f: add byte [rax-0x00000001], bh ; ret ; (1 found)
0x207a7: add byte [rax-0x00000001], bh ; ret ; (1 found)
0x207c7: add byte [rax-0x00000001], bh ; ret ; (1 found)
0x2082f: add byte [rax-0x00000001], bh ; ret ; (1 found)
0x20887: add byte [rax-0x00000001], bh ; ret ; (1 found)
0x2090f: add byte [rax-0x00000001], bh ; ret ; (1 found)
0x20d01: add byte [rax-0x00000001], bh ; ret ; (1 found)
0x25697: add byte [rax-0x00000001], bh ; ret ; (1 found)
0x11ec1: add byte [rax-0x007F], cl ; ret ; (1 found)
0x1689f: add byte [rax-0x007F], cl ; retn 0x00F5 ; (1 found)
0x16937: add byte [rax-0x007F], cl ; retn 0x00F5 ; (1 found)
0x10bd2: add byte [rax-0x03], 0xFF ; dec  [rax+0x39] ; ret ; (1 found)
0x10c72: add byte [rax-0x03], 0xFF ; dec  [rax+0x39] ; ret ; (1 found)
0xaf37: add byte [rax-0x39], cl ; ret ; (1 found)
0x12d8a: add byte [rax-0x39], cl ; retn 0xFFFF ; (1 found)
0x17421: add byte [rax-0x39], cl ; retn 0xFFFF ; (1 found)
0x20c70: add byte [rax-0x3F], cl ; retn 0x4811 ; (1 found)
0x190ff: add byte [rax-0x73], cl ; add eax, 0x0000F578 ; ret ; (1 found)
0x190ef: add byte [rax-0x73], cl ; add eax, 0x0000F59F ; ret ; (1 found)
0x190bf: add byte [rax-0x73], cl ; add eax, 0x0000F5E0 ; ret ; (1 found)
0x190cf: add byte [rax-0x73], cl ; add eax, 0x0000F602 ; ret ; (1 found)
0x190df: add byte [rax-0x73], cl ; add eax, 0x0000F605 ; ret ; (1 found)
0x190af: add byte [rax-0x73], cl ; add eax, 0x0000F60A ; ret ; (1 found)
0x1657f: add byte [rax-0x73], cl ; add eax, 0x0001B589 ; ret ; (1 found)
0x12b4f: add byte [rax-0x75], cl ; adc byte [r8-0x7D], cl ; ret ; (1 found)
0x17eff: add byte [rax-0x75], cl ; or byte [rax-0x7D], cl ; retn 0x4808 ; (1 found)
0x1e586: add byte [rax-0x75], cl ; sbb byte [rax-0x77], cl ; retn 0x45E9 ; (1 found)
0x18e56: add byte [rax-0x77], cl ; add byte [r8-0x77], r9L ; ret ; (1 found)
0x18e57: add byte [rax-0x77], cl ; add byte [r8-0x77], r9L ; ret ; (1 found)
0x18344: add byte [rax-0x77], cl ; add eax, 0x0001AEC4 ; call rsi ; (1 found)
0x68cf: add byte [rax-0x77], cl ; fimul  [rax-0x7D] ; ret ; (1 found)
0x11ee2: add byte [rax-0x77], cl ; fistp qword [rax+0x0000014E] ; syscall ; (1 found)
0x1860: add byte [rax-0x77], cl ; mov r8L, byte [0x8949000301AD15FF] ; ret ; (1 found)
0x321a: add byte [rax-0x77], cl ; ret ; (1 found)
0x33a1: add byte [rax-0x77], cl ; ret ; (1 found)
0x364e: add byte [rax-0x77], cl ; ret ; (1 found)
0x3ef0: add byte [rax-0x77], cl ; ret ; (1 found)
0x50ec: add byte [rax-0x77], cl ; ret ; (1 found)
0x5324: add byte [rax-0x77], cl ; ret ; (1 found)
0x56b0: add byte [rax-0x77], cl ; ret ; (1 found)
0x638a: add byte [rax-0x77], cl ; ret ; (1 found)
0xaf26: add byte [rax-0x77], cl ; ret ; (1 found)
0xb038: add byte [rax-0x77], cl ; ret ; (1 found)
0xc4cf: add byte [rax-0x77], cl ; ret ; (1 found)
0xc510: add byte [rax-0x77], cl ; ret ; (1 found)
0x10ecd: add byte [rax-0x77], cl ; ret ; (1 found)
0x10f9d: add byte [rax-0x77], cl ; ret ; (1 found)
0x10fe0: add byte [rax-0x77], cl ; ret ; (1 found)
0x15c8b: add byte [rax-0x77], cl ; ret ; (1 found)
0x15ee3: add byte [rax-0x77], cl ; ret ; (1 found)
0x15fdb: add byte [rax-0x77], cl ; ret ; (1 found)
0x18569: add byte [rax-0x77], cl ; ret ; (1 found)
0x18e5b: add byte [rax-0x77], cl ; ret ; (1 found)
0x18eb7: add byte [rax-0x77], cl ; retn 0x01B8 ; (1 found)
0x2055d: add byte [rax-0x77], cl ; retn 0x0D8B ; (1 found)
0x18e7b: add byte [rax-0x77], cl ; retn 0x2948 ; (1 found)
0xa820: add byte [rax-0x77], cl ; retn 0x8348 ; (1 found)
0xaf6f: add byte [rax-0x77], cl ; retn 0x8348 ; (1 found)
0xbd87: add byte [rax-0x77], cl ; retn 0x8348 ; (1 found)
0x5ca2: add byte [rax-0x77], cl ; retn 0x8548 ; (1 found)
0x11baf: add byte [rax-0x77], cl ; retn 0x8548 ; (1 found)
0x3631: add byte [rax-0x77], cl ; retn 0x894C ; (1 found)
0xb216: add byte [rax-0x77], cl ; retn 0xC031 ; (1 found)
0x3e4f: add byte [rax-0x77], cl ; retn 0xC148 ; (1 found)
0x1b9f7: add byte [rax-0x77], cl ; retn 0xC148 ; (1 found)
0x180f3: add byte [rax-0x77], cl ; ror  [rax-0x77], 1 ; retn 0xC1E8 ; (1 found)
0x10b27: add byte [rax-0x77], cl ; ror byte [rax-0x7D], 1 ; retn 0x4D01 ; (1 found)
0x1829a: add byte [rax-0x77], cl ; xlatb ; call rsi ; (1 found)
0x1af3b: add byte [rax-0x7B], cl ; ror byte [rax+0x0F], 0x44 ; retn 0x8948 ; (1 found)
0xa8cf: add byte [rax-0x7B], cl ; sal byte [rbx+rbp*8+0x31], 0xC0 ; ret ; (1 found)
0x39d5: add byte [rax-0x7D], cl ; ret ; (1 found)
0x4aae: add byte [rax-0x7D], cl ; ret ; (1 found)
0x4aaf: add byte [rax-0x7D], cl ; ret ; (1 found)
0x4de2: add byte [rax-0x7D], cl ; ret ; (1 found)
0x5f6c: add byte [rax-0x7D], cl ; ret ; (1 found)
0xe5f6: add byte [rax-0x7D], cl ; ret ; (1 found)
0xe5f7: add byte [rax-0x7D], cl ; ret ; (1 found)
0xf04f: add byte [rax-0x7D], cl ; ret ; (1 found)
0x115f6: add byte [rax-0x7D], cl ; ret ; (1 found)
0x1179f: add byte [rax-0x7D], cl ; ret ; (1 found)
0x118b6: add byte [rax-0x7D], cl ; ret ; (1 found)
0x118e5: add byte [rax-0x7D], cl ; ret ; (1 found)
0x11b6f: add byte [rax-0x7D], cl ; ret ; (1 found)
0x133cc: add byte [rax-0x7D], cl ; ret ; (1 found)
0x1a3e0: add byte [rax-0x7D], cl ; ret ; (1 found)
0x1b07e: add byte [rax-0x7D], cl ; ret ; (1 found)
0x1b07f: add byte [rax-0x7D], cl ; ret ; (1 found)
0x1b39d: add byte [rax-0x7D], cl ; ret ; (1 found)
0x9ce7: add byte [rax-0x7D], cl ; retn 0x4801 ; (1 found)
0x1cfbf: add byte [rax-0x7D], cl ; retn 0x4801 ; (1 found)
0x7459: add byte [rax-0x7D], cl ; retn 0x4807 ; (1 found)
0x1c691: add byte [rax-0x7D], cl ; retn 0x4807 ; (1 found)
0x2538e: add byte [rax-0x7D], cl ; rol byte [rax+0x49], 0x39 ; retn 0x2774 ; (1 found)
0x2538f: add byte [rax-0x7D], cl ; rol byte [rax+0x49], 0x39 ; retn 0x2774 ; (1 found)
0x132d: add byte [rax-0x7D], cl ; ror  [rax], 0xFFFFFF83 ; retn 0x8001 ; (1 found)
0xb4ef: add byte [rax-0x7D], cl ; ror byte [rax], 0x89 ; retn 0x8941 ; (1 found)
0x20aeb: add byte [rax], 0x00 ; add byte [rax+0x000000CA], bh ; syscall ; (1 found)
0x10c13: add byte [rax], 0x00 ; add byte [rcx+rcx*4-0x38], al ; syscall ; (1 found)
0x10cb3: add byte [rax], 0x00 ; add byte [rcx+rcx*4-0x38], al ; syscall ; (1 found)
0x15b6f: add byte [rax], 0x00 ; add cl, ch ; ret ; (1 found)
0x154a0: add byte [rax], al ; add bh, dh ; retn 0x0000 ; (1 found)
0x18dbb: add byte [rax], al ; add bh, dh ; retn 0x0000 ; (1 found)
0x2096d: add byte [rax], al ; add byte [rax+0x00000001], bh ; syscall ; (1 found)
0x2076d: add byte [rax], al ; add byte [rax+0x00000008], bh ; syscall ; (1 found)
0x20a8d: add byte [rax], al ; add byte [rax+0x0000000B], bh ; syscall ; (1 found)
0x20dce: add byte [rax], al ; add byte [rax+0x0000000D], bh ; syscall ; (1 found)
0x20817: add byte [rax], al ; add byte [rax+0x00000048], bh ; syscall ; (1 found)
0x2086f: add byte [rax], al ; add byte [rax+0x00000048], bh ; syscall ; (1 found)
0x20aec: add byte [rax], al ; add byte [rax+0x000000CA], bh ; syscall ; (1 found)
0x20b8a: add byte [rax], al ; add byte [rax+0x000000CA], bh ; syscall ; (1 found)
0x20ba9: add byte [rax], al ; add byte [rax+0x000000CA], bh ; syscall ; (1 found)
0x21cdd: add byte [rax], al ; add byte [rax+0x078D4837], cl ; ret ; (1 found)
0x1436c: add byte [rax], al ; add byte [rax+0x08408B48], dl ; ret ; (1 found)
0x33cc: add byte [rax], al ; add byte [rax+0x0F], cl ; ret ; (1 found)
0x7a23: add byte [rax], al ; add byte [rax+0x0F], cl ; retn 0x3145 ; (1 found)
0x6788: add byte [rax], al ; add byte [rax+0x29], cl ; retn 0xC148 ; (1 found)
0x785c: add byte [rax], al ; add byte [rax+0x29], cl ; retn 0xC148 ; (1 found)
0x204ee: add byte [rax], al ; add byte [rax+0x29], cl ; retn 0xC148 ; (1 found)
0x3f42: add byte [rax], al ; add byte [rax+0x39], cl ; ret ; (1 found)
0xee2f: add byte [rax], al ; add byte [rax+0x39], cl ; ret ; (1 found)
0xb456: add byte [rax], al ; add byte [rax+0x39], cl ; retn 0x830F ; (1 found)
0x14090: add byte [rax], al ; add byte [rax+0x39], cl ; retn 0x830F ; (1 found)
0x1fa17: add byte [rax], al ; add byte [rax-0x00000001], bh ; ret ; (1 found)
0x2034d: add byte [rax], al ; add byte [rax-0x00000001], bh ; ret ; (1 found)
0x206a7: add byte [rax], al ; add byte [rax-0x00000001], bh ; ret ; (1 found)
0x20cff: add byte [rax], al ; add byte [rax-0x00000001], bh ; ret ; (1 found)
0x11ebf: add byte [rax], al ; add byte [rax-0x007F], cl ; ret ; (1 found)
0xc4cd: add byte [rax], al ; add byte [rax-0x77], cl ; ret ; (1 found)
0x15c89: add byte [rax], al ; add byte [rax-0x77], cl ; ret ; (1 found)
0x15ee1: add byte [rax], al ; add byte [rax-0x77], cl ; ret ; (1 found)
0x15fd9: add byte [rax], al ; add byte [rax-0x77], cl ; ret ; (1 found)
0x18567: add byte [rax], al ; add byte [rax-0x77], cl ; ret ; (1 found)
0xbd85: add byte [rax], al ; add byte [rax-0x77], cl ; retn 0x8348 ; (1 found)
0x4de0: add byte [rax], al ; add byte [rax-0x7D], cl ; ret ; (1 found)
0xf04d: add byte [rax], al ; add byte [rax-0x7D], cl ; ret ; (1 found)
0x118b4: add byte [rax], al ; add byte [rax-0x7D], cl ; ret ; (1 found)
0x118e3: add byte [rax], al ; add byte [rax-0x7D], cl ; ret ; (1 found)
0x11b6d: add byte [rax], al ; add byte [rax-0x7D], cl ; ret ; (1 found)
0x133ca: add byte [rax], al ; add byte [rax-0x7D], cl ; ret ; (1 found)
0x1a3de: add byte [rax], al ; add byte [rax-0x7D], cl ; ret ; (1 found)
0x1b39b: add byte [rax], al ; add byte [rax-0x7D], cl ; ret ; (1 found)
0x9ce5: add byte [rax], al ; add byte [rax-0x7D], cl ; retn 0x4801 ; (1 found)
0x1011c: add byte [rax], al ; add byte [rax], al ; call rdx ; (1 found)
0x3944: add byte [rax], al ; add byte [rax], al ; ret ; (1 found)
0x461b: add byte [rax], al ; add byte [rax], al ; ret ; (1 found)
0x590c: add byte [rax], al ; add byte [rax], al ; ret ; (1 found)
0x137a7: add byte [rax], al ; add byte [rax], al ; ret ; (1 found)
0x138cc: add byte [rax], al ; add byte [rax], al ; ret ; (1 found)
0x14389: add byte [rax], al ; add byte [rax], al ; ret ; (1 found)
0x1a1dc: add byte [rax], al ; add byte [rax], al ; ret ; (1 found)
0x14ae7: add byte [rax], al ; add byte [rbp-0x77], cl ; ret ; (1 found)
0x1c0a7: add byte [rax], al ; add byte [rbx+0x440FFFF8], al ; retn 0x0589 ; (1 found)
0x121e: add byte [rax], al ; add byte [rbx+0x5D], bl ; ret ; (1 found)
0xaa86: add byte [rax], al ; add byte [rbx+0x5D], bl ; ret ; (1 found)
0x20216: add byte [rax], al ; add byte [rbx+0x5D], bl ; ret ; (1 found)
0x20477: add byte [rax], al ; add byte [rbx+0x5D], bl ; ret ; (1 found)
0x165cd: add byte [rax], al ; add byte [rcx+rcx*4-0x1A], al ; call rax ; (1 found)
0x10c14: add byte [rax], al ; add byte [rcx+rcx*4-0x38], al ; syscall ; (1 found)
0x10cb4: add byte [rax], al ; add byte [rcx+rcx*4-0x38], al ; syscall ; (1 found)
0x1538d: add byte [rax], al ; add byte [rcx-0x09], al ; retn 0x0000 ; (1 found)
0x223ed: add byte [rax], al ; add byte [rcx-0x7D], cl ; retn 0x0F10 ; (1 found)
0x2252d: add byte [rax], al ; add byte [rcx-0x7D], cl ; retn 0x0F10 ; (1 found)
0x2266d: add byte [rax], al ; add byte [rcx-0x7D], cl ; retn 0x0F10 ; (1 found)
0x227ad: add byte [rax], al ; add byte [rcx-0x7D], cl ; retn 0x0F10 ; (1 found)
0x228ed: add byte [rax], al ; add byte [rcx-0x7D], cl ; retn 0x0F10 ; (1 found)
0x22a2d: add byte [rax], al ; add byte [rcx-0x7D], cl ; retn 0x0F10 ; (1 found)
0x22b6d: add byte [rax], al ; add byte [rcx-0x7D], cl ; retn 0x0F10 ; (1 found)
0x22cad: add byte [rax], al ; add byte [rcx-0x7D], cl ; retn 0x0F10 ; (1 found)
0x22ded: add byte [rax], al ; add byte [rcx-0x7D], cl ; retn 0x0F10 ; (1 found)
0x22f2d: add byte [rax], al ; add byte [rcx-0x7D], cl ; retn 0x0F10 ; (1 found)
0x2306d: add byte [rax], al ; add byte [rcx-0x7D], cl ; retn 0x0F10 ; (1 found)
0x231ad: add byte [rax], al ; add byte [rcx-0x7D], cl ; retn 0x0F10 ; (1 found)
0x232ed: add byte [rax], al ; add byte [rcx-0x7D], cl ; retn 0x0F10 ; (1 found)
0x2342d: add byte [rax], al ; add byte [rcx-0x7D], cl ; retn 0x0F10 ; (1 found)
0x2356d: add byte [rax], al ; add byte [rcx-0x7D], cl ; retn 0x0F10 ; (1 found)
0x1544d: add byte [rax], al ; add byte [rcx-0x7D], cl ; retn 0x4804 ; (1 found)
0x39fd: add byte [rax], al ; add byte [rcx-0x7D], cl ; retn 0x4901 ; (1 found)
0x15b70: add byte [rax], al ; add cl, ch ; ret ; (1 found)
0x721e: add byte [rax], al ; add dh, dh ; retn 0x7404 ; (1 found)
0x1cb2f: add byte [rax], al ; add dh, dh ; retn 0x7404 ; (1 found)
0x2008d: add byte [rax], al ; add dh, dh ; retn 0x7540 ; (1 found)
0x256c4: add byte [rax], al ; add rax, rdx ; ret ; (1 found)
0x20631: add byte [rax], al ; add rsp, 0x00000000000000C8 ; ret ; (1 found)
0x110c4: add byte [rax], al ; add rsp, 0x08 ; ret ; (1 found)
0x137d3: add byte [rax], al ; add rsp, 0x08 ; ret ; (1 found)
0x1d927: add byte [rax], al ; and byte [rax-0x77], cl ; retn 0x8348 ; (1 found)
0x238e0: add byte [rax], al ; bsf rax, rdx ; ret ; (1 found)
0x252f0: add byte [rax], al ; bsf rax, rdx ; ret ; (1 found)
0x1e149: add byte [rax], al ; call rax ; (1 found)
0x1011e: add byte [rax], al ; call rdx ; (1 found)
0x190fe: add byte [rax], al ; lea rax, qword [0x000000000002867F] ; ret ; (1 found)
0x190ee: add byte [rax], al ; lea rax, qword [0x0000000000028696] ; ret ; (1 found)
0x190be: add byte [rax], al ; lea rax, qword [0x00000000000286A7] ; ret ; (1 found)
0x190ae: add byte [rax], al ; lea rax, qword [0x00000000000286C1] ; ret ; (1 found)
0x190ce: add byte [rax], al ; lea rax, qword [0x00000000000286D9] ; ret ; (1 found)
0x190de: add byte [rax], al ; lea rax, qword [0x00000000000286EC] ; ret ; (1 found)
0x1657e: add byte [rax], al ; lea rax, qword [0x0000000000031B10] ; ret ; (1 found)
0x2064e: add byte [rax], al ; mov eax,  [0x0000000000031AE0] ; ret ; (1 found)
0x2096e: add byte [rax], al ; mov eax, 0x00000001 ; syscall ; (1 found)
0x2076e: add byte [rax], al ; mov eax, 0x00000008 ; syscall ; (1 found)
0x20a8e: add byte [rax], al ; mov eax, 0x0000000B ; syscall ; (1 found)
0x20dcf: add byte [rax], al ; mov eax, 0x0000000D ; syscall ; (1 found)
0x2567e: add byte [rax], al ; mov eax, 0x00000026 ; syscall ; (1 found)
0x20818: add byte [rax], al ; mov eax, 0x00000048 ; syscall ; (1 found)
0x20870: add byte [rax], al ; mov eax, 0x00000048 ; syscall ; (1 found)
0x20aed: add byte [rax], al ; mov eax, 0x000000CA ; syscall ; (1 found)
0x20b8b: add byte [rax], al ; mov eax, 0x000000CA ; syscall ; (1 found)
0x20baa: add byte [rax], al ; mov eax, 0x000000CA ; syscall ; (1 found)
0x11e51: add byte [rax], al ; mov eax, 0x000000DA ; syscall ; (1 found)
0x1fa18: add byte [rax], al ; mov eax, 0xFFFFFFFF ; ret ; (1 found)
0x2034e: add byte [rax], al ; mov eax, 0xFFFFFFFF ; ret ; (1 found)
0x206a8: add byte [rax], al ; mov eax, 0xFFFFFFFF ; ret ; (1 found)
0x20d00: add byte [rax], al ; mov eax, 0xFFFFFFFF ; ret ; (1 found)
0x25696: add byte [rax], al ; mov eax, 0xFFFFFFFF ; ret ; (1 found)
0x10c15: add byte [rax], al ; mov eax, r9d ; syscall ; (1 found)
0x10cb5: add byte [rax], al ; mov eax, r9d ; syscall ; (1 found)
0x1e144: add byte [rax], al ; mov edi, 0x00000002 ; call rax ; (1 found)
0x165ce: add byte [rax], al ; mov esi, r12d ; call rax ; (1 found)
0x18343: add byte [rax], al ; mov qword [0x0000000000033210], rax ; call rsi ; (1 found)
0x105f6: add byte [rax], al ; mov qword [rax+0x00000320], rdx ; ret ; (1 found)
0x4876: add byte [rax], al ; mov qword [rbp-0x38], rax ; call qword [rax] ; (1 found)
0x1dc9e: add byte [rax], al ; mov qword [rbx+0x10], rbx ; syscall ; (1 found)
0x10426: add byte [rax], al ; mov qword [rsp+0x08], r8 ; call rax ; (1 found)
0x20a68: add byte [rax], al ; mov rax, 0xFFFFFFFFFFFFFFFF ; ret ; (1 found)
0x21d1: add byte [rax], al ; mov rax, rcx ; ret ; (1 found)
0x143d1: add byte [rax], al ; mov rdi, qword [rsp-0x08] ; ret ; (1 found)
0x18299: add byte [rax], al ; mov rdi, rdx ; call rsi ; (1 found)
0x207d: add byte [rax], al ; nop ; ret ; (1 found)
0x468e: add byte [rax], al ; pop rbx ; ret ; (1 found)
0x148f9: add byte [rax], al ; pop rbx ; ret ; (1 found)
0x237c8: add byte [rax], al ; pop rbx ; ret ; (1 found)
0x31c6: add byte [rax], al ; ret ; (1 found)
0x3946: add byte [rax], al ; ret ; (1 found)
0x461d: add byte [rax], al ; ret ; (1 found)
0x590e: add byte [rax], al ; ret ; (1 found)
0xcd5f: add byte [rax], al ; ret ; (1 found)
0xce0f: add byte [rax], al ; ret ; (1 found)
0xceb1: add byte [rax], al ; ret ; (1 found)
0xcf5b: add byte [rax], al ; ret ; (1 found)
0xcffb: add byte [rax], al ; ret ; (1 found)
0x105b8: add byte [rax], al ; ret ; (1 found)
0x105fd: add byte [rax], al ; ret ; (1 found)
0x12d13: add byte [rax], al ; ret ; (1 found)
0x137a9: add byte [rax], al ; ret ; (1 found)
0x138ce: add byte [rax], al ; ret ; (1 found)
0x14036: add byte [rax], al ; ret ; (1 found)
0x1438b: add byte [rax], al ; ret ; (1 found)
0x16b1e: add byte [rax], al ; ret ; (1 found)
0x1700e: add byte [rax], al ; ret ; (1 found)
0x17f2e: add byte [rax], al ; ret ; (1 found)
0x18287: add byte [rax], al ; ret ; (1 found)
0x18e22: add byte [rax], al ; ret ; (1 found)
0x18f78: add byte [rax], al ; ret ; (1 found)
0x190b5: add byte [rax], al ; ret ; (1 found)
0x190c5: add byte [rax], al ; ret ; (1 found)
0x190d5: add byte [rax], al ; ret ; (1 found)
0x190e5: add byte [rax], al ; ret ; (1 found)
0x190f5: add byte [rax], al ; ret ; (1 found)
0x19105: add byte [rax], al ; ret ; (1 found)
0x1a1de: add byte [rax], al ; ret ; (1 found)
0x2053e: add byte [rax], al ; ret ; (1 found)
0x20638: add byte [rax], al ; ret ; (1 found)
0x20b6e: add byte [rax], al ; ret ; (1 found)
0x20e82: add byte [rax], al ; ret ; (1 found)
0x20eb4: add byte [rax], al ; ret ; (1 found)
0x25ece: add byte [rax], al ; ret ; (1 found)
0x12c33: add byte [rax], al ; syscall ; ret ; (1 found)
0x20b90: add byte [rax], al ; syscall ; ret ; (1 found)
0x20baf: add byte [rax], al ; syscall ; ret ; (1 found)
0x20c33: add byte [rax], al ; syscall ; ret ; (1 found)
0xa171: add byte [rax], al ; syscall ; (1 found)
0xc70b: add byte [rax], al ; syscall ; (1 found)
0x10070: add byte [rax], al ; syscall ; (1 found)
0x10388: add byte [rax], al ; syscall ; (1 found)
0x11e56: add byte [rax], al ; syscall ; (1 found)
0x11eb2: add byte [rax], al ; syscall ; (1 found)
0x11ee9: add byte [rax], al ; syscall ; (1 found)
0x12c33: add byte [rax], al ; syscall ; (1 found)
0x13e49: add byte [rax], al ; syscall ; (1 found)
0x1e82f: add byte [rax], al ; syscall ; (1 found)
0x1f9f3: add byte [rax], al ; syscall ; (1 found)
0x1faba: add byte [rax], al ; syscall ; (1 found)
0x200a6: add byte [rax], al ; syscall ; (1 found)
0x204af: add byte [rax], al ; syscall ; (1 found)
0x206d6: add byte [rax], al ; syscall ; (1 found)
0x2071e: add byte [rax], al ; syscall ; (1 found)
0x20773: add byte [rax], al ; syscall ; (1 found)
0x20793: add byte [rax], al ; syscall ; (1 found)
0x207b3: add byte [rax], al ; syscall ; (1 found)
0x207f9: add byte [rax], al ; syscall ; (1 found)
0x2081d: add byte [rax], al ; syscall ; (1 found)
0x20858: add byte [rax], al ; syscall ; (1 found)
0x20875: add byte [rax], al ; syscall ; (1 found)
0x20946: add byte [rax], al ; syscall ; (1 found)
0x20973: add byte [rax], al ; syscall ; (1 found)
0x20a4f: add byte [rax], al ; syscall ; (1 found)
0x20a93: add byte [rax], al ; syscall ; (1 found)
0x20ab3: add byte [rax], al ; syscall ; (1 found)
0x20af2: add byte [rax], al ; syscall ; (1 found)
0x20b90: add byte [rax], al ; syscall ; (1 found)
0x20baf: add byte [rax], al ; syscall ; (1 found)
0x20bc3: add byte [rax], al ; syscall ; (1 found)
0x20c33: add byte [rax], al ; syscall ; (1 found)
0x20d25: add byte [rax], al ; syscall ; (1 found)
0x20dd4: add byte [rax], al ; syscall ; (1 found)
0x25683: add byte [rax], al ; syscall ; (1 found)
0x19015: add byte [rax], al ; xor eax, eax ; ret ; (1 found)
0x20248: add byte [rax], al ; xor eax, eax ; ret ; (1 found)
0x20546: add byte [rax], al ; xor eax, eax ; ret ; (1 found)
0x2112b: add byte [rax], al ; xor eax, eax ; ret ; (1 found)
0x256ce: add byte [rax], al ; xor eax, eax ; ret ; (1 found)
0x2091e: add byte [rax], al ; xor eax, eax ; syscall ; (1 found)
0x20b43: add byte [rax], al ; xor sil, 0x80 ; syscall ; (1 found)
0x12d9b: add byte [rax], cl ; add byte [rax+0x0F], cl ; retn 0x8948 ; (1 found)
0x20112: add byte [rax], dl ; add byte [rax+0x39], cl ; ret ; (1 found)
0x20187: add byte [rax], dl ; add byte [rax+0x39], cl ; ret ; (1 found)
0x2567d: add byte [rax], r8L ; mov eax, 0x00000026 ; syscall ; (1 found)
0x4875: add byte [rax], r8L ; mov qword [rbp-0x38], rax ; call qword [rax] ; (1 found)
0x10425: add byte [rax], r8L ; mov qword [rsp+0x08], r8 ; call rax ; (1 found)
0x31c5: add byte [rax], r8L ; ret ; (1 found)
0x14035: add byte [rax], r8L ; ret ; (1 found)
0x16b1d: add byte [rax], r8L ; ret ; (1 found)
0x1700d: add byte [rax], r8L ; ret ; (1 found)
0x17f2d: add byte [rax], r8L ; ret ; (1 found)
0x20b6d: add byte [rax], r8L ; ret ; (1 found)
0x25ecd: add byte [rax], r8L ; ret ; (1 found)
0x256cd: add byte [rax], r8L ; xor eax, eax ; ret ; (1 found)
0x20a49: add byte [rbp+0x14], dh ; mov eax, 0x00000009 ; syscall ; (1 found)
0x19575: add byte [rbp+0x41], bl ; pop rsp ; ret ; (1 found)
0x209e6: add byte [rbp+0x41], bl ; pop rsp ; ret ; (1 found)
0x666b: add byte [rbp-0x36], dh ; ret ; (1 found)
0x1c6d4: add byte [rbp-0x77], al ; ret ; (1 found)
0x14ae9: add byte [rbp-0x77], cl ; ret ; (1 found)
0x3e36: add byte [rbp-0x77], cl ; ror byte [rcx-0x7D], 1 ; retn 0x4901 ; (1 found)
0x3e37: add byte [rbp-0x77], cl ; ror byte [rcx-0x7D], 1 ; retn 0x4901 ; (1 found)
0x11490: add byte [rbx+0x31], bl ; rcr byte [rbp+0x41], 0x5C ; ret ; (1 found)
0x1c0a9: add byte [rbx+0x440FFFF8], al ; retn 0x0589 ; (1 found)
0x1147: add byte [rbx+0x5D], bl ; pop r12 ; ret ; (1 found)
0x1435f: add byte [rbx+0x5D], bl ; pop r12 ; ret ; (1 found)
0x19704: add byte [rbx+0x5D], bl ; pop r12 ; ret ; (1 found)
0x20276: add byte [rbx+0x5D], bl ; pop r12 ; ret ; (1 found)
0x20a20: add byte [rbx+0x5D], bl ; pop r12 ; ret ; (1 found)
0x1220: add byte [rbx+0x5D], bl ; ret ; (1 found)
0xaa88: add byte [rbx+0x5D], bl ; ret ; (1 found)
0x17d7e: add byte [rbx+0x5D], bl ; ret ; (1 found)
0x17e3f: add byte [rbx+0x5D], bl ; ret ; (1 found)
0x20218: add byte [rbx+0x5D], bl ; ret ; (1 found)
0x20479: add byte [rbx+0x5D], bl ; ret ; (1 found)
0x14535: add byte [rbx-0x143EFE40], al ; or al, 0x83 ; retn 0x8101 ; (1 found)
0x14344: add byte [rbx-0x198A0005], al ; mov rdi, qword [r12+0x00] ; call qword [r12+0x18] ; (1 found)
0x14f41: add byte [rbx-0x50F0FE3E], al ; ror  [rdi], 0xFFFFFFAF ; retn 0xA5E9 ; (1 found)
0x1d96e: add byte [rbx-0x7CB7FE40], al ; retn 0x3908 ; (1 found)
0x1d96f: add byte [rbx-0x7CB7FE40], al ; retn 0x3908 ; (1 found)
0x2cff: add byte [rcx+0x03059A1D], cl ; add cl, ch ; retn 0xFFFB ; (1 found)
0x18d62: add byte [rcx+0x08740000], al ; ret ; (1 found)
0xb166: add byte [rcx+0x148B48D8], cl ; retn 0xB60F ; (1 found)
0x253bf: add byte [rcx+0x39], cl ; ret ; (1 found)
0x19556: add byte [rcx+0x5C], al ; ret ; (1 found)
0x1beff: add byte [rcx+rax-0x18], cl ; jmp rax ; (1 found)
0x10427: add byte [rcx+rcx*4+0x44], cl ; and al, 0x08 ; call rax ; (1 found)
0x10f33: add byte [rcx+rcx*4-0x09], cl ; sub rbx, rax ; call rdx ; (1 found)
0x1e828: add byte [rcx+rcx*4-0x11], cl ; mov eax, 0x0000003B ; syscall ; (1 found)
0x165cf: add byte [rcx+rcx*4-0x1A], al ; call rax ; (1 found)
0x166c7: add byte [rcx+rcx*4-0x1E], al ; call rcx ; (1 found)
0x10c16: add byte [rcx+rcx*4-0x38], al ; syscall ; (1 found)
0x10cb6: add byte [rcx+rcx*4-0x38], al ; syscall ; (1 found)
0x18d5c: add byte [rcx-0x067F0000], al ; add byte [rcx+0x08740000], al ; ret ; (1 found)
0x1538f: add byte [rcx-0x09], al ; retn 0x0000 ; (1 found)
0x186a: add byte [rcx-0x77], cl ; ret ; (1 found)
0x96c3: add byte [rcx-0x77], cl ; ret ; (1 found)
0x188b0: add byte [rcx-0x77], cl ; retn 0x8548 ; (1 found)
0x1c4e3: add byte [rcx-0x77], cl ; retn 0x8D48 ; (1 found)
0x223ef: add byte [rcx-0x7D], cl ; retn 0x0F10 ; (1 found)
0x2252f: add byte [rcx-0x7D], cl ; retn 0x0F10 ; (1 found)
0x2266f: add byte [rcx-0x7D], cl ; retn 0x0F10 ; (1 found)
0x227af: add byte [rcx-0x7D], cl ; retn 0x0F10 ; (1 found)
0x228ef: add byte [rcx-0x7D], cl ; retn 0x0F10 ; (1 found)
0x22a2f: add byte [rcx-0x7D], cl ; retn 0x0F10 ; (1 found)
0x22b6f: add byte [rcx-0x7D], cl ; retn 0x0F10 ; (1 found)
0x22caf: add byte [rcx-0x7D], cl ; retn 0x0F10 ; (1 found)
0x22def: add byte [rcx-0x7D], cl ; retn 0x0F10 ; (1 found)
0x22f2f: add byte [rcx-0x7D], cl ; retn 0x0F10 ; (1 found)
0x2306f: add byte [rcx-0x7D], cl ; retn 0x0F10 ; (1 found)
0x231af: add byte [rcx-0x7D], cl ; retn 0x0F10 ; (1 found)
0x232ef: add byte [rcx-0x7D], cl ; retn 0x0F10 ; (1 found)
0x2342f: add byte [rcx-0x7D], cl ; retn 0x0F10 ; (1 found)
0x2356f: add byte [rcx-0x7D], cl ; retn 0x0F10 ; (1 found)
0x23bfe: add byte [rcx-0x7D], cl ; retn 0x0F10 ; (1 found)
0x23bff: add byte [rcx-0x7D], cl ; retn 0x0F10 ; (1 found)
0x23d7e: add byte [rcx-0x7D], cl ; retn 0x0F10 ; (1 found)
0x23d7f: add byte [rcx-0x7D], cl ; retn 0x0F10 ; (1 found)
0x23efe: add byte [rcx-0x7D], cl ; retn 0x0F10 ; (1 found)
0x23eff: add byte [rcx-0x7D], cl ; retn 0x0F10 ; (1 found)
0x2407e: add byte [rcx-0x7D], cl ; retn 0x0F10 ; (1 found)
0x2407f: add byte [rcx-0x7D], cl ; retn 0x0F10 ; (1 found)
0x241fe: add byte [rcx-0x7D], cl ; retn 0x0F10 ; (1 found)
0x241ff: add byte [rcx-0x7D], cl ; retn 0x0F10 ; (1 found)
0x2437e: add byte [rcx-0x7D], cl ; retn 0x0F10 ; (1 found)
0x2437f: add byte [rcx-0x7D], cl ; retn 0x0F10 ; (1 found)
0x244fe: add byte [rcx-0x7D], cl ; retn 0x0F10 ; (1 found)
0x244ff: add byte [rcx-0x7D], cl ; retn 0x0F10 ; (1 found)
0x2467e: add byte [rcx-0x7D], cl ; retn 0x0F10 ; (1 found)
0x2467f: add byte [rcx-0x7D], cl ; retn 0x0F10 ; (1 found)
0x247fe: add byte [rcx-0x7D], cl ; retn 0x0F10 ; (1 found)
0x247ff: add byte [rcx-0x7D], cl ; retn 0x0F10 ; (1 found)
0x2497e: add byte [rcx-0x7D], cl ; retn 0x0F10 ; (1 found)
0x2497f: add byte [rcx-0x7D], cl ; retn 0x0F10 ; (1 found)
0x24afe: add byte [rcx-0x7D], cl ; retn 0x0F10 ; (1 found)
0x24aff: add byte [rcx-0x7D], cl ; retn 0x0F10 ; (1 found)
0x24c7e: add byte [rcx-0x7D], cl ; retn 0x0F10 ; (1 found)
0x24c7f: add byte [rcx-0x7D], cl ; retn 0x0F10 ; (1 found)
0x24dfe: add byte [rcx-0x7D], cl ; retn 0x0F10 ; (1 found)
0x24dff: add byte [rcx-0x7D], cl ; retn 0x0F10 ; (1 found)
0x24f7e: add byte [rcx-0x7D], cl ; retn 0x0F10 ; (1 found)
0x24f7f: add byte [rcx-0x7D], cl ; retn 0x0F10 ; (1 found)
0x250fe: add byte [rcx-0x7D], cl ; retn 0x0F10 ; (1 found)
0x250ff: add byte [rcx-0x7D], cl ; retn 0x0F10 ; (1 found)
0x1544f: add byte [rcx-0x7D], cl ; retn 0x4804 ; (1 found)
0x39ff: add byte [rcx-0x7D], cl ; retn 0x4901 ; (1 found)
0x9a62: add byte [rcx], al ; retn 0x8348 ; (1 found)
0x1632e: add byte [rcx], al ; ror byte [rcx-0x769BDBBC], 1 ; retn 0xF883 ; (1 found)
0x202ba: add byte [rcx], bh ; ret ; (1 found)
0x2112c: add byte [rcx], dh ; rol bl, 0x83 ; retn 0x6620 ; (1 found)
0x3d0d: add byte [rcx], dh ; shl byte [rsi+0x0F], 0x6C ; ret ; (1 found)
0x1e145: add byte [rdi+0x00000002], bh ; call rax ; (1 found)
0x1dc9a: add byte [rdi+0x00001002], bh ; mov qword [rbx+0x10], rbx ; syscall ; (1 found)
0x11dfc: add byte [rdi], cl ; adc  [0x00000000000330E0], eax ; ret ; (1 found)
0x2116f: add byte [rdi], cl ; mov esp, 0xF80148C0 ; ret ; (1 found)
0x2195f: add byte [rdi], cl ; mov esp, 0xF80148C0 ; ret ; (1 found)
0x14544: add byte [rdi], cl ; scasd ; retn 0x538D ; (1 found)
0x14c72: add byte [rdi], cl ; xchg eax, edx ; retn 0xD284 ; (1 found)
0x1529: add byte [rdi], cl ; xchg eax, esp ; retn 0xDE89 ; (1 found)
0x20ae9: add byte [rsi+0x00000080], bh ; mov eax, 0x000000CA ; syscall ; (1 found)
0x10c11: add byte [rsi+0x00000080], bh ; mov eax, r9d ; syscall ; (1 found)
0x10cb1: add byte [rsi+0x00000080], bh ; mov eax, r9d ; syscall ; (1 found)
0x20b87: add byte [rsi+0x00000081], bh ; mov eax, 0x000000CA ; syscall ; (1 found)
0x21094: add byte [rsi+0x0F], ah ; xlatb ; retn 0xC085 ; (1 found)
0x20bbd: add byte [rsi-0x70], ah ; mov eax, 0x0000003F ; syscall ; (1 found)
0x9496: add cl, byte [rax+0x39] ; retn 0x830F ; (1 found)
0x1c3a4: add cl, byte [rax-0x7D] ; ret ; (1 found)
0x1c3e5: add cl, byte [rax-0x7D] ; ret ; (1 found)
0x1e383: add cl, byte [rax-0x7D] ; ret ; (1 found)
0x1e695: add cl, byte [rax-0x7D] ; ret ; (1 found)
0x1e70c: add cl, byte [rax-0x7D] ; ret ; (1 found)
0x1e764: add cl, byte [rax-0x7D] ; ret ; (1 found)
0xbd77: add cl, byte [rax-0x7D] ; retn 0x4808 ; (1 found)
0xbfc7: add cl, byte [rax-0x7D] ; retn 0x4808 ; (1 found)
0x2163c: add cl, byte [rdi] ; adc  [rcx], eax ; ret ; (1 found)
0xd3f2: add cl, ch ; ret ; (1 found)
0x15b72: add cl, ch ; ret ; (1 found)
0x1f74b: add cl, ch ; ret ; (1 found)
0x2d05: add cl, ch ; retn 0xFFFB ; (1 found)
0x190d3: add dh, dh ; add byte [rax], al ; ret ; (1 found)
0x7214: add dh, dh ; retn 0x7402 ; (1 found)
0x1cb25: add dh, dh ; retn 0x7402 ; (1 found)
0x7220: add dh, dh ; retn 0x7404 ; (1 found)
0x1cb31: add dh, dh ; retn 0x7404 ; (1 found)
0x2008f: add dh, dh ; retn 0x7540 ; (1 found)
0x21765: add eax,  [rax-0x78] ; aaa ; ret ; (1 found)
0xc888: add eax,  [rax] ; add byte [rax+0x63], cl ; ret ; (1 found)
0x207b1: add eax,  [rax] ; add byte [rax], al ; syscall ; (1 found)
0x2125: add eax,  [rax] ; mov rax, rcx ; ret ; (1 found)
0x1b59d: add eax,  [rbp+0x5B0675C0] ; ret ; (1 found)
0x11a87: add eax,  [rdi+0x08] ; ret ; (1 found)
0x14457: add eax,  [rdi+0x08] ; ret ; (1 found)
0x48a0: add eax,  [rdi] ; call rax ; (1 found)
0x25693: add eax, 0x0000DC08 ; mov eax, 0xFFFFFFFF ; ret ; (1 found)
0x19102: add eax, 0x0000F578 ; ret ; (1 found)
0x190f2: add eax, 0x0000F59F ; ret ; (1 found)
0x190c2: add eax, 0x0000F5E0 ; ret ; (1 found)
0x190d2: add eax, 0x0000F602 ; ret ; (1 found)
0x190e2: add eax, 0x0000F605 ; ret ; (1 found)
0x190b2: add eax, 0x0000F60A ; ret ; (1 found)
0x20651: add eax, 0x0001148A ; ret ; (1 found)
0x20a7b: add eax, 0x00012820 ; mov rax, 0xFFFFFFFFFFFFFFFF ; ret ; (1 found)
0x20983: add eax, 0x00012918 ; mov rax, 0xFFFFFFFFFFFFFFFF ; ret ; (1 found)
0x2095b: add eax, 0x00012940 ; mov rax, 0xFFFFFFFFFFFFFFFF ; ret ; (1 found)
0x20933: add eax, 0x00012968 ; mov rax, 0xFFFFFFFFFFFFFFFF ; ret ; (1 found)
0x2090b: add eax, 0x00012990 ; mov eax, 0xFFFFFFFF ; ret ; (1 found)
0x20883: add eax, 0x00012A18 ; mov eax, 0xFFFFFFFF ; ret ; (1 found)
0x2082b: add eax, 0x00012A70 ; mov eax, 0xFFFFFFFF ; ret ; (1 found)
0x207c3: add eax, 0x00012AD8 ; mov eax, 0xFFFFFFFF ; ret ; (1 found)
0x207a3: add eax, 0x00012AF8 ; mov eax, 0xFFFFFFFF ; ret ; (1 found)
0x20783: add eax, 0x00012B18 ; mov rax, 0xFFFFFFFFFFFFFFFF ; ret ; (1 found)
0x2075b: add eax, 0x00012B40 ; mov eax, 0xFFFFFFFF ; ret ; (1 found)
0x206eb: add eax, 0x00012BB0 ; mov eax, 0xFFFFFFFF ; ret ; (1 found)
0x204c3: add eax, 0x00012DD8 ; mov rax, 0xFFFFFFFFFFFFFFFF ; ret ; (1 found)
0x200bb: add eax, 0x000131E0 ; mov eax, 0xFFFFFFFF ; ret ; (1 found)
0x19003: add eax, 0x00018A08 ; ret ; (1 found)
0x18347: add eax, 0x0001AEC4 ; call rsi ; (1 found)
0x16582: add eax, 0x0001B589 ; ret ; (1 found)
0x148e1: add eax, 0x0001D1DA ; pop rbx ; ret ; (1 found)
0x11df8: add eax, 0x0001FC33 ; movups  [0x00000000000330E0], xmm0 ; ret ; (1 found)
0x113ec: add eax, 0x00020957 ; mov qword [rsi], rax ; ret ; (1 found)
0x11dff: add eax, 0x000212DC ; ret ; (1 found)
0x10710: add eax, 0x0002169B ; add rsp, 0x18 ; ret ; (1 found)
0xa90a: add eax, 0x00028879 ; add rsp, 0x08 ; ret ; (1 found)
0x38cd: add eax, 0x0002F9CE ; add rsp, 0x08 ; ret ; (1 found)
0x17f23: add eax, 0x03 ; mov qword [rdi], rdx ; ret ; (1 found)
0x18e1b: add eax, 0x06 ; ret ; (1 found)
0x14455: add eax, 0x08470348 ; ret ; (1 found)
0x21ded: add eax, 0x0C478D48 ; ret ; (1 found)
0x20ce: add eax, 0x11148B48 ; mov qword [rax+0x08], rdx ; ret ; (1 found)
0x1148e: add eax, 0x315B0002 ; rcr byte [rbp+0x41], 0x5C ; ret ; (1 found)
0x98f2: add eax, 0x41C50149 ; call qword [rbp+0x68] ; (1 found)
0x18ffc: add eax, 0xFFFF191F ; mov qword [0x0000000000031A10], rax ; ret ; (1 found)
0x1979d: add eax, eax ; jmp rax ; (1 found)
0x1bf01: add eax, ebp ; jmp rax ; (1 found)
0x14644: add eax, ecx ; jmp rax ; (1 found)
0x16395: add eax, ecx ; jmp rax ; (1 found)
0x19033: add eax, ecx ; jmp rax ; (1 found)
0x197d3: add eax, ecx ; jmp rax ; (1 found)
0x11a4c: add eax, ecx ; ret ; (1 found)
0x20f49: add eax, ecx ; ret ; (1 found)
0x217f1: add eax, ecx ; ret ; (1 found)
0x20f46: add eax, edi ; add rax, rcx ; ret ; (1 found)
0x217ee: add eax, edi ; add rax, rcx ; ret ; (1 found)
0xefd9: add eax, edi ; jmp rax ; (1 found)
0x145e0: add eax, edi ; jmp rax ; (1 found)
0x21174: add eax, edi ; ret ; (1 found)
0x211a9: add eax, edi ; ret ; (1 found)
0x21964: add eax, edi ; ret ; (1 found)
0x256c7: add eax, edx ; ret ; (1 found)
0x239f6: add eax, edx ; sub rax, rdi ; ret ; (1 found)
0x2540b: add eax, edx ; sub rax, rdi ; ret ; (1 found)
0x25462: add eax, edx ; sub rax, rdi ; ret ; (1 found)
0xfb61: add eax, esi ; call rax ; (1 found)
0xe57e: add eax, esi ; jmp rax ; (1 found)
0x1468e: add eax, esi ; jmp rax ; (1 found)
0x98f4: add ebp, eax ; call qword [r13+0x68] ; (1 found)
0xfa63: add ebx, ecx ; call r11 ; (1 found)
0x67ba: add ecx,  [rax+0x01] ; retn 0x3948 ; (1 found)
0x1b87b: add ecx,  [rax+0x01] ; xor cl, byte [rax-0x7D] ; retn 0x4808 ; (1 found)
0x973f: add ecx,  [rax+0x29] ; retn 0x8D48 ; (1 found)
0x17ebd: add ecx,  [rax-0x77] ; retn 0x8348 ; (1 found)
0x341a: add ecx,  [rbp-0x77] ; dec byte [rax-0x7D] ; ret ; (1 found)
0x21d54: add ecx,  [rcx+0x0357890F] ; lea rax, qword [rdi+0x06] ; ret ; (1 found)
0x4a71: add ecx,  [rcx+rcx*4-0x1A] ; mov edi, ebp ; call rax ; (1 found)
0x51d8: add ecx,  [rdi] ; xchg eax, ebp ; retn 0xC084 ; (1 found)
0xf6c0: add ecx, ebx ; call r9 ; (1 found)
0x1c50d: add ecx, edx ; jmp rcx ; (1 found)
0x3935: add edx,  [rax+0x10] ; mov qword [rsi+0x18], rdx ; ret ; (1 found)
0x345c: add esp,  [0x0000000046B643A3] ; add  [rax-0x7D], ecx ; ret ; (1 found)
0x20634: add esp, 0x000000C8 ; ret ; (1 found)
0x20e7e: add esp, 0x000000D0 ; ret ; (1 found)
0x20eb0: add esp, 0x000000D0 ; ret ; (1 found)
0xcd5b: add esp, 0x000000D8 ; ret ; (1 found)
0xce0b: add esp, 0x000000D8 ; ret ; (1 found)
0xcead: add esp, 0x000000D8 ; ret ; (1 found)
0xcf57: add esp, 0x000000D8 ; ret ; (1 found)
0xcff7: add esp, 0x000000D8 ; ret ; (1 found)
0x237c4: add esp, 0x00000100 ; pop rbx ; ret ; (1 found)
0x18283: add esp, 0x00000118 ; ret ; (1 found)
0x38d3: add esp, 0x08 ; ret ; (1 found)
0xa910: add esp, 0x08 ; ret ; (1 found)
0x110c7: add esp, 0x08 ; ret ; (1 found)
0x137d6: add esp, 0x08 ; ret ; (1 found)
0x1655c: add esp, 0x08 ; ret ; (1 found)
0x11f24: add esp, 0x10 ; pop rbx ; ret ; (1 found)
0x172eb: add esp, 0x10 ; pop rbx ; ret ; (1 found)
0x1aaaf: add esp, 0x10 ; pop rbx ; ret ; (1 found)
0x12145: add esp, 0x18 ; jmp r11 ; (1 found)
0x12213: add esp, 0x18 ; jmp r11 ; (1 found)
0x122d3: add esp, 0x18 ; jmp r11 ; (1 found)
0x10716: add esp, 0x18 ; ret ; (1 found)
0x1a1a5: add esp, 0x20 ; pop rbx ; ret ; (1 found)
0x1203f: add esp, 0x30 ; jmp r11 ; (1 found)
0x259eb: add esp, 0x30 ; jmp r11 ; (1 found)
0x25df3: add esp, 0x30 ; jmp r11 ; (1 found)
0x120bf: add esp, 0x30 ; ret ; (1 found)
0x25ad5: add esp, 0x30 ; ret ; (1 found)
0x25ec7: add esp, 0x30 ; ret ; (1 found)
0x1858a: add qword [r8-0x7D], rcx ; ret ; (1 found)
0x185f5: add qword [r8-0x7D], rcx ; ret ; (1 found)
0xfa62: add r11, r9 ; call r11 ; (1 found)
0x98f3: add r13, rax ; call qword [r13+0x68] ; (1 found)
0x6387: add r8L, byte [r8] ; add byte [rax-0x77], cl ; ret ; (1 found)
0x38cc: add r8d, 0x0002F9CE ; add rsp, 0x08 ; ret ; (1 found)
0xf6bf: add r9, r11 ; call r9 ; (1 found)
0x17f22: add rax, 0x03 ; mov qword [rdi], rdx ; ret ; (1 found)
0x489f: add rax, qword [r15] ; call rax ; (1 found)
0x11a86: add rax, qword [rdi+0x08] ; ret ; (1 found)
0x14456: add rax, qword [rdi+0x08] ; ret ; (1 found)
0x1bf00: add rax, r13 ; jmp rax ; (1 found)
0x1979c: add rax, r8 ; jmp rax ; (1 found)
0x197d2: add rax, r9 ; jmp rax ; (1 found)
0x14643: add rax, rcx ; jmp rax ; (1 found)
0x16394: add rax, rcx ; jmp rax ; (1 found)
0x19032: add rax, rcx ; jmp rax ; (1 found)
0x11a4b: add rax, rcx ; ret ; (1 found)
0x20f48: add rax, rcx ; ret ; (1 found)
0x217f0: add rax, rcx ; ret ; (1 found)
0x20f45: add rax, rdi ; add rax, rcx ; ret ; (1 found)
0x217ed: add rax, rdi ; add rax, rcx ; ret ; (1 found)
0xefd8: add rax, rdi ; jmp rax ; (1 found)
0x145df: add rax, rdi ; jmp rax ; (1 found)
0x21173: add rax, rdi ; ret ; (1 found)
0x211a8: add rax, rdi ; ret ; (1 found)
0x21963: add rax, rdi ; ret ; (1 found)
0x256c6: add rax, rdx ; ret ; (1 found)
0x239f5: add rax, rdx ; sub rax, rdi ; ret ; (1 found)
0x2540a: add rax, rdx ; sub rax, rdi ; ret ; (1 found)
0x25461: add rax, rdx ; sub rax, rdi ; ret ; (1 found)
0xfb60: add rax, rsi ; call rax ; (1 found)
0xe57d: add rax, rsi ; jmp rax ; (1 found)
0x1468d: add rax, rsi ; jmp rax ; (1 found)
0x1c50c: add rcx, rdx ; jmp rcx ; (1 found)
0x3934: add rdx, qword [rax+0x10] ; mov qword [rsi+0x18], rdx ; ret ; (1 found)
0x20633: add rsp, 0x00000000000000C8 ; ret ; (1 found)
0x20e7d: add rsp, 0x00000000000000D0 ; ret ; (1 found)
0x20eaf: add rsp, 0x00000000000000D0 ; ret ; (1 found)
0xcd5a: add rsp, 0x00000000000000D8 ; ret ; (1 found)
0xce0a: add rsp, 0x00000000000000D8 ; ret ; (1 found)
0xceac: add rsp, 0x00000000000000D8 ; ret ; (1 found)
0xcf56: add rsp, 0x00000000000000D8 ; ret ; (1 found)
0xcff6: add rsp, 0x00000000000000D8 ; ret ; (1 found)
0x237c3: add rsp, 0x0000000000000100 ; pop rbx ; ret ; (1 found)
0x18282: add rsp, 0x0000000000000118 ; ret ; (1 found)
0x38d2: add rsp, 0x08 ; ret ; (1 found)
0xa90f: add rsp, 0x08 ; ret ; (1 found)
0x110c6: add rsp, 0x08 ; ret ; (1 found)
0x137d5: add rsp, 0x08 ; ret ; (1 found)
0x1655b: add rsp, 0x08 ; ret ; (1 found)
0x11f23: add rsp, 0x10 ; pop rbx ; ret ; (1 found)
0x172ea: add rsp, 0x10 ; pop rbx ; ret ; (1 found)
0x1aaae: add rsp, 0x10 ; pop rbx ; ret ; (1 found)
0x12144: add rsp, 0x18 ; jmp r11 ; (1 found)
0x12212: add rsp, 0x18 ; jmp r11 ; (1 found)
0x122d2: add rsp, 0x18 ; jmp r11 ; (1 found)
0x10715: add rsp, 0x18 ; ret ; (1 found)
0x1a1a4: add rsp, 0x20 ; pop rbx ; ret ; (1 found)
0x1203e: add rsp, 0x30 ; jmp r11 ; (1 found)
0x259ea: add rsp, 0x30 ; jmp r11 ; (1 found)
0x25df2: add rsp, 0x30 ; jmp r11 ; (1 found)
0x120be: add rsp, 0x30 ; ret ; (1 found)
0x25ad4: add rsp, 0x30 ; ret ; (1 found)
0x25ec6: add rsp, 0x30 ; ret ; (1 found)
0x20590: add word [rdx+rax*2], 0x0001 ; ret ; (1 found)
0x1c68f: and  [rax], eax ; add byte [rax-0x7D], cl ; retn 0x4807 ; (1 found)
0x1042a: and al, 0x08 ; call rax ; (1 found)
0x1042b: and al, 0x08 ; call rax ; (1 found)
0x17130: and al, 0x10 ; call rax ; (1 found)
0x17131: and al, 0x10 ; call rax ; (1 found)
0x1a194: and al, 0x10 ; mov rcx, qword [0x0000000000031B08] ; call rbx ; (1 found)
0x18257: and al, 0x10 ; mov rdi, qword [rsp+0x18] ; call rcx ; (1 found)
0x18258: and al, 0x10 ; mov rdi, qword [rsp+0x18] ; call rcx ; (1 found)
0x16a8a: and al, 0x14 ; call rax ; (1 found)
0x16c6b: and al, 0x18 ; call rax ; (1 found)
0x1825d: and al, 0x18 ; call rcx ; (1 found)
0x16f2c: and al, 0x18 ; lea r9, qword [rsp+0x34] ; call rax ; (1 found)
0x16f2d: and al, 0x18 ; lea r9, qword [rsp+0x34] ; call rax ; (1 found)
0x1712b: and al, 0x18 ; mov r8, qword [rsp+0x10] ; call rax ; (1 found)
0x1712c: and al, 0x18 ; mov r8, qword [rsp+0x10] ; call rax ; (1 found)
0x16f31: and al, 0x34 ; call rax ; (1 found)
0x16f32: and al, 0x34 ; call rax ; (1 found)
0x1434d: and al, 0x41 ; call qword [rsp+0x18] ; (1 found)
0x12143: and al, 0x48 ; add esp, 0x18 ; jmp r11 ; (1 found)
0x12211: and al, 0x48 ; add esp, 0x18 ; jmp r11 ; (1 found)
0x122d1: and al, 0x48 ; add esp, 0x18 ; jmp r11 ; (1 found)
0x1203d: and al, 0x48 ; add esp, 0x30 ; jmp r11 ; (1 found)
0x259e9: and al, 0x48 ; add esp, 0x30 ; jmp r11 ; (1 found)
0x25df1: and al, 0x48 ; add esp, 0x30 ; jmp r11 ; (1 found)
0x120bd: and al, 0x48 ; add esp, 0x30 ; ret ; (1 found)
0x25ad3: and al, 0x48 ; add esp, 0x30 ; ret ; (1 found)
0x25ec5: and al, 0x48 ; add esp, 0x30 ; ret ; (1 found)
0xe74e: and al, 0x85 ; div byte [rbp+0x02] ; call rax ; (1 found)
0xf174: and al, 0x85 ; sal byte [rbp+0x02], cl ; call rax ; (1 found)
0x915f: and al, 0x89 ; retn 0xEA31 ; (1 found)
0x143d6: and al, 0xF8 ; ret ; (1 found)
0x1af51: and bh, bh ; jmp qword [rsi+0x66] ; (1 found)
0x21741: and byte [r15], r9L ; adc  [rdi+0x30], eax ; ret ; (1 found)
0xba91: and byte [rax-0x77], cl ; ret ; (1 found)
0x1d929: and byte [rax-0x77], cl ; retn 0x8348 ; (1 found)
0x1830b: and byte [rbx+0x5D], bl ; pop r12 ; ret ; (1 found)
0x105fb: and byte [rbx], al ; add byte [rax], al ; ret ; (1 found)
0x181a2: and byte [rcx-0x3576B711], cl ; pop rbp ; jmp rax ; (1 found)
0x21742: and byte [rdi], cl ; adc  [rdi+0x30], eax ; ret ; (1 found)
0x1aad7: and byte [rdi], cl ; xchg eax, ebp ; retn 0x3145 ; (1 found)
0x2c16: and byte [rdi], cl ; xchg eax, ebp ; retn 0xC931 ; (1 found)
0x143ce: and eax, 0x00000000 ; mov rdi, qword [rsp-0x08] ; ret ; (1 found)
0x14388: and eax, 0x00000000 ; ret ; (1 found)
0x31bd: and eax, 0x0002E85E ; nop word [rax+rax+0x00] ; ret ; (1 found)
0x345d: and eax, 0x46B60F41 ; add  [rax-0x7D], ecx ; ret ; (1 found)
0xc7af: and eax, 0x63485875 ; ret ; (1 found)
0x200a2: and edi,  [rax+0x00000101] ; syscall ; (1 found)
0x21170: bsf eax, eax ; add rax, rdi ; ret ; (1 found)
0x21960: bsf eax, eax ; add rax, rdi ; ret ; (1 found)
0x21180: bsf eax, eax ; lea rax, qword [rax+rdi+0x10] ; ret ; (1 found)
0x21970: bsf eax, eax ; lea rax, qword [rax+rdi+0x10] ; ret ; (1 found)
0x21190: bsf eax, eax ; lea rax, qword [rax+rdi+0x20] ; ret ; (1 found)
0x21980: bsf eax, eax ; lea rax, qword [rax+rdi+0x20] ; ret ; (1 found)
0x21160: bsf eax, eax ; lea rax, qword [rax+rdi-0x10] ; ret ; (1 found)
0x21950: bsf eax, eax ; lea rax, qword [rax+rdi-0x10] ; ret ; (1 found)
0x210bf: bsf eax, eax ; lea rax, qword [rdi+rax+0x30] ; ret ; (1 found)
0x21939: bsf eax, eax ; lea rax, qword [rdi+rax+0x30] ; ret ; (1 found)
0x254b3: bsf eax, eax ; lea rax, qword [rdi+rax] ; ret ; (1 found)
0x255d1: bsf eax, eax ; lea rax, qword [rdi+rax] ; ret ; (1 found)
0x23896: bsf eax, edx ; ret ; (1 found)
0x238e3: bsf eax, edx ; ret ; (1 found)
0x23940: bsf eax, edx ; ret ; (1 found)
0x252f3: bsf eax, edx ; ret ; (1 found)
0x2535f: bsf eax, edx ; ret ; (1 found)
0x25370: bsf eax, edx ; ret ; (1 found)
0x255d0: bsf rax, rax ; lea rax, qword [rdi+rax] ; ret ; (1 found)
0x238e2: bsf rax, rdx ; ret ; (1 found)
0x2393f: bsf rax, rdx ; ret ; (1 found)
0x252f2: bsf rax, rdx ; ret ; (1 found)
0x2535e: bsf rax, rdx ; ret ; (1 found)
0x2536f: bsf rax, rdx ; ret ; (1 found)
0x1434e: call qword [r12+0x18] ; (1 found)
0x98f6: call qword [r13+0x68] ; (1 found)
0x491e: call qword [rax+0x01B87D83] ; (1 found)
0x1fece: call qword [rax+0x0589D8F7] ; (1 found)
0x162ee: call qword [rax+0x0F1BFA83] ; (1 found)
0x181fe: call qword [rax+0x18EC8148] ; (1 found)
0xdb8e: call qword [rax+0x21058B48] ; (1 found)
0x34de: call qword [rax+0x24548B48] ; (1 found)
0x944e: call qword [rax+0x247C8B48] ; (1 found)
0xb83e: call qword [rax+0x390D8D48] ; (1 found)
0x1865e: call qword [rax+0x48D18948] ; (1 found)
0x2ebe: call qword [rax+0x4CF7894C] ; (1 found)
0x180fe: call qword [rax+0x53FD8955] ; (1 found)
0x11a9e: call qword [rax+0x78BF8348] ; (1 found)
0x1c8c6: call qword [rax+rax] ; (1 found)
0x1175e: call qword [rax-0x00036418] ; (1 found)
0x1a63e: call qword [rax-0x0018F418] ; (1 found)
0x20e9e: call qword [rax-0x00452709] ; (1 found)
0x1039e: call qword [rax-0x00FF38B7] ; (1 found)
0x1a9be: call qword [rax-0x171876B8] ; (1 found)
0x819e: call qword [rax-0x172076B8] ; (1 found)
0x15bae: call qword [rax-0x4022DA7D] ; (1 found)
0xe31e: call qword [rax-0x56CA72B8] ; (1 found)
0x17be: call qword [rax-0x57447CB8] ; (1 found)
0x385e: call qword [rax-0x66C272B8] ; (1 found)
0x13ece: call qword [rax-0x72B3A8BF] ; (1 found)
0x1af8e: call qword [rax-0x72B7ABBF] ; (1 found)
0x100fe: call qword [rax-0x7C9936CF] ; (1 found)
0x487c: call qword [rax] ; (1 found)
0x4abc: call qword [rax] ; (1 found)
0x21c2f: call qword [rbp+0x00] ; (1 found)
0x14230: call qword [rbp+0x18] ; (1 found)
0x168ea: call qword [rbp+0x31] ; (1 found)
0xa9bf: call qword [rbp+0x48] ; (1 found)
0xdcbf: call qword [rbp+0x48] ; (1 found)
0x1af98: call qword [rbp+0x48] ; (1 found)
0x98f7: call qword [rbp+0x68] ; (1 found)
0x11019: call qword [rbx+0x48] ; (1 found)
0x1118: call qword [rbx] ; (1 found)
0x4be8: call qword [rbx] ; (1 found)
0x1e91a: call qword [rdi+0x6DE80000] ; (1 found)
0x11005: call qword [rsi-0x3FCEFFFF] ; (1 found)
0x19021: call qword [rsi] ; (1 found)
0x1434f: call qword [rsp+0x18] ; (1 found)
0xfa65: call r11 ; (1 found)
0x12065: call r11 ; (1 found)
0x1bb64: call r11 ; (1 found)
0x25a11: call r11 ; (1 found)
0x25e19: call r11 ; (1 found)
0xecb8: call r9 ; (1 found)
0xf5ed: call r9 ; (1 found)
0xf6c2: call r9 ; (1 found)
0x48a2: call rax ; (1 found)
0x4a77: call rax ; (1 found)
0xe0b0: call rax ; (1 found)
0xe753: call rax ; (1 found)
0xe978: call rax ; (1 found)
0xf179: call rax ; (1 found)
0xf316: call rax ; (1 found)
0xfb63: call rax ; (1 found)
0x1042d: call rax ; (1 found)
0x142e0: call rax ; (1 found)
0x165d3: call rax ; (1 found)
0x16789: call rax ; (1 found)
0x16880: call rax ; (1 found)
0x16918: call rax ; (1 found)
0x16a8c: call rax ; (1 found)
0x16c6d: call rax ; (1 found)
0x16f34: call rax ; (1 found)
0x17133: call rax ; (1 found)
0x19258: call rax ; (1 found)
0x1e14b: call rax ; (1 found)
0xfa66: call rbx ; (1 found)
0x12066: call rbx ; (1 found)
0x1a19d: call rbx ; (1 found)
0x1bb65: call rbx ; (1 found)
0x25a12: call rbx ; (1 found)
0x25e1a: call rbx ; (1 found)
0xecb9: call rcx ; (1 found)
0xf5ee: call rcx ; (1 found)
0xf6c3: call rcx ; (1 found)
0x166cb: call rcx ; (1 found)
0x16714: call rcx ; (1 found)
0x1825f: call rcx ; (1 found)
0x1f4bd: call rdi ; (1 found)
0x10120: call rdx ; (1 found)
0x10f3a: call rdx ; (1 found)
0x10f61: call rdx ; (1 found)
0x1829e: call rsi ; (1 found)
0x1834c: call rsi ; (1 found)
0x1e72d: call rsi ; (1 found)
0x973e: clc ; add ecx,  [rax+0x29] ; retn 0x8D48 ; (1 found)
0x20f47: clc ; add rax, rcx ; ret ; (1 found)
0x217ef: clc ; add rax, rcx ; ret ; (1 found)
0x1c0ab: clc ; dec  [rdi] ; retn 0x0589 ; (1 found)
0xefda: clc ; jmp rax ; (1 found)
0x145e1: clc ; jmp rax ; (1 found)
0x134f8: clc ; leave ; ret ; (1 found)
0x1354f: clc ; leave ; ret ; (1 found)
0x14603: clc ; pop rbx ; ret ; (1 found)
0x143d7: clc ; ret ; (1 found)
0x16732: clc ; ret ; (1 found)
0x21175: clc ; ret ; (1 found)
0x211aa: clc ; ret ; (1 found)
0x2153f: clc ; ret ; (1 found)
0x21777: clc ; ret ; (1 found)
0x21965: clc ; ret ; (1 found)
0x239fa: clc ; ret ; (1 found)
0x2540f: clc ; ret ; (1 found)
0x25466: clc ; ret ; (1 found)
0x2129a: clc ; sub eax, ecx ; ret ; (1 found)
0x21529: cld ; mov  [rdi], esi ; ret ; (1 found)
0x2177e: cld ; ret ; (1 found)
0x190c4: cmc ; add byte [rax], al ; ret ; (1 found)
0x190f4: cmc ; add byte [rax], al ; ret ; (1 found)
0x19104: cmc ; add byte [rax], al ; ret ; (1 found)
0x1451f: cmove eax, edx ; ret ; (1 found)
0xaba9: cmove esi, eax ; mov rax, rsi ; ret ; (1 found)
0x1451e: cmove rax, rdx ; ret ; (1 found)
0xaba8: cmove rsi, rax ; mov rax, rsi ; ret ; (1 found)
0x204a9: cmovnbe edx, eax ; mov eax, 0x000000D9 ; syscall ; (1 found)
0x204a8: cmovnbe rdx, rax ; mov eax, 0x000000D9 ; syscall ; (1 found)
0x38cb: cmovne eax,  [0x00000000000332A0] ; add rsp, 0x08 ; ret ; (1 found)
0x22093: cmovne eax, edx ; ret ; (1 found)
0x221b1: cmovne eax, edx ; ret ; (1 found)
0x22092: cmovne rax, rdx ; ret ; (1 found)
0x221b0: cmovne rax, rdx ; ret ; (1 found)
0x149cd: cmovno ebx,  [rsi+0x41] ; pop rdi ; ret ; (1 found)
0x21e29: cmovs ecx,  [rcx-0x72B7F8A9] ; push cs ; ret ; (1 found)
0x3bf0: cmp  [rcx-0x01], 0xFFFFFFFF ; dec  [rax-0x77] ; retn 0x8B48 ; (1 found)
0xd73e: cmp ah, 0xFF ; jmp qword [rsi+0x0F] ; (1 found)
0x1434c: cmp al, 0x24 ; call qword [r12+0x18] ; (1 found)
0x21166: cmp al, dh ; ret ; (1 found)
0x21956: cmp al, dh ; ret ; (1 found)
0x21165: cmp al, r14L ; ret ; (1 found)
0x21955: cmp al, r14L ; ret ; (1 found)
0x211a7: cmp byte [rax+0x01], cl ; clc ; ret ; (1 found)
0x21196: cmp byte [rax], ah ; ret ; (1 found)
0x21986: cmp byte [rax], ah ; ret ; (1 found)
0x22090: cmp byte [rax], dh ; cmovne rax, rdx ; ret ; (1 found)
0x221ae: cmp byte [rax], dh ; cmovne rax, rdx ; ret ; (1 found)
0x21186: cmp byte [rax], dl ; ret ; (1 found)
0x21976: cmp byte [rax], dl ; ret ; (1 found)
0x21185: cmp byte [rax], r10L ; ret ; (1 found)
0x21975: cmp byte [rax], r10L ; ret ; (1 found)
0x21195: cmp byte [rax], r12L ; ret ; (1 found)
0x21985: cmp byte [rax], r12L ; ret ; (1 found)
0x2208f: cmp byte [rax], sil ; cmovne rax, rdx ; ret ; (1 found)
0x221ad: cmp byte [rax], sil ; cmovne rax, rdx ; ret ; (1 found)
0x137f7: cmp byte [rcx+0x0F], al ; xchg eax, ebp ; retn 0x8548 ; (1 found)
0xd4a7: cmp ch, 0xFF ; jmp qword [rsi+0x0F] ; (1 found)
0x216ae: cmp dh, al ; ret ; (1 found)
0x1e82d: cmp eax,  [rax] ; add byte [rax], al ; syscall ; (1 found)
0x12dfc: cmp eax,  [rcx-0x77] ; ret ; (1 found)
0x13e41: cmp eax, 0x000142D7 ; mov eax, 0x00000015 ; syscall ; (1 found)
0x56ab: cmp eax, 0x0002B3C7 ; add byte [rax-0x77], cl ; ret ; (1 found)
0x19184: cmp eax, edx ; setne al ; ret ; (1 found)
0x17682: cmp ecx,  [rax-0x7D] ; ret ; (1 found)
0x216ad: cmp r14L, al ; ret ; (1 found)
0x19183: cmp rax, rdx ; setne al ; ret ; (1 found)
0x57ce: cmpsb ; retn 0x0002 ; (1 found)
0x20b66: cmpsb ; test edi, edi ; jmp qword [rsi+0x0F] ; (1 found)
0x20c6d: dec  [0xFFFFFFFFC14A0C74] ; retn 0x4811 ; (1 found)
0x16cb7: dec  [r8-0x77] ; retn 0xC148 ; (1 found)
0xfb5f: dec  [rax+0x01] ; lock call rax ; (1 found)
0xe7be: dec  [rax+0x01] ; retn 0x8B48 ; (1 found)
0xf1c6: dec  [rax+0x01] ; retn 0x8B48 ; (1 found)
0xdeca: dec  [rax+0x0F] ; retn 0x8B49 ; (1 found)
0xe393: dec  [rax+0x39] ; ret ; (1 found)
0x10bd6: dec  [rax+0x39] ; ret ; (1 found)
0x10c76: dec  [rax+0x39] ; ret ; (1 found)
0xea20: dec  [rax+0x39] ; retn 0x0F48 ; (1 found)
0xcb25: dec  [rax+0x63] ; ret ; (1 found)
0x17de8: dec  [rax-0x73] ; mov ah, 0x24 ; ret ; (1 found)
0x17eba: dec  [rax-0x75] ; add ecx,  [rax-0x77] ; retn 0x8348 ; (1 found)
0x19000: dec  [rax-0x77] ; add eax, 0x00018A08 ; ret ; (1 found)
0x142dc: dec  [rax-0x77] ; out dx, eax ; call rax ; (1 found)
0xf7c5: dec  [rax-0x77] ; ret ; (1 found)
0x11426: dec  [rax-0x77] ; ret ; (1 found)
0x134ab: dec  [rax-0x77] ; ret ; (1 found)
0x13525: dec  [rax-0x77] ; ret ; (1 found)
0x1b42b: dec  [rax-0x77] ; ret ; (1 found)
0x1bb1b: dec  [rax-0x77] ; ret ; (1 found)
0x1cebf: dec  [rax-0x77] ; ret ; (1 found)
0x1dfdb: dec  [rax-0x77] ; ret ; (1 found)
0x1e7df: dec  [rax-0x77] ; ret ; (1 found)
0x1b343: dec  [rax-0x77] ; retn 0x2FBE ; (1 found)
0x18642: dec  [rax-0x77] ; retn 0x8948 ; (1 found)
0x3bf4: dec  [rax-0x77] ; retn 0x8B48 ; (1 found)
0x1ec6e: dec  [rax-0x77] ; retn 0x8D48 ; (1 found)
0x16cb8: dec  [rax-0x77] ; retn 0xC148 ; (1 found)
0xbaf4: dec  [rax-0x77] ; sbb byte [r8-0x77], r9L ; ret ; (1 found)
0xeacd: dec  [rax-0x7B] ; ror byte [rax+0x0F], 0x44 ; ret ; (1 found)
0xf48d: dec  [rax-0x7B] ; ror byte [rax+0x0F], 0x44 ; ret ; (1 found)
0xe5a3: dec  [rax-0x7D] ; ret ; (1 found)
0xeff7: dec  [rax-0x7D] ; ret ; (1 found)
0x13f2c: dec  [rax-0x7D] ; ret ; (1 found)
0x13c42: dec  [rax-0x7D] ; retn 0x4802 ; (1 found)
0x18bb7: dec  [rax-0x7D] ; retn 0xF701 ; (1 found)
0x9e8c: dec  [rbp-0x76B7FEBE] ; retn 0x8B49 ; (1 found)
0xba8d: dec  [rbx+rcx*4+0x7D] ; and byte [rax-0x77], cl ; ret ; (1 found)
0x18e15: dec  [rcx+0x1FE8C1F0] ; add eax, 0x06 ; ret ; (1 found)
0x10f5d: dec  [rcx+rcx*4-0x09] ; call rdx ; (1 found)
0x1a9f6: dec  [rcx+rcx*4-0x14] ; jmp r12 ; (1 found)
0x156e0: dec  [rcx-0x39] ; ret ; (1 found)
0x11fd5: dec  [rcx-0x77] ; ret ; (1 found)
0x12112: dec  [rcx-0x77] ; ret ; (1 found)
0x121d9: dec  [rcx-0x77] ; ret ; (1 found)
0x12299: dec  [rcx-0x77] ; ret ; (1 found)
0x1bb82: dec  [rcx-0x77] ; ret ; (1 found)
0x25809: dec  [rcx-0x77] ; ret ; (1 found)
0x25c0d: dec  [rcx-0x77] ; ret ; (1 found)
0x1726c: dec  [rdi] ; mov esi, 0x8348017B ; ret ; (1 found)
0x1c0ac: dec  [rdi] ; retn 0x0589 ; (1 found)
0x341d: dec byte [rax-0x7D] ; ret ; (1 found)
0x42ad: dec byte [rcx-0x75] ; sbb byte [r8+0x39], cl ; ret ; (1 found)
0x149bc: dec byte [rcx-0x77] ; retn 0x014D ; (1 found)
0xdbba: div  [rbp+0x03] ; pop rbx ; ret ; (1 found)
0xe750: div byte [rbp+0x02] ; call rax ; (1 found)
0x25252: div byte [rbp+0x04] ; xor rax, rax ; ret ; (1 found)
0x17f8e: div byte [rbp-0x41] ; xor eax, eax ; ret ; (1 found)
0x197b8: div byte [rbp-0x63] ; ret ; (1 found)
0x61b7: div byte [rsi+rax+0x44] ; mov eax, eax ; ret ; (1 found)
0x20636: enter 0x0000, 0x00 ; ret ; (1 found)
0x220e1: enter 0x0F66, 0xEB ; ret ; (1 found)
0x25509: enter 0x0F66, 0xEB ; ret ; (1 found)
0x21269: enter 0x31C3, 0xC0 ; ret ; (1 found)
0x2367d: enter 0x31C3, 0xC0 ; ret ; (1 found)
0x25232: enter 0x31C3, 0xC0 ; ret ; (1 found)
0x7319: enter 0x8D48, 0x1C ; retn 0x3948 ; (1 found)
0xff15: enter 0x8D49, 0x04 ; retn 0x8948 ; (1 found)
0x167a9: enter 0xC001, 0x09 ; retn 0x9388 ; (1 found)
0xcd5d: fadd  [rax] ; add byte [rax], al ; ret ; (1 found)
0xce0d: fadd  [rax] ; add byte [rax], al ; ret ; (1 found)
0xceaf: fadd  [rax] ; add byte [rax], al ; ret ; (1 found)
0xcf59: fadd  [rax] ; add byte [rax], al ; ret ; (1 found)
0xcff9: fadd  [rax] ; add byte [rax], al ; ret ; (1 found)
0xaba4: fadd  [rbx+rbx*8+0x440F485B] ; lock mov rax, rsi ; ret ; (1 found)
0x11eb0: fadd  [rdx] ; add byte [rax], al ; syscall ; (1 found)
0x25695: fadd qword [rax] ; add byte [rax-0x00000001], bh ; ret ; (1 found)
0x11e00: fcom qword [rdx] ; add al, byte [rax] ; ret ; (1 found)
0xa976: fcomp  [rbx+0x5D] ; ret ; (1 found)
0x1b46f: fcomp  [rbx+0x5D] ; ret ; (1 found)
0x1b498: fcomp  [rbx+0x5D] ; ret ; (1 found)
0x121d7: fdiv st7, st0 ; dec  [rcx-0x77] ; ret ; (1 found)
0x12297: fdiv st7, st0 ; dec  [rcx-0x77] ; ret ; (1 found)
0x318b: fdivp st7, st0 ; jmp qword [rsi-0x70] ; (1 found)
0x11e54: fiadd  [rax] ; add byte [rax], al ; syscall ; (1 found)
0x364c: fiadd word [rcx] ; add byte [rax-0x77], cl ; ret ; (1 found)
0xb852: ficom  [rdi-0x01] ; jmp qword [rsi+0x2E] ; (1 found)
0x1e199: fidiv  [rcx] ; test byte [rcx+rcx*4-0x11], 0x83 ; ret ; (1 found)
0xb035: fild qword [rcx+0x02] ; add byte [rax-0x77], cl ; ret ; (1 found)
0x68d2: fimul  [rax-0x7D] ; ret ; (1 found)
0x18bb1: fimul word [rbx-0x00008743] ; dec  [rax-0x7D] ; retn 0xF701 ; (1 found)
0x1c5ae: fistp  [0x000000000149C5B4] ; retn 0xBA41 ; (1 found)
0x11ee5: fistp qword [rax+0x0000014E] ; syscall ; (1 found)
0x1ab5f: fisttp qword [rax+0x39] ; retn 0x0F48 ; (1 found)
0x11a52: fisttp word [rax-0x77] ; retn 0xE95B ; (1 found)
0xe701: fisub  [rsi+0x0F] ; insb ; ret ; (1 found)
0x204ad: fld  [rax] ; add byte [rax], al ; syscall ; (1 found)
0x20fa1: fldenv  [rsi+0x0F] ; xlatb ; ret ; (1 found)
0x2100b: fldenv  [rsi+0x0F] ; xlatb ; ret ; (1 found)
0x21020: fldenv  [rsi+0x0F] ; xlatb ; ret ; (1 found)
0x21106: fldenv  [rsi+0x0F] ; xlatb ; ret ; (1 found)
0x21343: fldenv  [rsi+0x0F] ; xlatb ; ret ; (1 found)
0x21370: fldenv  [rsi+0x0F] ; xlatb ; ret ; (1 found)
0x2139d: fldenv  [rsi+0x0F] ; xlatb ; ret ; (1 found)
0x2142f: fldenv  [rsi+0x0F] ; xlatb ; ret ; (1 found)
0x2146e: fldenv  [rsi+0x0F] ; xlatb ; ret ; (1 found)
0x21841: fldenv  [rsi+0x0F] ; xlatb ; ret ; (1 found)
0x218a1: fldenv  [rsi+0x0F] ; xlatb ; ret ; (1 found)
0x218b6: fldenv  [rsi+0x0F] ; xlatb ; ret ; (1 found)
0x166ee: fmul  [rax-0x77] ; retn 0xC148 ; (1 found)
0x16a27: fmul  [rax-0x77] ; retn 0xC148 ; (1 found)
0x25691: fmul  [rcx+0x00DC0805] ; add byte [rax-0x00000001], bh ; ret ; (1 found)
0x20909: fmul  [rcx+0x01299005] ; add byte [rax-0x00000001], bh ; ret ; (1 found)
0x20881: fmul  [rcx+0x012A1805] ; add byte [rax-0x00000001], bh ; ret ; (1 found)
0x20829: fmul  [rcx+0x012A7005] ; add byte [rax-0x00000001], bh ; ret ; (1 found)
0x207c1: fmul  [rcx+0x012AD805] ; add byte [rax-0x00000001], bh ; ret ; (1 found)
0x207a1: fmul  [rcx+0x012AF805] ; add byte [rax-0x00000001], bh ; ret ; (1 found)
0x20759: fmul  [rcx+0x012B4005] ; add byte [rax-0x00000001], bh ; ret ; (1 found)
0x206e9: fmul  [rcx+0x012BB005] ; add byte [rax-0x00000001], bh ; ret ; (1 found)
0x200b9: fmul  [rcx+0x0131E005] ; add byte [rax-0x00000001], bh ; ret ; (1 found)
0x934f: fmul qword [rax-0x77] ; ret ; (1 found)
0x185ce: fmul qword [rax-0x77] ; ret ; (1 found)
0x22439: fmul qword [rcx-0x7D] ; retn 0x7F10 ; (1 found)
0x22579: fmul qword [rcx-0x7D] ; retn 0x7F10 ; (1 found)
0x226b9: fmul qword [rcx-0x7D] ; retn 0x7F10 ; (1 found)
0x227f9: fmul qword [rcx-0x7D] ; retn 0x7F10 ; (1 found)
0x22939: fmul qword [rcx-0x7D] ; retn 0x7F10 ; (1 found)
0x22a79: fmul qword [rcx-0x7D] ; retn 0x7F10 ; (1 found)
0x22bb9: fmul qword [rcx-0x7D] ; retn 0x7F10 ; (1 found)
0x22cf9: fmul qword [rcx-0x7D] ; retn 0x7F10 ; (1 found)
0x22e39: fmul qword [rcx-0x7D] ; retn 0x7F10 ; (1 found)
0x22f79: fmul qword [rcx-0x7D] ; retn 0x7F10 ; (1 found)
0x230b9: fmul qword [rcx-0x7D] ; retn 0x7F10 ; (1 found)
0x231f9: fmul qword [rcx-0x7D] ; retn 0x7F10 ; (1 found)
0x23339: fmul qword [rcx-0x7D] ; retn 0x7F10 ; (1 found)
0x23479: fmul qword [rcx-0x7D] ; retn 0x7F10 ; (1 found)
0x235b9: fmul qword [rcx-0x7D] ; retn 0x7F10 ; (1 found)
0x23c53: fmul qword [rcx-0x7D] ; retn 0x7F10 ; (1 found)
0x23dd3: fmul qword [rcx-0x7D] ; retn 0x7F10 ; (1 found)
0x23f53: fmul qword [rcx-0x7D] ; retn 0x7F10 ; (1 found)
0x240d3: fmul qword [rcx-0x7D] ; retn 0x7F10 ; (1 found)
0x24253: fmul qword [rcx-0x7D] ; retn 0x7F10 ; (1 found)
0x243d3: fmul qword [rcx-0x7D] ; retn 0x7F10 ; (1 found)
0x24553: fmul qword [rcx-0x7D] ; retn 0x7F10 ; (1 found)
0x246d3: fmul qword [rcx-0x7D] ; retn 0x7F10 ; (1 found)
0x24853: fmul qword [rcx-0x7D] ; retn 0x7F10 ; (1 found)
0x249d3: fmul qword [rcx-0x7D] ; retn 0x7F10 ; (1 found)
0x24b53: fmul qword [rcx-0x7D] ; retn 0x7F10 ; (1 found)
0x24cd3: fmul qword [rcx-0x7D] ; retn 0x7F10 ; (1 found)
0x24e53: fmul qword [rcx-0x7D] ; retn 0x7F10 ; (1 found)
0x24fd3: fmul qword [rcx-0x7D] ; retn 0x7F10 ; (1 found)
0x25153: fmul qword [rcx-0x7D] ; retn 0x7F10 ; (1 found)
0x221fc: fsub qword [rsi+0x0F] ; xlatb ; ret ; (1 found)
0x2561c: fsub qword [rsi+0x0F] ; xlatb ; ret ; (1 found)
0x2247f: fsub st1, st0 ; imul edi, edi, 0xFF ; jmp qword [rsi+0x66] ; (1 found)
0x225bf: fsub st1, st0 ; imul edi, edi, 0xFF ; jmp qword [rsi+0x66] ; (1 found)
0x226ff: fsub st1, st0 ; imul edi, edi, 0xFF ; jmp qword [rsi+0x66] ; (1 found)
0x2283f: fsub st1, st0 ; imul edi, edi, 0xFF ; jmp qword [rsi+0x66] ; (1 found)
0x2297f: fsub st1, st0 ; imul edi, edi, 0xFF ; jmp qword [rsi+0x66] ; (1 found)
0x22abf: fsub st1, st0 ; imul edi, edi, 0xFF ; jmp qword [rsi+0x66] ; (1 found)
0x22bff: fsub st1, st0 ; imul edi, edi, 0xFF ; jmp qword [rsi+0x66] ; (1 found)
0x22d3f: fsub st1, st0 ; imul edi, edi, 0xFF ; jmp qword [rsi+0x66] ; (1 found)
0x22e7f: fsub st1, st0 ; imul edi, edi, 0xFF ; jmp qword [rsi+0x66] ; (1 found)
0x22fbf: fsub st1, st0 ; imul edi, edi, 0xFF ; jmp qword [rsi+0x66] ; (1 found)
0x230ff: fsub st1, st0 ; imul edi, edi, 0xFF ; jmp qword [rsi+0x66] ; (1 found)
0x2323f: fsub st1, st0 ; imul edi, edi, 0xFF ; jmp qword [rsi+0x66] ; (1 found)
0x2337f: fsub st1, st0 ; imul edi, edi, 0xFF ; jmp qword [rsi+0x66] ; (1 found)
0x234bf: fsub st1, st0 ; imul edi, edi, 0xFF ; jmp qword [rsi+0x66] ; (1 found)
0x20bfc: hlt ; mov eax, esi ; syscall ; (1 found)
0xed87: idiv bh ; jmp qword [rsi+0x0F] ; (1 found)
0x2ebc: idiv edi ; call qword [rax+0x4CF7894C] ; (1 found)
0x13523: idiv edi ; dec  [rax-0x77] ; ret ; (1 found)
0x15ebf: idiv edi ; jmp qword [rsi+0x0F] ; (1 found)
0x15fbb: idiv edi ; jmp qword [rsi-0x70] ; (1 found)
0x1e583: imul eax,  [rbp+0x01], 0x488B4800 ; sbb byte [rax-0x77], cl ; retn 0x45E9 ; (1 found)
0x1454c: imul eax, ecx ; imul eax, edx ; ret ; (1 found)
0x1454f: imul eax, edx ; ret ; (1 found)
0x1a199: imul edi,  [rcx+0x01], 0x00 ; call rbx ; (1 found)
0x22481: imul edi, edi, 0xFF ; jmp qword [rsi+0x66] ; (1 found)
0x225c1: imul edi, edi, 0xFF ; jmp qword [rsi+0x66] ; (1 found)
0x22701: imul edi, edi, 0xFF ; jmp qword [rsi+0x66] ; (1 found)
0x22841: imul edi, edi, 0xFF ; jmp qword [rsi+0x66] ; (1 found)
0x22981: imul edi, edi, 0xFF ; jmp qword [rsi+0x66] ; (1 found)
0x22ac1: imul edi, edi, 0xFF ; jmp qword [rsi+0x66] ; (1 found)
0x22c01: imul edi, edi, 0xFF ; jmp qword [rsi+0x66] ; (1 found)
0x22d41: imul edi, edi, 0xFF ; jmp qword [rsi+0x66] ; (1 found)
0x22e81: imul edi, edi, 0xFF ; jmp qword [rsi+0x66] ; (1 found)
0x22fc1: imul edi, edi, 0xFF ; jmp qword [rsi+0x66] ; (1 found)
0x23101: imul edi, edi, 0xFF ; jmp qword [rsi+0x66] ; (1 found)
0x23241: imul edi, edi, 0xFF ; jmp qword [rsi+0x66] ; (1 found)
0x23381: imul edi, edi, 0xFF ; jmp qword [rsi+0x66] ; (1 found)
0x234c1: imul edi, edi, 0xFF ; jmp qword [rsi+0x66] ; (1 found)
0x16cab: imul esi,  [rcx+0x438D0001], 0x89577301 ; ret ; (1 found)
0x21bbc: imul esp,  [rsi+0x0F], 0x74 ; retn 0x0FF3 ; (1 found)
0x47c4: in al, 0x0F ; xchg eax, esp ; retn 0xC084 ; (1 found)
0xc490: in al, 0x4C ; mov esi, esp ; syscall ; (1 found)
0x462c: in al, 0xC3 ; ret ; (1 found)
0x1a9f9: in al, dx ; jmp r12 ; (1 found)
0x1446a: in al, dx ; pop rbp ; ret ; (1 found)
0x1eca0: in al, dx ; retn 0xFFFF ; (1 found)
0x98f1: in eax, 0x05 ; add r13, rax ; call qword [r13+0x68] ; (1 found)
0xdb74: inc  [rbp+0x5B0275C0] ; ret ; (1 found)
0x1b597: inc  [rbp-0x74F98B40] ; add eax,  [rbp+0x5B0675C0] ; ret ; (1 found)
0x6a1a: inc  [rcx-0x0A] ; retn 0x7404 ; (1 found)
0x10918: inc  [rcx-0x77] ; retn 0xE883 ; (1 found)
0x1ecb8: inc  [rcx] ; ret ; (1 found)
0x1ecfd: inc  [rcx] ; ret ; (1 found)
0x1f535: inc  [rcx] ; ret ; (1 found)
0x11bad: inc byte [rcx] ; add byte [rax-0x77], cl ; retn 0x8548 ; (1 found)
0x20aae: inc ebx ; mov eax, 0x0000000A ; syscall ; (1 found)
0x2078e: inc ebx ; mov eax, 0x00000015 ; syscall ; (1 found)
0x3d12: insb ; ret ; (1 found)
0xe704: insb ; ret ; (1 found)
0x6c91: insb ; retn 0x0F41 ; (1 found)
0xef76: insb ; retn 0x0F41 ; (1 found)
0x9c87: insb ; retn 0x290F ; (1 found)
0x93ac: insb ; retn 0x8B48 ; (1 found)
0x5fbf: insd ; mov al, 0xFF ; jmp qword [rsi+0x66] ; (1 found)
0x3af5: iretq ; (1 found)
0x4ec9: iretq ; (1 found)
0x1c73d: jmp qword [r14+0x0F] ; (1 found)
0x11eff: jmp qword [rax+rcx*2+0x2B] ; (1 found)
0x11a2b: jmp qword [rax+rcx*2-0x75] ; (1 found)
0xd3de: jmp qword [rax] ; (1 found)
0x1d37f: jmp qword [rax] ; (1 found)
0x1d417: jmp qword [rax] ; (1 found)
0x1d4ac: jmp qword [rax] ; (1 found)
0x1d542: jmp qword [rax] ; (1 found)
0x1d5d8: jmp qword [rax] ; (1 found)
0xb81d: jmp qword [rdi+0x02] ; (1 found)
0xd1f3: jmp qword [rdi+0x6D] ; (1 found)
0x9f9f: jmp qword [rdi+rax*8+0x04] ; (1 found)
0xa0b9: jmp qword [rdi+rax*8+0x04] ; (1 found)
0xa136: jmp qword [rdi+rax*8+0x04] ; (1 found)
0x171ac: jmp qword [rdx] ; (1 found)
0x24b6: jmp qword [rsi+0x0F] ; (1 found)
0x2ca9: jmp qword [rsi+0x0F] ; (1 found)
0x2fd8: jmp qword [rsi+0x0F] ; (1 found)
0x3656: jmp qword [rsi+0x0F] ; (1 found)
0x3c28: jmp qword [rsi+0x0F] ; (1 found)
0x3dc1: jmp qword [rsi+0x0F] ; (1 found)
0x3fc6: jmp qword [rsi+0x0F] ; (1 found)
0x4406: jmp qword [rsi+0x0F] ; (1 found)
0x4c59: jmp qword [rsi+0x0F] ; (1 found)
0x4ea9: jmp qword [rsi+0x0F] ; (1 found)
0x4fd9: jmp qword [rsi+0x0F] ; (1 found)
0x5096: jmp qword [rsi+0x0F] ; (1 found)
0x54e6: jmp qword [rsi+0x0F] ; (1 found)
0x5559: jmp qword [rsi+0x0F] ; (1 found)
0x6141: jmp qword [rsi+0x0F] ; (1 found)
0x6c69: jmp qword [rsi+0x0F] ; (1 found)
0x6c8e: jmp qword [rsi+0x0F] ; (1 found)
0x6f61: jmp qword [rsi+0x0F] ; (1 found)
0x7001: jmp qword [rsi+0x0F] ; (1 found)
0x8856: jmp qword [rsi+0x0F] ; (1 found)
0x8db9: jmp qword [rsi+0x0F] ; (1 found)
0x9a7c: jmp qword [rsi+0x0F] ; (1 found)
0x9cb1: jmp qword [rsi+0x0F] ; (1 found)
0xa739: jmp qword [rsi+0x0F] ; (1 found)
0xa889: jmp qword [rsi+0x0F] ; (1 found)
0xabe9: jmp qword [rsi+0x0F] ; (1 found)
0xb3a9: jmp qword [rsi+0x0F] ; (1 found)
0xbf59: jmp qword [rsi+0x0F] ; (1 found)
0xc039: jmp qword [rsi+0x0F] ; (1 found)
0xd4aa: jmp qword [rsi+0x0F] ; (1 found)
0xd741: jmp qword [rsi+0x0F] ; (1 found)
0xea66: jmp qword [rsi+0x0F] ; (1 found)
0xed61: jmp qword [rsi+0x0F] ; (1 found)
0xed89: jmp qword [rsi+0x0F] ; (1 found)
0xf4b9: jmp qword [rsi+0x0F] ; (1 found)
0xfb89: jmp qword [rsi+0x0F] ; (1 found)
0x100b6: jmp qword [rsi+0x0F] ; (1 found)
0x10116: jmp qword [rsi+0x0F] ; (1 found)
0x103b9: jmp qword [rsi+0x0F] ; (1 found)
0x10959: jmp qword [rsi+0x0F] ; (1 found)
0x10d26: jmp qword [rsi+0x0F] ; (1 found)
0x11c36: jmp qword [rsi+0x0F] ; (1 found)
0x11c79: jmp qword [rsi+0x0F] ; (1 found)
0x11cd9: jmp qword [rsi+0x0F] ; (1 found)
0x11dea: jmp qword [rsi+0x0F] ; (1 found)
0x136e1: jmp qword [rsi+0x0F] ; (1 found)
0x13706: jmp qword [rsi+0x0F] ; (1 found)
0x146c9: jmp qword [rsi+0x0F] ; (1 found)
0x14c29: jmp qword [rsi+0x0F] ; (1 found)
0x15386: jmp qword [rsi+0x0F] ; (1 found)
0x15429: jmp qword [rsi+0x0F] ; (1 found)
0x15446: jmp qword [rsi+0x0F] ; (1 found)
0x15461: jmp qword [rsi+0x0F] ; (1 found)
0x15ec1: jmp qword [rsi+0x0F] ; (1 found)
0x16136: jmp qword [rsi+0x0F] ; (1 found)
0x16321: jmp qword [rsi+0x0F] ; (1 found)
0x16ae9: jmp qword [rsi+0x0F] ; (1 found)
0x16b09: jmp qword [rsi+0x0F] ; (1 found)
0x16fe9: jmp qword [rsi+0x0F] ; (1 found)
0x17009: jmp qword [rsi+0x0F] ; (1 found)
0x17189: jmp qword [rsi+0x0F] ; (1 found)
0x17746: jmp qword [rsi+0x0F] ; (1 found)
0x191a9: jmp qword [rsi+0x0F] ; (1 found)
0x1a119: jmp qword [rsi+0x0F] ; (1 found)
0x1a399: jmp qword [rsi+0x0F] ; (1 found)
0x1acb6: jmp qword [rsi+0x0F] ; (1 found)
0x1aef6: jmp qword [rsi+0x0F] ; (1 found)
0x1af16: jmp qword [rsi+0x0F] ; (1 found)
0x1ba79: jmp qword [rsi+0x0F] ; (1 found)
0x1baa1: jmp qword [rsi+0x0F] ; (1 found)
0x1bae0: jmp qword [rsi+0x0F] ; (1 found)
0x1be06: jmp qword [rsi+0x0F] ; (1 found)
0x1beb1: jmp qword [rsi+0x0F] ; (1 found)
0x1c2b9: jmp qword [rsi+0x0F] ; (1 found)
0x1c349: jmp qword [rsi+0x0F] ; (1 found)
0x1c379: jmp qword [rsi+0x0F] ; (1 found)
0x1c48c: jmp qword [rsi+0x0F] ; (1 found)
0x1c73e: jmp qword [rsi+0x0F] ; (1 found)
0x1d353: jmp qword [rsi+0x0F] ; (1 found)
0x1d3f2: jmp qword [rsi+0x0F] ; (1 found)
0x1d487: jmp qword [rsi+0x0F] ; (1 found)
0x1d51d: jmp qword [rsi+0x0F] ; (1 found)
0x1d5b3: jmp qword [rsi+0x0F] ; (1 found)
0x1dfc9: jmp qword [rsi+0x0F] ; (1 found)
0x1f611: jmp qword [rsi+0x0F] ; (1 found)
0x1f816: jmp qword [rsi+0x0F] ; (1 found)
0x1fe31: jmp qword [rsi+0x0F] ; (1 found)
0x20b69: jmp qword [rsi+0x0F] ; (1 found)
0x22259: jmp qword [rsi+0x0F] ; (1 found)
0x224af: jmp qword [rsi+0x0F] ; (1 found)
0x225ef: jmp qword [rsi+0x0F] ; (1 found)
0x2272f: jmp qword [rsi+0x0F] ; (1 found)
0x2286f: jmp qword [rsi+0x0F] ; (1 found)
0x229af: jmp qword [rsi+0x0F] ; (1 found)
0x22aef: jmp qword [rsi+0x0F] ; (1 found)
0x22c2f: jmp qword [rsi+0x0F] ; (1 found)
0x22d6f: jmp qword [rsi+0x0F] ; (1 found)
0x22eaf: jmp qword [rsi+0x0F] ; (1 found)
0x22fef: jmp qword [rsi+0x0F] ; (1 found)
0x2312f: jmp qword [rsi+0x0F] ; (1 found)
0x2326f: jmp qword [rsi+0x0F] ; (1 found)
0x233af: jmp qword [rsi+0x0F] ; (1 found)
0x234ef: jmp qword [rsi+0x0F] ; (1 found)
0x2362f: jmp qword [rsi+0x0F] ; (1 found)
0x25679: jmp qword [rsi+0x0F] ; (1 found)
0x2074: jmp qword [rsi+0x2E] ; (1 found)
0x2242: jmp qword [rsi+0x2E] ; (1 found)
0x2835: jmp qword [rsi+0x2E] ; (1 found)
0x4015: jmp qword [rsi+0x2E] ; (1 found)
0x4e35: jmp qword [rsi+0x2E] ; (1 found)
0x5575: jmp qword [rsi+0x2E] ; (1 found)
0x5f75: jmp qword [rsi+0x2E] ; (1 found)
0x6c15: jmp qword [rsi+0x2E] ; (1 found)
0x93c5: jmp qword [rsi+0x2E] ; (1 found)
0xa505: jmp qword [rsi+0x2E] ; (1 found)
0xafc5: jmp qword [rsi+0x2E] ; (1 found)
0xb855: jmp qword [rsi+0x2E] ; (1 found)
0xc025: jmp qword [rsi+0x2E] ; (1 found)
0xc1a5: jmp qword [rsi+0x2E] ; (1 found)
0xda30: jmp qword [rsi+0x2E] ; (1 found)
0xecd5: jmp qword [rsi+0x2E] ; (1 found)
0x10535: jmp qword [rsi+0x2E] ; (1 found)
0x10935: jmp qword [rsi+0x2E] ; (1 found)
0x11775: jmp qword [rsi+0x2E] ; (1 found)
0x11d94: jmp qword [rsi+0x2E] ; (1 found)
0x14b95: jmp qword [rsi+0x2E] ; (1 found)
0x15bf5: jmp qword [rsi+0x2E] ; (1 found)
0x16245: jmp qword [rsi+0x2E] ; (1 found)
0x16665: jmp qword [rsi+0x2E] ; (1 found)
0x176e5: jmp qword [rsi+0x2E] ; (1 found)
0x18374: jmp qword [rsi+0x2E] ; (1 found)
0x18fc4: jmp qword [rsi+0x2E] ; (1 found)
0x194b0: jmp qword [rsi+0x2E] ; (1 found)
0x1acd5: jmp qword [rsi+0x2E] ; (1 found)
0x1bd05: jmp qword [rsi+0x2E] ; (1 found)
0x20085: jmp qword [rsi+0x2E] ; (1 found)
0x200e5: jmp qword [rsi+0x2E] ; (1 found)
0x20321: jmp qword [rsi+0x2E] ; (1 found)
0x23cd5: jmp qword [rsi+0x2E] ; (1 found)
0x23e55: jmp qword [rsi+0x2E] ; (1 found)
0x23fd5: jmp qword [rsi+0x2E] ; (1 found)
0x24155: jmp qword [rsi+0x2E] ; (1 found)
0x242d5: jmp qword [rsi+0x2E] ; (1 found)
0x24455: jmp qword [rsi+0x2E] ; (1 found)
0x245d5: jmp qword [rsi+0x2E] ; (1 found)
0x24755: jmp qword [rsi+0x2E] ; (1 found)
0x248d5: jmp qword [rsi+0x2E] ; (1 found)
0x24a55: jmp qword [rsi+0x2E] ; (1 found)
0x24bd5: jmp qword [rsi+0x2E] ; (1 found)
0x24d55: jmp qword [rsi+0x2E] ; (1 found)
0x24ed5: jmp qword [rsi+0x2E] ; (1 found)
0x25055: jmp qword [rsi+0x2E] ; (1 found)
0x251d5: jmp qword [rsi+0x2E] ; (1 found)
0x68ec: jmp qword [rsi+0x41] ; (1 found)
0x8397: jmp qword [rsi+0x41] ; (1 found)
0x6802: jmp qword [rsi+0x44] ; (1 found)
0x3cfc: jmp qword [rsi+0x48] ; (1 found)
0x93ec: jmp qword [rsi+0x48] ; (1 found)
0xe50b: jmp qword [rsi+0x48] ; (1 found)
0xe6f4: jmp qword [rsi+0x48] ; (1 found)
0xef66: jmp qword [rsi+0x48] ; (1 found)
0xf11b: jmp qword [rsi+0x48] ; (1 found)
0x2003: jmp qword [rsi+0x66] ; (1 found)
0x3704: jmp qword [rsi+0x66] ; (1 found)
0x3890: jmp qword [rsi+0x66] ; (1 found)
0x5844: jmp qword [rsi+0x66] ; (1 found)
0x5fc2: jmp qword [rsi+0x66] ; (1 found)
0xb382: jmp qword [rsi+0x66] ; (1 found)
0x13444: jmp qword [rsi+0x66] ; (1 found)
0x13fd2: jmp qword [rsi+0x66] ; (1 found)
0x14914: jmp qword [rsi+0x66] ; (1 found)
0x155a1: jmp qword [rsi+0x66] ; (1 found)
0x16532: jmp qword [rsi+0x66] ; (1 found)
0x16574: jmp qword [rsi+0x66] ; (1 found)
0x17303: jmp qword [rsi+0x66] ; (1 found)
0x180a1: jmp qword [rsi+0x66] ; (1 found)
0x19124: jmp qword [rsi+0x66] ; (1 found)
0x19421: jmp qword [rsi+0x66] ; (1 found)
0x1af53: jmp qword [rsi+0x66] ; (1 found)
0x1b361: jmp qword [rsi+0x66] ; (1 found)
0x1b4f2: jmp qword [rsi+0x66] ; (1 found)
0x22484: jmp qword [rsi+0x66] ; (1 found)
0x225c4: jmp qword [rsi+0x66] ; (1 found)
0x22704: jmp qword [rsi+0x66] ; (1 found)
0x22844: jmp qword [rsi+0x66] ; (1 found)
0x22984: jmp qword [rsi+0x66] ; (1 found)
0x22ac4: jmp qword [rsi+0x66] ; (1 found)
0x22c04: jmp qword [rsi+0x66] ; (1 found)
0x22d44: jmp qword [rsi+0x66] ; (1 found)
0x22e84: jmp qword [rsi+0x66] ; (1 found)
0x22fc4: jmp qword [rsi+0x66] ; (1 found)
0x23104: jmp qword [rsi+0x66] ; (1 found)
0x23244: jmp qword [rsi+0x66] ; (1 found)
0x23384: jmp qword [rsi+0x66] ; (1 found)
0x234c4: jmp qword [rsi+0x66] ; (1 found)
0x23600: jmp qword [rsi+0x66] ; (1 found)
0x251a4: jmp qword [rsi+0x66] ; (1 found)
0x19a2a: jmp qword [rsi-0x007F] ; (1 found)
0x19bfe: jmp qword [rsi-0x007F] ; (1 found)
0x19e36: jmp qword [rsi-0x007F] ; (1 found)
0x19eb4: jmp qword [rsi-0x007F] ; (1 found)
0x19f29: jmp qword [rsi-0x007F] ; (1 found)
0x19faa: jmp qword [rsi-0x007F] ; (1 found)
0x1d2d: jmp qword [rsi-0x70] ; (1 found)
0x318d: jmp qword [rsi-0x70] ; (1 found)
0x406d: jmp qword [rsi-0x70] ; (1 found)
0x4e9d: jmp qword [rsi-0x70] ; (1 found)
0x6d2d: jmp qword [rsi-0x70] ; (1 found)
0x993d: jmp qword [rsi-0x70] ; (1 found)
0xd7ed: jmp qword [rsi-0x70] ; (1 found)
0x10e4d: jmp qword [rsi-0x70] ; (1 found)
0x1265d: jmp qword [rsi-0x70] ; (1 found)
0x12f9d: jmp qword [rsi-0x70] ; (1 found)
0x14bed: jmp qword [rsi-0x70] ; (1 found)
0x1535d: jmp qword [rsi-0x70] ; (1 found)
0x15fbd: jmp qword [rsi-0x70] ; (1 found)
0x172ad: jmp qword [rsi-0x70] ; (1 found)
0x1a76d: jmp qword [rsi-0x70] ; (1 found)
0x1b2ed: jmp qword [rsi-0x70] ; (1 found)
0x1b57d: jmp qword [rsi-0x70] ; (1 found)
0x1f26d: jmp qword [rsi-0x70] ; (1 found)
0x1e35a: jmp qword [rsi-0x76B40000] ; (1 found)
0x8da8: jmp qword [rsi-0x7D] ; (1 found)
0x9223: jmp qword [rsi-0x7D] ; (1 found)
0x1fe21: jmp qword [rsi-0x7D] ; (1 found)
0x222e9: jmp r10 ; (1 found)
0x23aa9: jmp r10 ; (1 found)
0x12042: jmp r11 ; (1 found)
0x12148: jmp r11 ; (1 found)
0x12216: jmp r11 ; (1 found)
0x122d6: jmp r11 ; (1 found)
0x259ee: jmp r11 ; (1 found)
0x25df6: jmp r11 ; (1 found)
0x1a9fa: jmp r12 ; (1 found)
0x113f: jmp rax ; (1 found)
0xe580: jmp rax ; (1 found)
0xefdb: jmp rax ; (1 found)
0x145e2: jmp rax ; (1 found)
0x14646: jmp rax ; (1 found)
0x14690: jmp rax ; (1 found)
0x16397: jmp rax ; (1 found)
0x18132: jmp rax ; (1 found)
0x181a9: jmp rax ; (1 found)
0x19035: jmp rax ; (1 found)
0x1979f: jmp rax ; (1 found)
0x197d5: jmp rax ; (1 found)
0x1bf03: jmp rax ; (1 found)
0x12043: jmp rbx ; (1 found)
0x12149: jmp rbx ; (1 found)
0x12217: jmp rbx ; (1 found)
0x122d7: jmp rbx ; (1 found)
0x259ef: jmp rbx ; (1 found)
0x25df7: jmp rbx ; (1 found)
0x1c50f: jmp rcx ; (1 found)
0x21ba1: jmp rcx ; (1 found)
0x21bf9: jmp rcx ; (1 found)
0x21c16: jmp rcx ; (1 found)
0x21c3b: jmp rcx ; (1 found)
0x21c5d: jmp rcx ; (1 found)
0x21c73: jmp rcx ; (1 found)
0x21c9f: jmp rcx ; (1 found)
0x21cd4: jmp rcx ; (1 found)
0x10ab: jmp rdx ; (1 found)
0x1402f: jmp rdx ; (1 found)
0x14030: jmp rdx ; (1 found)
0x20cd8: jmp rdx ; (1 found)
0x222ea: jmp rdx ; (1 found)
0x23aaa: jmp rdx ; (1 found)
0x1a9fb: jmp rsp ; (1 found)
0x14aa6: lahf ; retn 0xED31 ; (1 found)
0x18ffb: lea eax,  [0x000000000000A920] ; mov qword [0x0000000000031A10], rax ; ret ; (1 found)
0x19101: lea eax,  [0x000000000002867F] ; ret ; (1 found)
0x190f1: lea eax,  [0x0000000000028696] ; ret ; (1 found)
0x190c1: lea eax,  [0x00000000000286A7] ; ret ; (1 found)
0x190b1: lea eax,  [0x00000000000286C1] ; ret ; (1 found)
0x190d1: lea eax,  [0x00000000000286D9] ; ret ; (1 found)
0x190e1: lea eax,  [0x00000000000286EC] ; ret ; (1 found)
0x16581: lea eax,  [0x0000000000031B10] ; ret ; (1 found)
0x21184: lea eax,  [rax+rdi+0x10] ; ret ; (1 found)
0x21974: lea eax,  [rax+rdi+0x10] ; ret ; (1 found)
0x21194: lea eax,  [rax+rdi+0x20] ; ret ; (1 found)
0x21984: lea eax,  [rax+rdi+0x20] ; ret ; (1 found)
0x21164: lea eax,  [rax+rdi-0x10] ; ret ; (1 found)
0x21954: lea eax,  [rax+rdi-0x10] ; ret ; (1 found)
0x21cf7: lea eax,  [rdi+0x01] ; ret ; (1 found)
0x21d0a: lea eax,  [rdi+0x02] ; ret ; (1 found)
0x21d15: lea eax,  [rdi+0x03] ; ret ; (1 found)
0x21d28: lea eax,  [rdi+0x04] ; ret ; (1 found)
0x21d3d: lea eax,  [rdi+0x05] ; ret ; (1 found)
0x21d5b: lea eax,  [rdi+0x06] ; ret ; (1 found)
0x21d67: lea eax,  [rdi+0x07] ; ret ; (1 found)
0x21d7a: lea eax,  [rdi+0x08] ; ret ; (1 found)
0x21d8f: lea eax,  [rdi+0x09] ; ret ; (1 found)
0x21dad: lea eax,  [rdi+0x0A] ; ret ; (1 found)
0x21dcd: lea eax,  [rdi+0x0B] ; ret ; (1 found)
0x21def: lea eax,  [rdi+0x0C] ; ret ; (1 found)
0x21e0f: lea eax,  [rdi+0x0D] ; ret ; (1 found)
0x21e2f: lea eax,  [rdi+0x0E] ; ret ; (1 found)
0x21e49: lea eax,  [rdi+0x0F] ; ret ; (1 found)
0x21e5c: lea eax,  [rdi+0x10] ; ret ; (1 found)
0x21e71: lea eax,  [rdi+0x11] ; ret ; (1 found)
0x21e8f: lea eax,  [rdi+0x12] ; ret ; (1 found)
0x21eaf: lea eax,  [rdi+0x13] ; ret ; (1 found)
0x21ed2: lea eax,  [rdi+0x14] ; ret ; (1 found)
0x21ef1: lea eax,  [rdi+0x15] ; ret ; (1 found)
0x21f11: lea eax,  [rdi+0x16] ; ret ; (1 found)
0x21f31: lea eax,  [rdi+0x17] ; ret ; (1 found)
0x21f54: lea eax,  [rdi+0x18] ; ret ; (1 found)
0x21f79: lea eax,  [rdi+0x19] ; ret ; (1 found)
0x21f97: lea eax,  [rdi+0x1A] ; ret ; (1 found)
0x21fb7: lea eax,  [rdi+0x1B] ; ret ; (1 found)
0x21fd3: lea eax,  [rdi+0x1C] ; ret ; (1 found)
0x21ff3: lea eax,  [rdi+0x1D] ; ret ; (1 found)
0x22013: lea eax,  [rdi+0x1E] ; ret ; (1 found)
0x22033: lea eax,  [rdi+0x1F] ; ret ; (1 found)
0x211b9: lea eax,  [rdi+rax+0x10] ; ret ; (1 found)
0x211c9: lea eax,  [rdi+rax+0x20] ; ret ; (1 found)
0x210c3: lea eax,  [rdi+rax+0x30] ; ret ; (1 found)
0x211d9: lea eax,  [rdi+rax+0x30] ; ret ; (1 found)
0x2193d: lea eax,  [rdi+rax+0x30] ; ret ; (1 found)
0x254b7: lea eax,  [rdi+rax] ; ret ; (1 found)
0x255d5: lea eax,  [rdi+rax] ; ret ; (1 found)
0x21ce3: lea eax,  [rdi] ; ret ; (1 found)
0x1111: lea ebx,  [rbp+rdx*8+0x00] ; nop  [rax] ; call qword [rbx] ; (1 found)
0x2121: lea ecx,  [0x0000000000033118] ; mov rax, rcx ; ret ; (1 found)
0x21b9e: lea ecx,  [rbx+rcx] ; jmp rcx ; (1 found)
0x21bf6: lea ecx,  [rbx+rcx] ; jmp rcx ; (1 found)
0x21c13: lea ecx,  [rbx+rcx] ; jmp rcx ; (1 found)
0x21c38: lea ecx,  [rbx+rcx] ; jmp rcx ; (1 found)
0x21c5a: lea ecx,  [rbx+rcx] ; jmp rcx ; (1 found)
0x21c70: lea ecx,  [rbx+rcx] ; jmp rcx ; (1 found)
0x21c9c: lea ecx,  [rbx+rcx] ; jmp rcx ; (1 found)
0x21cd1: lea ecx,  [rbx+rcx] ; jmp rcx ; (1 found)
0x16a85: lea ecx,  [rbx+rsi] ; mov esi,  [rsp+0x14] ; call rax ; (1 found)
0x16c66: lea ecx,  [rbx+rsi] ; mov esi,  [rsp+0x18] ; call rax ; (1 found)
0x16f30: lea ecx,  [rsp+0x34] ; call rax ; (1 found)
0x13e40: lea edi,  [0x000000000002811D] ; mov eax, 0x00000015 ; syscall ; (1 found)
0xa16b: lea edi,  [rax+0x1C] ; mov eax, 0x000000CA ; syscall ; (1 found)
0x1006a: lea edi,  [rax+0x1C] ; mov eax, 0x000000CA ; syscall ; (1 found)
0x10382: lea edi,  [rax+0x1C] ; mov eax, 0x000000CA ; syscall ; (1 found)
0x11e4d: lea edi,  [rbx+0x000002D0] ; mov eax, 0x000000DA ; syscall ; (1 found)
0x1402c: lea edi,  [rcx+rax+0x48] ; jmp rdx ; (1 found)
0x1a9f1: lea edx,  [0x00000000000046A0] ; mov rsp, r13 ; jmp r12 ; (1 found)
0x256c0: lea edx,  [0x0000000000027460] ; add rax, rdx ; ret ; (1 found)
0x105b0: lea edx,  [rdx+rcx*4] ; mov qword [rax+0x00000328], rdx ; ret ; (1 found)
0x222e6: lea edx,  [rdx+rcx] ; jmp r10 ; (1 found)
0x23aa6: lea edx,  [rdx+rcx] ; jmp r10 ; (1 found)
0x1a192: lea edx,  [rsp+0x10] ; mov rcx, qword [0x0000000000031B08] ; call rbx ; (1 found)
0x16711: lea esi,  [rax+rsi] ; call rcx ; (1 found)
0xc702: lea esi,  [rbp-0x00000430] ; mov eax, 0x00000014 ; syscall ; (1 found)
0x222e5: lea r10, qword [r10+r9] ; jmp r10 ; (1 found)
0x23aa5: lea r10, qword [r10+r9] ; jmp r10 ; (1 found)
0x16a84: lea r9, qword [r11+rsi] ; mov esi,  [rsp+0x14] ; call rax ; (1 found)
0x16c64: lea r9, qword [r11+rsi] ; mov esi,  [rsp+0x18] ; call rax ; (1 found)
0x16c65: lea r9, qword [r11+rsi] ; mov esi,  [rsp+0x18] ; call rax ; (1 found)
0x16f2f: lea r9, qword [rsp+0x34] ; call rax ; (1 found)
0x18ffa: lea rax, qword [0x000000000000A920] ; mov qword [0x0000000000031A10], rax ; ret ; (1 found)
0x19100: lea rax, qword [0x000000000002867F] ; ret ; (1 found)
0x190f0: lea rax, qword [0x0000000000028696] ; ret ; (1 found)
0x190c0: lea rax, qword [0x00000000000286A7] ; ret ; (1 found)
0x190b0: lea rax, qword [0x00000000000286C1] ; ret ; (1 found)
0x190d0: lea rax, qword [0x00000000000286D9] ; ret ; (1 found)
0x190e0: lea rax, qword [0x00000000000286EC] ; ret ; (1 found)
0x16580: lea rax, qword [0x0000000000031B10] ; ret ; (1 found)
0x21183: lea rax, qword [rax+rdi+0x10] ; ret ; (1 found)
0x21973: lea rax, qword [rax+rdi+0x10] ; ret ; (1 found)
0x21193: lea rax, qword [rax+rdi+0x20] ; ret ; (1 found)
0x21983: lea rax, qword [rax+rdi+0x20] ; ret ; (1 found)
0x21163: lea rax, qword [rax+rdi-0x10] ; ret ; (1 found)
0x21953: lea rax, qword [rax+rdi-0x10] ; ret ; (1 found)
0x21cf6: lea rax, qword [rdi+0x01] ; ret ; (1 found)
0x21d09: lea rax, qword [rdi+0x02] ; ret ; (1 found)
0x21d14: lea rax, qword [rdi+0x03] ; ret ; (1 found)
0x21d27: lea rax, qword [rdi+0x04] ; ret ; (1 found)
0x21d3c: lea rax, qword [rdi+0x05] ; ret ; (1 found)
0x21d5a: lea rax, qword [rdi+0x06] ; ret ; (1 found)
0x21d66: lea rax, qword [rdi+0x07] ; ret ; (1 found)
0x21d79: lea rax, qword [rdi+0x08] ; ret ; (1 found)
0x21d8e: lea rax, qword [rdi+0x09] ; ret ; (1 found)
0x21dac: lea rax, qword [rdi+0x0A] ; ret ; (1 found)
0x21dcc: lea rax, qword [rdi+0x0B] ; ret ; (1 found)
0x21dee: lea rax, qword [rdi+0x0C] ; ret ; (1 found)
0x21e0e: lea rax, qword [rdi+0x0D] ; ret ; (1 found)
0x21e2e: lea rax, qword [rdi+0x0E] ; ret ; (1 found)
0x21e48: lea rax, qword [rdi+0x0F] ; ret ; (1 found)
0x21e5b: lea rax, qword [rdi+0x10] ; ret ; (1 found)
0x21e70: lea rax, qword [rdi+0x11] ; ret ; (1 found)
0x21e8e: lea rax, qword [rdi+0x12] ; ret ; (1 found)
0x21eae: lea rax, qword [rdi+0x13] ; ret ; (1 found)
0x21ed1: lea rax, qword [rdi+0x14] ; ret ; (1 found)
0x21ef0: lea rax, qword [rdi+0x15] ; ret ; (1 found)
0x21f10: lea rax, qword [rdi+0x16] ; ret ; (1 found)
0x21f30: lea rax, qword [rdi+0x17] ; ret ; (1 found)
0x21f53: lea rax, qword [rdi+0x18] ; ret ; (1 found)
0x21f78: lea rax, qword [rdi+0x19] ; ret ; (1 found)
0x21f96: lea rax, qword [rdi+0x1A] ; ret ; (1 found)
0x21fb6: lea rax, qword [rdi+0x1B] ; ret ; (1 found)
0x21fd2: lea rax, qword [rdi+0x1C] ; ret ; (1 found)
0x21ff2: lea rax, qword [rdi+0x1D] ; ret ; (1 found)
0x22012: lea rax, qword [rdi+0x1E] ; ret ; (1 found)
0x22032: lea rax, qword [rdi+0x1F] ; ret ; (1 found)
0x211b8: lea rax, qword [rdi+rax+0x10] ; ret ; (1 found)
0x211c8: lea rax, qword [rdi+rax+0x20] ; ret ; (1 found)
0x210c2: lea rax, qword [rdi+rax+0x30] ; ret ; (1 found)
0x211d8: lea rax, qword [rdi+rax+0x30] ; ret ; (1 found)
0x2193c: lea rax, qword [rdi+rax+0x30] ; ret ; (1 found)
0x254b6: lea rax, qword [rdi+rax] ; ret ; (1 found)
0x255d4: lea rax, qword [rdi+rax] ; ret ; (1 found)
0x21ce2: lea rax, qword [rdi] ; ret ; (1 found)
0x1110: lea rbx, qword [rbp+rdx*8+0x00] ; nop  [rax] ; call qword [rbx] ; (1 found)
0x2120: lea rcx, qword [0x0000000000033118] ; mov rax, rcx ; ret ; (1 found)
0x21b9d: lea rcx, qword [r11+rcx] ; jmp rcx ; (1 found)
0x21bf5: lea rcx, qword [r11+rcx] ; jmp rcx ; (1 found)
0x21c12: lea rcx, qword [r11+rcx] ; jmp rcx ; (1 found)
0x21c37: lea rcx, qword [r11+rcx] ; jmp rcx ; (1 found)
0x21c59: lea rcx, qword [r11+rcx] ; jmp rcx ; (1 found)
0x21c6f: lea rcx, qword [r11+rcx] ; jmp rcx ; (1 found)
0x21c9b: lea rcx, qword [r11+rcx] ; jmp rcx ; (1 found)
0x21cd0: lea rcx, qword [r11+rcx] ; jmp rcx ; (1 found)
0x13e3f: lea rdi, qword [0x000000000002811D] ; mov eax, 0x00000015 ; syscall ; (1 found)
0xa16a: lea rdi, qword [rax+0x1C] ; mov eax, 0x000000CA ; syscall ; (1 found)
0x10069: lea rdi, qword [rax+0x1C] ; mov eax, 0x000000CA ; syscall ; (1 found)
0x10381: lea rdi, qword [rax+0x1C] ; mov eax, 0x000000CA ; syscall ; (1 found)
0x11e4c: lea rdi, qword [rbx+0x000002D0] ; mov eax, 0x000000DA ; syscall ; (1 found)
0x1402b: lea rdi, qword [rcx+rax+0x48] ; jmp rdx ; (1 found)
0x1a9f0: lea rdx, qword [0x00000000000046A0] ; mov rsp, r13 ; jmp r12 ; (1 found)
0x256bf: lea rdx, qword [0x0000000000027460] ; add rax, rdx ; ret ; (1 found)
0x105af: lea rdx, qword [rdx+rcx*4] ; mov qword [rax+0x00000328], rdx ; ret ; (1 found)
0x1a191: lea rdx, qword [rsp+0x10] ; mov rcx, qword [0x0000000000031B08] ; call rbx ; (1 found)
0x16710: lea rsi, qword [rax+r14] ; call rcx ; (1 found)
0xc701: lea rsi, qword [rbp-0x00000430] ; mov eax, 0x00000014 ; syscall ; (1 found)
0x2089a: leave ; neg eax ; ret ; (1 found)
0x134f9: leave ; ret ; (1 found)
0x13550: leave ; ret ; (1 found)
0xfb62: lock call rax ; (1 found)
0xe57f: lock jmp rax ; (1 found)
0x1468f: lock jmp rax ; (1 found)
0xa5b5: lock mov rax, r14 ; pop r14 ; ret ; (1 found)
0xa5b6: lock mov rax, r14 ; pop r14 ; ret ; (1 found)
0xabaa: lock mov rax, rsi ; ret ; (1 found)
0xabab: lock mov rax, rsi ; ret ; (1 found)
0x20cd1: lock mov rsp, r8 ; mov rbp, r9 ; jmp rdx ; (1 found)
0x21556: lock movups  [rdi+rdx-0x20], xmm3 ; ret ; (1 found)
0x214f6: lock movups  [rdi], xmm0 ; movups  [rdi+rdx-0x10], xmm1 ; ret ; (1 found)
0x216e4: lock movups  [rdi], xmm0 ; ret ; (1 found)
0xa5b9: lock pop r14 ; ret ; (1 found)
0x237dd: lock pop rbx ; ret ; (1 found)
0xabae: lock ret ; (1 found)
0xabfd: lock ret ; (1 found)
0xac22: lock ret ; (1 found)
0x12d01: lock ret ; (1 found)
0x19400: lock ret ; (1 found)
0x21167: lock ret ; (1 found)
0x214fe: lock ret ; (1 found)
0x216af: lock ret ; (1 found)
0x216ef: lock ret ; (1 found)
0x216f0: lock ret ; (1 found)
0x21957: lock ret ; (1 found)
0x18e17: lock shr eax, 0x1F ; add eax, 0x06 ; ret ; (1 found)
0x143c9: lock sub rax, qword [fs:0x00000000] ; mov rdi, qword [rsp-0x08] ; ret ; (1 found)
0x2124: lsl eax, word [rax] ; mov rax, rcx ; ret ; (1 found)
0x19002: mov  [0x0000000000031A10], eax ; ret ; (1 found)
0x11df7: mov  [0x0000000000031A30], eax ; movups  [0x00000000000330E0], xmm0 ; ret ; (1 found)
0x19551: mov  [0x0000000000031A30], edx ; pop r12 ; ret ; (1 found)
0x148f1: mov  [0x0000000000031AC0], 0x00000800 ; pop rbx ; ret ; (1 found)
0x148e0: mov  [0x0000000000031AC0], eax ; pop rbx ; ret ; (1 found)
0x1070f: mov  [0x0000000000031DB0], eax ; add rsp, 0x18 ; ret ; (1 found)
0x21c9: mov  [0x0000000000033118], 0x00000002 ; mov rax, rcx ; ret ; (1 found)
0x4686: mov  [0x0000000000033168], 0x00000000 ; pop rbx ; ret ; (1 found)
0xa909: mov  [0x0000000000033188], eax ; add rsp, 0x08 ; ret ; (1 found)
0x137cb: mov  [0x00000000000331E8], 0x00000000 ; add rsp, 0x08 ; ret ; (1 found)
0x137a1: mov  [0x00000000000331E8], 0x00000000 ; ret ; (1 found)
0x18346: mov  [0x0000000000033210], eax ; call rsi ; (1 found)
0x1833b: mov  [0x0000000000033218], 0x00000000 ; mov qword [0x0000000000033210], rax ; call rsi ; (1 found)
0x18291: mov  [0x0000000000033218], 0x00000000 ; mov rdi, rdx ; call rsi ; (1 found)
0x20240: mov  [0x00000000000332A0], 0x00000002 ; xor eax, eax ; ret ; (1 found)
0x206a0: mov  [0x00000000000332A0], 0x00000009 ; mov eax, 0xFFFFFFFF ; ret ; (1 found)
0x1fa10: mov  [0x00000000000332A0], 0x0000000C ; mov eax, 0xFFFFFFFF ; ret ; (1 found)
0x20346: mov  [0x00000000000332A0], 0x00000016 ; mov eax, 0xFFFFFFFF ; ret ; (1 found)
0x20cf8: mov  [0x00000000000332A0], 0x00000016 ; mov eax, 0xFFFFFFFF ; ret ; (1 found)
0x20a60: mov  [0x00000000000332A0], 0x00000016 ; mov rax, 0xFFFFFFFFFFFFFFFF ; ret ; (1 found)
0x200ba: mov  [0x00000000000332A0], eax ; mov eax, 0xFFFFFFFF ; ret ; (1 found)
0x206ea: mov  [0x00000000000332A0], eax ; mov eax, 0xFFFFFFFF ; ret ; (1 found)
0x2075a: mov  [0x00000000000332A0], eax ; mov eax, 0xFFFFFFFF ; ret ; (1 found)
0x207a2: mov  [0x00000000000332A0], eax ; mov eax, 0xFFFFFFFF ; ret ; (1 found)
0x207c2: mov  [0x00000000000332A0], eax ; mov eax, 0xFFFFFFFF ; ret ; (1 found)
0x2082a: mov  [0x00000000000332A0], eax ; mov eax, 0xFFFFFFFF ; ret ; (1 found)
0x20882: mov  [0x00000000000332A0], eax ; mov eax, 0xFFFFFFFF ; ret ; (1 found)
0x2090a: mov  [0x00000000000332A0], eax ; mov eax, 0xFFFFFFFF ; ret ; (1 found)
0x25692: mov  [0x00000000000332A0], eax ; mov eax, 0xFFFFFFFF ; ret ; (1 found)
0x204c2: mov  [0x00000000000332A0], eax ; mov rax, 0xFFFFFFFFFFFFFFFF ; ret ; (1 found)
0x20782: mov  [0x00000000000332A0], eax ; mov rax, 0xFFFFFFFFFFFFFFFF ; ret ; (1 found)
0x20932: mov  [0x00000000000332A0], eax ; mov rax, 0xFFFFFFFFFFFFFFFF ; ret ; (1 found)
0x2095a: mov  [0x00000000000332A0], eax ; mov rax, 0xFFFFFFFFFFFFFFFF ; ret ; (1 found)
0x20982: mov  [0x00000000000332A0], eax ; mov rax, 0xFFFFFFFFFFFFFFFF ; ret ; (1 found)
0x20a7a: mov  [0x00000000000332A0], eax ; mov rax, 0xFFFFFFFFFFFFFFFF ; ret ; (1 found)
0x1041f: mov  [0x0000441F0FFFFFFE], eax ; mov qword [rsp+0x08], r8 ; call rax ; (1 found)
0x14c6c: mov  [0x920F00000002B9D1], eax ; retn 0xD284 ; (1 found)
0x1909a: mov  [r8-0x07], 0x6F727245 ; mov word [rax+0x04], dx ; ret ; (1 found)
0x105f2: mov  [rax+0x0000030C], ecx ; mov qword [rax+0x00000320], rdx ; ret ; (1 found)
0x105f9: mov  [rax+0x00000320], edx ; ret ; (1 found)
0x105b4: mov  [rax+0x00000328], edx ; ret ; (1 found)
0x190a3: mov  [rax+0x04], edx ; ret ; (1 found)
0x20d4: mov  [rax+0x08], edx ; ret ; (1 found)
0x4618: mov  [rax+0x10], 0x00000000 ; ret ; (1 found)
0x13848: mov  [rax+0x40], edx ; mov byte [rax+0x50], 0x01 ; ret ; (1 found)
0x138a8: mov  [rax+0x48], edx ; ret ; (1 found)
0x1909b: mov  [rax-0x07], 0x6F727245 ; mov word [rax+0x04], dx ; ret ; (1 found)
0xfb5a: mov  [rbp-0x00000088], ecx ; add rax, rsi ; call rax ; (1 found)
0x1bb5e: mov  [rbp-0x00000090], esi ; call r11 ; (1 found)
0x1bb57: mov  [rbp-0x00000098], edi ; mov qword [rbp-0x00000090], rsi ; call r11 ; (1 found)
0xf5e7: mov  [rbp-0x000000A0], ebx ; call r9 ; (1 found)
0xf310: mov  [rbp-0x000000A0], edx ; call rax ; (1 found)
0xecb2: mov  [rbp-0x000000C0], ebx ; call r9 ; (1 found)
0xe972: mov  [rbp-0x000000C0], edx ; call rax ; (1 found)
0xf5e0: mov  [rbp-0x000000D0], edx ; mov qword [rbp-0x000000A0], r11 ; call r9 ; (1 found)
0xecab: mov  [rbp-0x000000F8], edx ; mov qword [rbp-0x000000C0], r11 ; call r9 ; (1 found)
0x4879: mov  [rbp-0x38], eax ; call qword [rax] ; (1 found)
0x1b454: mov  [rbx+0x10], ebx ; syscall ; (1 found)
0x1dca1: mov  [rbx+0x10], ebx ; syscall ; (1 found)
0x1aae6: mov  [rbx+0x18], eax ; pop rbx ; ret ; (1 found)
0x2282: mov  [rbx+0x20], eax ; pop rbx ; ret ; (1 found)
0x1b451: mov  [rbx], ebx ; mov qword [rbx+0x10], rbx ; syscall ; (1 found)
0x20aa9: mov  [rcx], eax ; or rax, 0xFFFFFFFFFFFFFFFF ; ret ; (1 found)
0x20ac9: mov  [rcx], eax ; or rax, 0xFFFFFFFFFFFFFFFF ; ret ; (1 found)
0x20bd9: mov  [rcx], eax ; or rax, 0xFFFFFFFFFFFFFFFF ; ret ; (1 found)
0x110c0: mov  [rdi+0x00000478], edx ; add rsp, 0x08 ; ret ; (1 found)
0x21d57: mov  [rdi+0x03], edx ; lea rax, qword [rdi+0x06] ; ret ; (1 found)
0x21d39: mov  [rdi+0x04], edx ; lea rax, qword [rdi+0x05] ; ret ; (1 found)
0x21deb: mov  [rdi+0x05], edx ; lea rax, qword [rdi+0x0C] ; ret ; (1 found)
0x21e0b: mov  [rdi+0x06], edx ; lea rax, qword [rdi+0x0D] ; ret ; (1 found)
0x21da9: mov  [rdi+0x07], edx ; lea rax, qword [rdi+0x0A] ; ret ; (1 found)
0x21e2b: mov  [rdi+0x07], edx ; lea rax, qword [rdi+0x0E] ; ret ; (1 found)
0x21d8b: mov  [rdi+0x08], edx ; lea rax, qword [rdi+0x09] ; ret ; (1 found)
0x21dc9: mov  [rdi+0x08], edx ; lea rax, qword [rdi+0x0B] ; ret ; (1 found)
0x21eed: mov  [rdi+0x0E], ecx ; lea rax, qword [rdi+0x15] ; ret ; (1 found)
0x21e8b: mov  [rdi+0x0F], ecx ; lea rax, qword [rdi+0x12] ; ret ; (1 found)
0x21f0d: mov  [rdi+0x0F], ecx ; lea rax, qword [rdi+0x16] ; ret ; (1 found)
0x21e6d: mov  [rdi+0x10], ecx ; lea rax, qword [rdi+0x11] ; ret ; (1 found)
0x21eab: mov  [rdi+0x10], ecx ; lea rax, qword [rdi+0x13] ; ret ; (1 found)
0x21f2d: mov  [rdi+0x10], ecx ; lea rax, qword [rdi+0x17] ; ret ; (1 found)
0x21f93: mov  [rdi+0x17], ecx ; lea rax, qword [rdi+0x1A] ; ret ; (1 found)
0x21f75: mov  [rdi+0x18], ecx ; lea rax, qword [rdi+0x19] ; ret ; (1 found)
0x21fb3: mov  [rdi+0x18], ecx ; lea rax, qword [rdi+0x1B] ; ret ; (1 found)
0x20c89: mov  [rdi+0x38], eax ; xor eax, eax ; ret ; (1 found)
0x19010: mov  [rdi+0x40], 0x00000000 ; xor eax, eax ; ret ; (1 found)
0x21519: mov  [rdi+rdx-0x02], esi ; mov byte [rdi], cl ; ret ; (1 found)
0x21525: mov  [rdi+rdx-0x04], ecx ; mov  [rdi], esi ; ret ; (1 found)
0x21526: mov  [rdi+rdx-0x04], ecx ; mov  [rdi], esi ; ret ; (1 found)
0x2177b: mov  [rdi+rdx-0x04], esi ; ret ; (1 found)
0x2153c: mov  [rdi+rdx-0x08], ecx ; ret ; (1 found)
0x21774: mov  [rdi+rdx-0x08], esi ; ret ; (1 found)
0x19479: mov  [rdi], eax ; mov rax, r10 ; ret ; (1 found)
0x21d25: mov  [rdi], ecx ; lea rax, qword [rdi+0x04] ; ret ; (1 found)
0x21d77: mov  [rdi], ecx ; lea rax, qword [rdi+0x08] ; ret ; (1 found)
0x21cf4: mov  [rdi], edx ; lea rax, qword [rdi+0x01] ; ret ; (1 found)
0x21d12: mov  [rdi], edx ; lea rax, qword [rdi+0x03] ; ret ; (1 found)
0x21d64: mov  [rdi], edx ; lea rax, qword [rdi+0x07] ; ret ; (1 found)
0x17f27: mov  [rdi], edx ; ret ; (1 found)
0x21779: mov  [rdi], esi ; mov  [rdi+rdx-0x04], esi ; ret ; (1 found)
0x21781: mov  [rdi], esi ; mov byte [rdi+rdx-0x01], sil ; ret ; (1 found)
0x21539: mov  [rdi], esi ; mov qword [rdi+rdx-0x08], rcx ; ret ; (1 found)
0x21771: mov  [rdi], esi ; mov qword [rdi+rdx-0x08], rsi ; ret ; (1 found)
0x2152a: mov  [rdi], esi ; ret ; (1 found)
0x4615: mov  [rdx], ecx ; mov qword [rax+0x10], 0x0000000000000000 ; ret ; (1 found)
0x3941: mov  [rsi+0x18], 0x00000000 ; ret ; (1 found)
0x3939: mov  [rsi+0x18], edx ; ret ; (1 found)
0x113f2: mov  [rsi], eax ; ret ; (1 found)
0x10429: mov  [rsp+0x08], eax ; call rax ; (1 found)
0x17deb: mov ah, 0x24 ; ret ; (1 found)
0x5fc0: mov al, 0xFF ; jmp qword [rsi+0x66] ; (1 found)
0x1f9ec: mov al, byte [0x0000000CB8FFFFAA] ; syscall ; (1 found)
0x1690f: mov al, byte [0x2074EB394C000004] ; call rax ; (1 found)
0x16877: mov al, byte [0x2074ED394C000004] ; call rax ; (1 found)
0x1864: mov al, byte [0x8949000301AD15FF] ; ret ; (1 found)
0x145de: mov bh, 0x48 ; add eax, edi ; jmp rax ; (1 found)
0x138a3: mov byte [rax+0x50], 0x01 ; mov qword [rax+0x48], rdx ; ret ; (1 found)
0x1384a: mov byte [rax+0x50], 0x01 ; ret ; (1 found)
0x1384b: mov byte [rax+0x50], 0x01 ; ret ; (1 found)
0x11c75: mov byte [rax-0x03], 0xFF ; jmp qword [rsi+0x0F] ; (1 found)
0x11cd5: mov byte [rax-0x03], 0xFF ; jmp qword [rsi+0x0F] ; (1 found)
0x1965e: mov byte [rax-0x75], cl ; adc byte [rax-0x7D], cl ; retn 0x4810 ; (1 found)
0x21d06: mov byte [rdi+0x02], dh ; lea rax, qword [rdi+0x02] ; ret ; (1 found)
0x21e58: mov byte [rdi+0x10], dh ; lea rax, qword [rdi+0x10] ; ret ; (1 found)
0x21ece: mov byte [rdi+0x14], dh ; lea rax, qword [rdi+0x14] ; ret ; (1 found)
0x21f50: mov byte [rdi+0x18], dh ; lea rax, qword [rdi+0x18] ; ret ; (1 found)
0x21784: mov byte [rdi+rdx-0x01], dh ; ret ; (1 found)
0x21783: mov byte [rdi+rdx-0x01], sil ; ret ; (1 found)
0x2151d: mov byte [rdi], cl ; ret ; (1 found)
0x21ce0: mov byte [rdi], dh ; lea rax, qword [rdi] ; ret ; (1 found)
0x21767: mov byte [rdi], dh ; ret ; (1 found)
0x21766: mov byte [rdi], sil ; ret ; (1 found)
0x222e4: mov cl, byte [rdi-0x73] ; adc al, 0x0A ; jmp r10 ; (1 found)
0x23aa4: mov cl, byte [rdi-0x73] ; adc al, 0x0A ; jmp r10 ; (1 found)
0x23694: mov dh, 0x07 ; sub eax, ecx ; ret ; (1 found)
0x25244: mov dh, 0x07 ; sub eax, ecx ; ret ; (1 found)
0x21266: mov dh, 0x0E ; sub eax, ecx ; ret ; (1 found)
0x64b2: mov dh, 0x42 ; add  [rax-0x7D], ecx ; retn 0x8401 ; (1 found)
0xc699: mov dh, 0x42 ; add  [rax-0x7D], ecx ; retn 0x8401 ; (1 found)
0x19461: mov dh, 0x42 ; add  [rax-0x7D], ecx ; retn 0x8401 ; (1 found)
0x1a24c: mov dh, 0x44 ; ret ; (1 found)
0x3460: mov dh, 0x46 ; add  [rax-0x7D], ecx ; ret ; (1 found)
0x18fc2: mov dh, 0xFE ; jmp qword [rsi+0x2E] ; (1 found)
0x1a1d6: mov dl, 0x66 ; nop  [rax+rax+0x00000000] ; ret ; (1 found)
0x20650: mov eax,  [0x0000000000031AE0] ; ret ; (1 found)
0x113eb: mov eax,  [0x0000000000031D48] ; mov qword [rsi], rax ; ret ; (1 found)
0x1a9ec: mov eax,  [0xFE9CA9158D48FFFE] ; dec  [rcx+rcx*4-0x14] ; jmp r12 ; (1 found)
0x1a9ed: mov eax,  [0xFE9CA9158D48FFFE] ; dec  [rcx+rcx*4-0x14] ; jmp r12 ; (1 found)
0x489c: mov eax,  [rax+0x08] ; add rax, qword [r15] ; call rax ; (1 found)
0x14371: mov eax,  [rax+0x08] ; ret ; (1 found)
0x14381: mov eax,  [rax+0x08] ; sub rax, qword [fs:0x00000000] ; ret ; (1 found)
0xaada: mov eax,  [rcx] ; ret ; (1 found)
0x1712f: mov eax,  [rsp+0x10] ; call rax ; (1 found)
0x16f2b: mov eax,  [rsp+0x18] ; lea r9, qword [rsp+0x34] ; call rax ; (1 found)
0x12d10: mov eax, 0x00000001 ; ret ; (1 found)
0x18f75: mov eax, 0x00000001 ; ret ; (1 found)
0x2053b: mov eax, 0x00000001 ; ret ; (1 found)
0x12c30: mov eax, 0x00000001 ; syscall ; ret ; (1 found)
0x12c30: mov eax, 0x00000001 ; syscall ; (1 found)
0x20970: mov eax, 0x00000001 ; syscall ; (1 found)
0x207b0: mov eax, 0x00000003 ; syscall ; (1 found)
0x18e1f: mov eax, 0x00000004 ; ret ; (1 found)
0x20770: mov eax, 0x00000008 ; syscall ; (1 found)
0x20a4c: mov eax, 0x00000009 ; syscall ; (1 found)
0x20ab0: mov eax, 0x0000000A ; syscall ; (1 found)
0x20a90: mov eax, 0x0000000B ; syscall ; (1 found)
0x1f9f0: mov eax, 0x0000000C ; syscall ; (1 found)
0x20dd1: mov eax, 0x0000000D ; syscall ; (1 found)
0x20d21: mov eax, 0x0000000F ; syscall ; (1 found)
0x20943: mov eax, 0x00000011 ; syscall ; (1 found)
0xc708: mov eax, 0x00000014 ; syscall ; (1 found)
0x13e46: mov eax, 0x00000015 ; syscall ; (1 found)
0x20790: mov eax, 0x00000015 ; syscall ; (1 found)
0x25680: mov eax, 0x00000026 ; syscall ; (1 found)
0x20c30: mov eax, 0x00000027 ; syscall ; ret ; (1 found)
0x20c30: mov eax, 0x00000027 ; syscall ; (1 found)
0x1e82c: mov eax, 0x0000003B ; syscall ; (1 found)
0x20bc0: mov eax, 0x0000003F ; syscall ; (1 found)
0x207f6: mov eax, 0x00000048 ; syscall ; (1 found)
0x2081a: mov eax, 0x00000048 ; syscall ; (1 found)
0x20855: mov eax, 0x00000048 ; syscall ; (1 found)
0x20872: mov eax, 0x00000048 ; syscall ; (1 found)
0x20b8d: mov eax, 0x000000CA ; syscall ; ret ; (1 found)
0x20bac: mov eax, 0x000000CA ; syscall ; ret ; (1 found)
0xa16e: mov eax, 0x000000CA ; syscall ; (1 found)
0x1006d: mov eax, 0x000000CA ; syscall ; (1 found)
0x10385: mov eax, 0x000000CA ; syscall ; (1 found)
0x20aef: mov eax, 0x000000CA ; syscall ; (1 found)
0x20b8d: mov eax, 0x000000CA ; syscall ; (1 found)
0x20bac: mov eax, 0x000000CA ; syscall ; (1 found)
0x20b40: mov eax, 0x000000CA ; xor sil, 0x80 ; syscall ; (1 found)
0x204ac: mov eax, 0x000000D9 ; syscall ; (1 found)
0x11e53: mov eax, 0x000000DA ; syscall ; (1 found)
0x200a3: mov eax, 0x00000101 ; syscall ; (1 found)
0x2071b: mov eax, 0x00000101 ; syscall ; (1 found)
0x206d3: mov eax, 0x00000106 ; syscall ; (1 found)
0x11ee6: mov eax, 0x0000014E ; syscall ; (1 found)
0xc64e: mov eax, 0x83FFFFFB ; ret ; (1 found)
0x18585: mov eax, 0x8D084889 ; add qword [r8-0x7D], rcx ; ret ; (1 found)
0x185f0: mov eax, 0x8D084889 ; add qword [r8-0x7D], rcx ; ret ; (1 found)
0xdb50: mov eax, 0xFFFFFFFF ; pop rbx ; ret ; (1 found)
0xdb57: mov eax, 0xFFFFFFFF ; ret ; (1 found)
0x12d03: mov eax, 0xFFFFFFFF ; ret ; (1 found)
0x1507d: mov eax, 0xFFFFFFFF ; ret ; (1 found)
0x1fa1a: mov eax, 0xFFFFFFFF ; ret ; (1 found)
0x200c0: mov eax, 0xFFFFFFFF ; ret ; (1 found)
0x20350: mov eax, 0xFFFFFFFF ; ret ; (1 found)
0x204c9: mov eax, 0xFFFFFFFF ; ret ; (1 found)
0x206aa: mov eax, 0xFFFFFFFF ; ret ; (1 found)
0x206f0: mov eax, 0xFFFFFFFF ; ret ; (1 found)
0x20760: mov eax, 0xFFFFFFFF ; ret ; (1 found)
0x20789: mov eax, 0xFFFFFFFF ; ret ; (1 found)
0x207a8: mov eax, 0xFFFFFFFF ; ret ; (1 found)
0x207c8: mov eax, 0xFFFFFFFF ; ret ; (1 found)
0x20830: mov eax, 0xFFFFFFFF ; ret ; (1 found)
0x20888: mov eax, 0xFFFFFFFF ; ret ; (1 found)
0x20910: mov eax, 0xFFFFFFFF ; ret ; (1 found)
0x20939: mov eax, 0xFFFFFFFF ; ret ; (1 found)
0x20961: mov eax, 0xFFFFFFFF ; ret ; (1 found)
0x20989: mov eax, 0xFFFFFFFF ; ret ; (1 found)
0x20a6b: mov eax, 0xFFFFFFFF ; ret ; (1 found)
0x20a81: mov eax, 0xFFFFFFFF ; ret ; (1 found)
0x20d02: mov eax, 0xFFFFFFFF ; ret ; (1 found)
0x25698: mov eax, 0xFFFFFFFF ; ret ; (1 found)
0x61bb: mov eax, eax ; ret ; (1 found)
0x3a24: mov eax, ebx ; pop rbx ; ret ; (1 found)
0x2128: mov eax, ecx ; ret ; (1 found)
0x21d4: mov eax, ecx ; ret ; (1 found)
0x10c18: mov eax, ecx ; syscall ; (1 found)
0x10cb8: mov eax, ecx ; syscall ; (1 found)
0x14602: mov eax, edi ; pop rbx ; ret ; (1 found)
0x16731: mov eax, edi ; ret ; (1 found)
0x20e7b: mov eax, edx ; add rsp, 0x00000000000000D0 ; ret ; (1 found)
0x20ead: mov eax, edx ; add rsp, 0x00000000000000D0 ; ret ; (1 found)
0x111c1: mov eax, edx ; ret ; (1 found)
0x1947c: mov eax, edx ; ret ; (1 found)
0x20bf0: mov eax, edx ; syscall ; (1 found)
0xa5b8: mov eax, esi ; pop r14 ; ret ; (1 found)
0xabad: mov eax, esi ; ret ; (1 found)
0xabfc: mov eax, esi ; ret ; (1 found)
0xac21: mov eax, esi ; ret ; (1 found)
0x193ff: mov eax, esi ; ret ; (1 found)
0x20bfd: mov eax, esi ; syscall ; (1 found)
0x61ba: mov eax, r8d ; ret ; (1 found)
0x10c17: mov eax, r9d ; syscall ; (1 found)
0x10cb7: mov eax, r9d ; syscall ; (1 found)
0x1befa: mov ebp, 0x85446349 ; add byte [rcx+rax-0x18], cl ; jmp rax ; (1 found)
0x19a83: mov ebp, 0x89000181 ; retn 0xE083 ; (1 found)
0x559f: mov ebp, 0x890001B0 ; retn 0x01B8 ; (1 found)
0x5ca0: mov ebp, 0x89480002 ; retn 0x8548 ; (1 found)
0x1bb58: mov ebp, 0xFFFFFF68 ; mov qword [rbp-0x00000090], rsi ; call r11 ; (1 found)
0x20cd6: mov ebp, ecx ; jmp rdx ; (1 found)
0xf6b9: mov ebx,  [rbp-0x00000090] ; add r9, r11 ; call r9 ; (1 found)
0x134f6: mov ebx,  [rbp-0x08] ; leave ; ret ; (1 found)
0x1354d: mov ebx,  [rbp-0x08] ; leave ; ret ; (1 found)
0x12141: mov ebx,  [rsp+0x00] ; add rsp, 0x18 ; jmp r11 ; (1 found)
0x1220f: mov ebx,  [rsp+0x00] ; add rsp, 0x18 ; jmp r11 ; (1 found)
0x122cf: mov ebx,  [rsp+0x00] ; add rsp, 0x18 ; jmp r11 ; (1 found)
0x1203b: mov ebx,  [rsp+0x00] ; add rsp, 0x30 ; jmp r11 ; (1 found)
0x259e7: mov ebx,  [rsp+0x00] ; add rsp, 0x30 ; jmp r11 ; (1 found)
0x25def: mov ebx,  [rsp+0x00] ; add rsp, 0x30 ; jmp r11 ; (1 found)
0x120bb: mov ebx,  [rsp+0x00] ; add rsp, 0x30 ; ret ; (1 found)
0x25ad1: mov ebx,  [rsp+0x00] ; add rsp, 0x30 ; ret ; (1 found)
0x25ec3: mov ebx,  [rsp+0x00] ; add rsp, 0x30 ; ret ; (1 found)
0x11e4e: mov ebx, 0x000002D0 ; mov eax, 0x000000DA ; syscall ; (1 found)
0x5902: mov ebx, 0xCAEB0001 ; nop word [rax+rax+0x00000000] ; ret ; (1 found)
0x1a197: mov ecx,  [0x0000000000031B08] ; call rbx ; (1 found)
0xfa5c: mov ecx,  [rbp-0x00000090] ; add r11, r9 ; call r11 ; (1 found)
0x18256: mov ecx,  [rsp+0x10] ; mov rdi, qword [rsp+0x18] ; call rcx ; (1 found)
0x1712a: mov ecx,  [rsp+0x18] ; mov r8, qword [rsp+0x10] ; call rax ; (1 found)
0x12062: mov edi,  [rdi+0x28] ; call r11 ; (1 found)
0x25a0e: mov edi,  [rdi+0x28] ; call r11 ; (1 found)
0x25e16: mov edi,  [rdi+0x28] ; call r11 ; (1 found)
0x1434b: mov edi,  [rsp+0x00] ; call qword [r12+0x18] ; (1 found)
0x1825b: mov edi,  [rsp+0x18] ; call rcx ; (1 found)
0x143d4: mov edi,  [rsp-0x08] ; ret ; (1 found)
0x1e146: mov edi, 0x00000002 ; call rax ; (1 found)
0x1dc9b: mov edi, 0x00001002 ; mov qword [rbx+0x10], rbx ; syscall ; (1 found)
0x208c6: mov edi, 0xFFFFFF9C ; syscall ; (1 found)
0x4aba: mov edi, ebp ; call qword [rax] ; (1 found)
0x4be6: mov edi, ebp ; call qword [rbx] ; (1 found)
0x4a75: mov edi, ebp ; call rax ; (1 found)
0x142de: mov edi, ebp ; call rax ; (1 found)
0x1e82a: mov edi, ebp ; mov eax, 0x0000003B ; syscall ; (1 found)
0x16787: mov edi, ebx ; call rax ; (1 found)
0x11ee4: mov edi, ebx ; mov eax, 0x0000014E ; syscall ; (1 found)
0x1829c: mov edi, edx ; call rsi ; (1 found)
0x1422e: mov edi, esi ; call qword [rbp+0x18] ; (1 found)
0x10f5f: mov edi, esi ; call rdx ; (1 found)
0x10f35: mov edi, esi ; sub rbx, rax ; call rdx ; (1 found)
0x111ba: mov edx,  [0x0000000000033080] ; mov rax, rdx ; ret ; (1 found)
0x2058a: mov edx,  [0x00000000000332C0] ; add word [rdx+rax*2], 0x0001 ; ret ; (1 found)
0x20d0: mov edx,  [rcx+rdx] ; mov qword [rax+0x08], rdx ; ret ; (1 found)
0x20ba7: mov edx, 0x00000001 ; mov eax, 0x000000CA ; syscall ; (1 found)
0x20dcc: mov edx, 0x00000008 ; mov eax, 0x0000000D ; syscall ; (1 found)
0x19572: mov edx, 0x5D000184 ; pop r12 ; ret ; (1 found)
0x20941: mov edx, ecx ; mov eax, 0x00000011 ; syscall ; (1 found)
0x206d1: mov edx, ecx ; mov eax, 0x00000106 ; syscall ; (1 found)
0x181a6: mov edx, ecx ; pop rbp ; jmp rax ; (1 found)
0x166c9: mov edx, esp ; call rcx ; (1 found)
0x166c8: mov edx, r12d ; call rcx ; (1 found)
0x1205e: mov esi,  [rdi+0x20] ; mov rdi, qword [rdi+0x28] ; call r11 ; (1 found)
0x25a0a: mov esi,  [rdi+0x20] ; mov rdi, qword [rdi+0x28] ; call r11 ; (1 found)
0x25e12: mov esi,  [rdi+0x20] ; mov rdi, qword [rdi+0x28] ; call r11 ; (1 found)
0x16a88: mov esi,  [rsp+0x14] ; call rax ; (1 found)
0x16c69: mov esi,  [rsp+0x18] ; call rax ; (1 found)
0x20815: mov esi, 0x00000010 ; mov eax, 0x00000048 ; syscall ; (1 found)
0x2086d: mov esi, 0x00000010 ; mov eax, 0x00000048 ; syscall ; (1 found)
0x20aea: mov esi, 0x00000080 ; mov eax, 0x000000CA ; syscall ; (1 found)
0x10c12: mov esi, 0x00000080 ; mov eax, r9d ; syscall ; (1 found)
0x10cb2: mov esi, 0x00000080 ; mov eax, r9d ; syscall ; (1 found)
0x20b88: mov esi, 0x00000081 ; mov eax, 0x000000CA ; syscall ; (1 found)
0x1726e: mov esi, 0x8348017B ; ret ; (1 found)
0x12d0a: mov esi, 0xC02944C2 ; ret ; (1 found)
0x208c4: mov esi, edi ; mov edi, 0xFFFFFF9C ; syscall ; (1 found)
0x16784: mov esi, edi ; mov rdi, rbx ; call rax ; (1 found)
0x165d1: mov esi, esp ; call rax ; (1 found)
0x4ab8: mov esi, esp ; mov edi, ebp ; call qword [rax] ; (1 found)
0x4be4: mov esi, esp ; mov edi, ebp ; call qword [rbx] ; (1 found)
0x4a73: mov esi, esp ; mov edi, ebp ; call rax ; (1 found)
0xc492: mov esi, esp ; syscall ; (1 found)
0x165d0: mov esi, r12d ; call rax ; (1 found)
0x21c2a: mov esp, 0x1D8D4CD2 ; call qword [rbp+0x00] ; (1 found)
0x21161: mov esp, 0x448D48C0 ; cmp al, dh ; ret ; (1 found)
0x21951: mov esp, 0x448D48C0 ; cmp al, dh ; ret ; (1 found)
0x21191: mov esp, 0x448D48C0 ; cmp byte [rax], ah ; ret ; (1 found)
0x21981: mov esp, 0x448D48C0 ; cmp byte [rax], ah ; ret ; (1 found)
0x21181: mov esp, 0x448D48C0 ; cmp byte [rax], dl ; ret ; (1 found)
0x21971: mov esp, 0x448D48C0 ; cmp byte [rax], dl ; ret ; (1 found)
0x20de0: mov esp, 0x89000000 ; retn 0x854D ; (1 found)
0x239f3: mov esp, 0xD00148D2 ; sub rax, rdi ; ret ; (1 found)
0x25408: mov esp, 0xD00148D2 ; sub rax, rdi ; ret ; (1 found)
0x2545f: mov esp, 0xD00148D2 ; sub rax, rdi ; ret ; (1 found)
0x217eb: mov esp, 0xF80148C0 ; add rax, rcx ; ret ; (1 found)
0x21171: mov esp, 0xF80148C0 ; ret ; (1 found)
0x21961: mov esp, 0xF80148C0 ; ret ; (1 found)
0x20cd3: mov esp, eax ; mov rbp, r9 ; jmp rdx ; (1 found)
0x1a9f8: mov esp, ebp ; jmp r12 ; (1 found)
0x14469: mov esp, ebp ; pop rbp ; ret ; (1 found)
0xc48f: mov esp, esp ; mov rsi, r12 ; syscall ; (1 found)
0x14a9e: mov gs, word [rax-0x7B000000] ; test byte [rdi], 0x9F ; retn 0xED31 ; (1 found)
0x19001: mov qword [0x0000000000031A10], rax ; ret ; (1 found)
0x11df6: mov qword [0x0000000000031A30], rax ; movups  [0x00000000000330E0], xmm0 ; ret ; (1 found)
0x19550: mov qword [0x0000000000031A30], rdx ; pop r12 ; ret ; (1 found)
0x148f0: mov qword [0x0000000000031AC0], 0x0000000000000800 ; pop rbx ; ret ; (1 found)
0x148df: mov qword [0x0000000000031AC0], rax ; pop rbx ; ret ; (1 found)
0x4685: mov qword [0x0000000000033168], 0x0000000000000000 ; pop rbx ; ret ; (1 found)
0xa908: mov qword [0x0000000000033188], rax ; add rsp, 0x08 ; ret ; (1 found)
0x18345: mov qword [0x0000000000033210], rax ; call rsi ; (1 found)
0x1833a: mov qword [0x0000000000033218], 0x0000000000000000 ; mov qword [0x0000000000033210], rax ; call rsi ; (1 found)
0x18290: mov qword [0x0000000000033218], 0x0000000000000000 ; mov rdi, rdx ; call rsi ; (1 found)
0x105f8: mov qword [rax+0x00000320], rdx ; ret ; (1 found)
0x105b3: mov qword [rax+0x00000328], rdx ; ret ; (1 found)
0x20d3: mov qword [rax+0x08], rdx ; ret ; (1 found)
0x4617: mov qword [rax+0x10], 0x0000000000000000 ; ret ; (1 found)
0x13847: mov qword [rax+0x40], rdx ; mov byte [rax+0x50], 0x01 ; ret ; (1 found)
0x138a7: mov qword [rax+0x48], rdx ; ret ; (1 found)
0xfb59: mov qword [rbp-0x00000088], r9 ; add rax, rsi ; call rax ; (1 found)
0x1bb5d: mov qword [rbp-0x00000090], rsi ; call r11 ; (1 found)
0x1bb56: mov qword [rbp-0x00000098], rdi ; mov qword [rbp-0x00000090], rsi ; call r11 ; (1 found)
0xf30f: mov qword [rbp-0x000000A0], r10 ; call rax ; (1 found)
0xf5e6: mov qword [rbp-0x000000A0], r11 ; call r9 ; (1 found)
0xe971: mov qword [rbp-0x000000C0], r10 ; call rax ; (1 found)
0xecb1: mov qword [rbp-0x000000C0], r11 ; call r9 ; (1 found)
0xf5df: mov qword [rbp-0x000000D0], r10 ; mov qword [rbp-0x000000A0], r11 ; call r9 ; (1 found)
0xecaa: mov qword [rbp-0x000000F8], r10 ; mov qword [rbp-0x000000C0], r11 ; call r9 ; (1 found)
0x4878: mov qword [rbp-0x38], rax ; call qword [rax] ; (1 found)
0x1b453: mov qword [rbx+0x10], rbx ; syscall ; (1 found)
0x1dca0: mov qword [rbx+0x10], rbx ; syscall ; (1 found)
0x1aae5: mov qword [rbx+0x18], rax ; pop rbx ; ret ; (1 found)
0x2281: mov qword [rbx+0x20], rax ; pop rbx ; ret ; (1 found)
0x1b450: mov qword [rbx], rbx ; mov qword [rbx+0x10], rbx ; syscall ; (1 found)
0x110bf: mov qword [rdi+0x00000478], rdx ; add rsp, 0x08 ; ret ; (1 found)
0x21dea: mov qword [rdi+0x05], rdx ; lea rax, qword [rdi+0x0C] ; ret ; (1 found)
0x21e0a: mov qword [rdi+0x06], rdx ; lea rax, qword [rdi+0x0D] ; ret ; (1 found)
0x21e2a: mov qword [rdi+0x07], rdx ; lea rax, qword [rdi+0x0E] ; ret ; (1 found)
0x21eec: mov qword [rdi+0x0E], rcx ; lea rax, qword [rdi+0x15] ; ret ; (1 found)
0x21f0c: mov qword [rdi+0x0F], rcx ; lea rax, qword [rdi+0x16] ; ret ; (1 found)
0x21f2c: mov qword [rdi+0x10], rcx ; lea rax, qword [rdi+0x17] ; ret ; (1 found)
0x20c88: mov qword [rdi+0x38], rax ; xor eax, eax ; ret ; (1 found)
0x2153b: mov qword [rdi+rdx-0x08], rcx ; ret ; (1 found)
0x21773: mov qword [rdi+rdx-0x08], rsi ; ret ; (1 found)
0x19478: mov qword [rdi], rax ; mov rax, r10 ; ret ; (1 found)
0x21d76: mov qword [rdi], rcx ; lea rax, qword [rdi+0x08] ; ret ; (1 found)
0x21d63: mov qword [rdi], rdx ; lea rax, qword [rdi+0x07] ; ret ; (1 found)
0x17f26: mov qword [rdi], rdx ; ret ; (1 found)
0x21537: mov qword [rdi], rsi ; mov qword [rdi+rdx-0x08], rcx ; ret ; (1 found)
0x21538: mov qword [rdi], rsi ; mov qword [rdi+rdx-0x08], rcx ; ret ; (1 found)
0x21770: mov qword [rdi], rsi ; mov qword [rdi+rdx-0x08], rsi ; ret ; (1 found)
0x4614: mov qword [rdx], rcx ; mov qword [rax+0x10], 0x0000000000000000 ; ret ; (1 found)
0x3940: mov qword [rsi+0x18], 0x0000000000000000 ; ret ; (1 found)
0x3938: mov qword [rsi+0x18], rdx ; ret ; (1 found)
0x113f1: mov qword [rsi], rax ; ret ; (1 found)
0x10428: mov qword [rsp+0x08], r8 ; call rax ; (1 found)
0x20940: mov r10, rcx ; mov eax, 0x00000011 ; syscall ; (1 found)
0x20dcb: mov r10d, 0x00000008 ; mov eax, 0x0000000D ; syscall ; (1 found)
0x206d0: mov r10d, ecx ; mov eax, 0x00000106 ; syscall ; (1 found)
0xf6b8: mov r11, qword [rbp-0x00000090] ; add r9, r11 ; call r9 ; (1 found)
0xc48e: mov r12, rsp ; mov rsi, r12 ; syscall ; (1 found)
0x18584: mov r8, 0x8348014B8D084889 ; ret ; (1 found)
0x185ef: mov r8, 0x8348014B8D084889 ; ret ; (1 found)
0x1712e: mov r8, qword [rsp+0x10] ; call rax ; (1 found)
0x16f2a: mov r8, qword [rsp+0x18] ; lea r9, qword [rsp+0x34] ; call rax ; (1 found)
0x1863: mov r8L, byte [0x8949000301AD15FF] ; ret ; (1 found)
0xfa5b: mov r9, qword [rbp-0x00000090] ; add r11, r9 ; call r11 ; (1 found)
0x17129: mov r9, qword [rsp+0x18] ; mov r8, qword [rsp+0x10] ; call rax ; (1 found)
0x20d20: mov rax, 0x000000000000000F ; syscall ; (1 found)
0x1507c: mov rax, 0xFFFFFFFFFFFFFFFF ; ret ; (1 found)
0x204c8: mov rax, 0xFFFFFFFFFFFFFFFF ; ret ; (1 found)
0x20788: mov rax, 0xFFFFFFFFFFFFFFFF ; ret ; (1 found)
0x20938: mov rax, 0xFFFFFFFFFFFFFFFF ; ret ; (1 found)
0x20960: mov rax, 0xFFFFFFFFFFFFFFFF ; ret ; (1 found)
0x20988: mov rax, 0xFFFFFFFFFFFFFFFF ; ret ; (1 found)
0x20a6a: mov rax, 0xFFFFFFFFFFFFFFFF ; ret ; (1 found)
0x20a80: mov rax, 0xFFFFFFFFFFFFFFFF ; ret ; (1 found)
0x113ea: mov rax, qword [0x0000000000031D48] ; mov qword [rsi], rax ; ret ; (1 found)
0x489b: mov rax, qword [rax+0x08] ; add rax, qword [r15] ; call rax ; (1 found)
0x14370: mov rax, qword [rax+0x08] ; ret ; (1 found)
0x14380: mov rax, qword [rax+0x08] ; sub rax, qword [fs:0x00000000] ; ret ; (1 found)
0x1947b: mov rax, r10 ; ret ; (1 found)
0xa5b7: mov rax, r14 ; pop r14 ; ret ; (1 found)
0x3a23: mov rax, rbx ; pop rbx ; ret ; (1 found)
0x2127: mov rax, rcx ; ret ; (1 found)
0x21d3: mov rax, rcx ; ret ; (1 found)
0x14601: mov rax, rdi ; pop rbx ; ret ; (1 found)
0x16730: mov rax, rdi ; ret ; (1 found)
0x111c0: mov rax, rdx ; ret ; (1 found)
0xabac: mov rax, rsi ; ret ; (1 found)
0xabfb: mov rax, rsi ; ret ; (1 found)
0xac20: mov rax, rsi ; ret ; (1 found)
0x193fe: mov rax, rsi ; ret ; (1 found)
0x20cd5: mov rbp, r9 ; jmp rdx ; (1 found)
0x134f5: mov rbx, qword [rbp-0x08] ; leave ; ret ; (1 found)
0x1354c: mov rbx, qword [rbp-0x08] ; leave ; ret ; (1 found)
0x12140: mov rbx, qword [rsp+0x00] ; add rsp, 0x18 ; jmp r11 ; (1 found)
0x1220e: mov rbx, qword [rsp+0x00] ; add rsp, 0x18 ; jmp r11 ; (1 found)
0x122ce: mov rbx, qword [rsp+0x00] ; add rsp, 0x18 ; jmp r11 ; (1 found)
0x1203a: mov rbx, qword [rsp+0x00] ; add rsp, 0x30 ; jmp r11 ; (1 found)
0x259e6: mov rbx, qword [rsp+0x00] ; add rsp, 0x30 ; jmp r11 ; (1 found)
0x25dee: mov rbx, qword [rsp+0x00] ; add rsp, 0x30 ; jmp r11 ; (1 found)
0x120ba: mov rbx, qword [rsp+0x00] ; add rsp, 0x30 ; ret ; (1 found)
0x25ad0: mov rbx, qword [rsp+0x00] ; add rsp, 0x30 ; ret ; (1 found)
0x25ec2: mov rbx, qword [rsp+0x00] ; add rsp, 0x30 ; ret ; (1 found)
0x1a196: mov rcx, qword [0x0000000000031B08] ; call rbx ; (1 found)
0x18255: mov rcx, qword [rsp+0x10] ; mov rdi, qword [rsp+0x18] ; call rcx ; (1 found)
0x1434a: mov rdi, qword [r12+0x00] ; call qword [r12+0x18] ; (1 found)
0x12061: mov rdi, qword [rdi+0x28] ; call r11 ; (1 found)
0x25a0d: mov rdi, qword [rdi+0x28] ; call r11 ; (1 found)
0x25e15: mov rdi, qword [rdi+0x28] ; call r11 ; (1 found)
0x1825a: mov rdi, qword [rsp+0x18] ; call rcx ; (1 found)
0x143d3: mov rdi, qword [rsp-0x08] ; ret ; (1 found)
0x1e829: mov rdi, r13 ; mov eax, 0x0000003B ; syscall ; (1 found)
0x1422d: mov rdi, r14 ; call qword [rbp+0x18] ; (1 found)
0x10f5e: mov rdi, r14 ; call rdx ; (1 found)
0x10f34: mov rdi, r14 ; sub rbx, rax ; call rdx ; (1 found)
0x142dd: mov rdi, rbp ; call rax ; (1 found)
0x16786: mov rdi, rbx ; call rax ; (1 found)
0x11ee3: mov rdi, rbx ; mov eax, 0x0000014E ; syscall ; (1 found)
0x1829b: mov rdi, rdx ; call rsi ; (1 found)
0x111b9: mov rdx, qword [0x0000000000033080] ; mov rax, rdx ; ret ; (1 found)
0x20589: mov rdx, qword [0x00000000000332C0] ; add word [rdx+rax*2], 0x0001 ; ret ; (1 found)
0x20cf: mov rdx, qword [rcx+rdx] ; mov qword [rax+0x08], rdx ; ret ; (1 found)
0x181a5: mov rdx, rcx ; pop rbp ; jmp rax ; (1 found)
0x1205d: mov rsi, qword [rdi+0x20] ; mov rdi, qword [rdi+0x28] ; call r11 ; (1 found)
0x25a09: mov rsi, qword [rdi+0x20] ; mov rdi, qword [rdi+0x28] ; call r11 ; (1 found)
0x25e11: mov rsi, qword [rdi+0x20] ; mov rdi, qword [rdi+0x28] ; call r11 ; (1 found)
0x4ab7: mov rsi, r12 ; mov edi, ebp ; call qword [rax] ; (1 found)
0x4be3: mov rsi, r12 ; mov edi, ebp ; call qword [rbx] ; (1 found)
0x4a72: mov rsi, r12 ; mov edi, ebp ; call rax ; (1 found)
0xc491: mov rsi, r12 ; syscall ; (1 found)
0x16783: mov rsi, r15 ; mov rdi, rbx ; call rax ; (1 found)
0x208c3: mov rsi, rdi ; mov edi, 0xFFFFFF9C ; syscall ; (1 found)
0x1a9f7: mov rsp, r13 ; jmp r12 ; (1 found)
0x20cd2: mov rsp, r8 ; mov rbp, r9 ; jmp rdx ; (1 found)
0x14468: mov rsp, rbp ; pop rbp ; ret ; (1 found)
0x181fc: mov seg?, si ; call qword [rax+0x18EC8148] ; (1 found)
0x18372: mov si, seg? ; jmp qword [rsi+0x2E] ; (1 found)
0x190a2: mov word [rax+0x04], dx ; ret ; (1 found)
0x21d38: mov word [rdi+0x04], dx ; lea rax, qword [rdi+0x05] ; ret ; (1 found)
0x21d8a: mov word [rdi+0x08], dx ; lea rax, qword [rdi+0x09] ; ret ; (1 found)
0x21e6c: mov word [rdi+0x10], cx ; lea rax, qword [rdi+0x11] ; ret ; (1 found)
0x21f74: mov word [rdi+0x18], cx ; lea rax, qword [rdi+0x19] ; ret ; (1 found)
0x21518: mov word [rdi+rdx-0x02], si ; mov byte [rdi], cl ; ret ; (1 found)
0x21cf3: mov word [rdi], dx ; lea rax, qword [rdi+0x01] ; ret ; (1 found)
0x21780: mov word [rdi], si ; mov byte [rdi+rdx-0x01], sil ; ret ; (1 found)
0x20382: movaps  [rbx+0x10], xmm0 ; pop rbx ; ret ; (1 found)
0x21fcd: movdqu  [rdi+0x0D], xmm2 ; lea rax, qword [rdi+0x1C] ; ret ; (1 found)
0x21fed: movdqu  [rdi+0x0E], xmm2 ; lea rax, qword [rdi+0x1D] ; ret ; (1 found)
0x2200d: movdqu  [rdi+0x0F], xmm2 ; lea rax, qword [rdi+0x1E] ; ret ; (1 found)
0x2202d: movdqu  [rdi+0x10], xmm2 ; lea rax, qword [rdi+0x1F] ; ret ; (1 found)
0x21e44: movdqu  [rdi], xmm0 ; lea rax, qword [rdi+0x0F] ; ret ; (1 found)
0x21fce: movq qword [rdi+0x0D], mm2 ; lea rax, qword [rdi+0x1C] ; ret ; (1 found)
0x21fee: movq qword [rdi+0x0E], mm2 ; lea rax, qword [rdi+0x1D] ; ret ; (1 found)
0x2200e: movq qword [rdi+0x0F], mm2 ; lea rax, qword [rdi+0x1E] ; ret ; (1 found)
0x2202e: movq qword [rdi+0x10], mm2 ; lea rax, qword [rdi+0x1F] ; ret ; (1 found)
0x21e45: movq qword [rdi], mm0 ; lea rax, qword [rdi+0x0F] ; ret ; (1 found)
0x157b6: movsd ; ret ; (1 found)
0x12c7c: movsx eax, byte [rcx] ; neg eax ; ret ; (1 found)
0x12d09: movsx eax, dl ; sub eax, r8d ; ret ; (1 found)
0x19799: movsxd eax,  [rax+rax*4] ; add rax, r8 ; jmp rax ; (1 found)
0x1befc: movsxd eax,  [rbp+rax*4+0x00] ; add rax, r13 ; jmp rax ; (1 found)
0x197cf: movsxd eax,  [rcx+rax*4] ; add rax, r9 ; jmp rax ; (1 found)
0x16391: movsxd eax,  [rcx+rax*4] ; add rax, rcx ; jmp rax ; (1 found)
0x1902f: movsxd eax,  [rcx+rax*4] ; add rax, rcx ; jmp rax ; (1 found)
0x14640: movsxd eax,  [rcx+rdi*4] ; add rax, rcx ; jmp rax ; (1 found)
0xefd5: movsxd eax,  [rdi+rbp*4] ; add rax, rdi ; jmp rax ; (1 found)
0x145dc: movsxd eax,  [rdi+rsi*4] ; add rax, rdi ; jmp rax ; (1 found)
0xe57a: movsxd eax,  [rsi+rbp*4] ; add rax, rsi ; jmp rax ; (1 found)
0x1468a: movsxd eax,  [rsi+rdx*4] ; add rax, rsi ; jmp rax ; (1 found)
0x21b9a: movsxd ecx,  [rbx+rdx*4] ; lea rcx, qword [r11+rcx] ; jmp rcx ; (1 found)
0x21bf2: movsxd ecx,  [rbx+rdx*4] ; lea rcx, qword [r11+rcx] ; jmp rcx ; (1 found)
0x21c0f: movsxd ecx,  [rbx+rdx*4] ; lea rcx, qword [r11+rcx] ; jmp rcx ; (1 found)
0x21c34: movsxd ecx,  [rbx+rdx*4] ; lea rcx, qword [r11+rcx] ; jmp rcx ; (1 found)
0x21c56: movsxd ecx,  [rbx+rdx*4] ; lea rcx, qword [r11+rcx] ; jmp rcx ; (1 found)
0x21c6c: movsxd ecx,  [rbx+rdx*4] ; lea rcx, qword [r11+rcx] ; jmp rcx ; (1 found)
0x21c98: movsxd ecx,  [rbx+rdx*4] ; lea rcx, qword [r11+rcx] ; jmp rcx ; (1 found)
0x21ccd: movsxd ecx,  [rbx+rdx*4] ; lea rcx, qword [r11+rcx] ; jmp rcx ; (1 found)
0x1c509: movsxd ecx,  [rdx+rcx*4] ; add rcx, rdx ; jmp rcx ; (1 found)
0x222e2: movsxd ecx,  [rdx+rcx*4] ; lea r10, qword [r10+r9] ; jmp r10 ; (1 found)
0x23aa2: movsxd ecx,  [rdx+rcx*4] ; lea r10, qword [r10+r9] ; jmp r10 ; (1 found)
0x222e1: movsxd r9, qword [r10+r9*4] ; lea r10, qword [r10+r9] ; jmp r10 ; (1 found)
0x23aa1: movsxd r9, qword [r10+r9*4] ; lea r10, qword [r10+r9] ; jmp r10 ; (1 found)
0x1befb: movsxd rax, qword [r13+rax*4+0x00] ; add rax, r13 ; jmp rax ; (1 found)
0x19798: movsxd rax, qword [r8+rax*4] ; add rax, r8 ; jmp rax ; (1 found)
0x197ce: movsxd rax, qword [r9+rax*4] ; add rax, r9 ; jmp rax ; (1 found)
0x16390: movsxd rax, qword [rcx+rax*4] ; add rax, rcx ; jmp rax ; (1 found)
0x1902e: movsxd rax, qword [rcx+rax*4] ; add rax, rcx ; jmp rax ; (1 found)
0x1463f: movsxd rax, qword [rcx+rdi*4] ; add rax, rcx ; jmp rax ; (1 found)
0xefd4: movsxd rax, qword [rdi+r13*4] ; add rax, rdi ; jmp rax ; (1 found)
0x145db: movsxd rax, qword [rdi+rsi*4] ; add rax, rdi ; jmp rax ; (1 found)
0xe579: movsxd rax, qword [rsi+r13*4] ; add rax, rsi ; jmp rax ; (1 found)
0x14689: movsxd rax, qword [rsi+rdx*4] ; add rax, rsi ; jmp rax ; (1 found)
0x21b99: movsxd rcx, qword [r11+rdx*4] ; lea rcx, qword [r11+rcx] ; jmp rcx ; (1 found)
0x21bf1: movsxd rcx, qword [r11+rdx*4] ; lea rcx, qword [r11+rcx] ; jmp rcx ; (1 found)
0x21c0e: movsxd rcx, qword [r11+rdx*4] ; lea rcx, qword [r11+rcx] ; jmp rcx ; (1 found)
0x21c33: movsxd rcx, qword [r11+rdx*4] ; lea rcx, qword [r11+rcx] ; jmp rcx ; (1 found)
0x21c55: movsxd rcx, qword [r11+rdx*4] ; lea rcx, qword [r11+rcx] ; jmp rcx ; (1 found)
0x21c6b: movsxd rcx, qword [r11+rdx*4] ; lea rcx, qword [r11+rcx] ; jmp rcx ; (1 found)
0x21c97: movsxd rcx, qword [r11+rdx*4] ; lea rcx, qword [r11+rcx] ; jmp rcx ; (1 found)
0x21ccc: movsxd rcx, qword [r11+rdx*4] ; lea rcx, qword [r11+rcx] ; jmp rcx ; (1 found)
0x1c507: movsxd rcx, qword [rdx+rcx*4] ; add rcx, rdx ; jmp rcx ; (1 found)
0x1c508: movsxd rcx, qword [rdx+rcx*4] ; add rcx, rdx ; jmp rcx ; (1 found)
0x11dfd: movups  [0x00000000000330E0], xmm0 ; ret ; (1 found)
0x11ead: movups  [rbx+0x000002D8], xmm0 ; syscall ; (1 found)
0x372a: movups  [rbx], xmm0 ; pop rbx ; ret ; (1 found)
0x2163d: movups  [rcx], xmm0 ; ret ; (1 found)
0x2173f: movups  [rdi+0x20], xmm0 ; movups  [rdi+0x30], xmm0 ; ret ; (1 found)
0x21743: movups  [rdi+0x30], xmm0 ; ret ; (1 found)
0x216a6: movups  [rdi+0x30], xmm7 ; movups  [rdx+rdi-0x10], xmm8 ; ret ; (1 found)
0x216e0: movups  [rdi+rdx-0x10], xmm0 ; movups  [rdi], xmm0 ; ret ; (1 found)
0x214fa: movups  [rdi+rdx-0x10], xmm1 ; ret ; (1 found)
0x21552: movups  [rdi+rdx-0x10], xmm2 ; movups  [rdi+rdx-0x20], xmm3 ; ret ; (1 found)
0x21557: movups  [rdi+rdx-0x20], xmm3 ; ret ; (1 found)
0x215a8: movups  [rdi+rdx-0x30], xmm6 ; movups  [rdi+rdx-0x40], xmm7 ; ret ; (1 found)
0x215ad: movups  [rdi+rdx-0x40], xmm7 ; ret ; (1 found)
0x216ed: movups  [rdi-0x10], xmm0 ; ret ; (1 found)
0x216e9: movups  [rdi-0x20], xmm0 ; movups  [rdi-0x10], xmm0 ; ret ; (1 found)
0x214f7: movups  [rdi], xmm0 ; movups  [rdi+rdx-0x10], xmm1 ; ret ; (1 found)
0x216e5: movups  [rdi], xmm0 ; ret ; (1 found)
0x216ab: movups  [rdx+rdi-0x10], xmm0 ; ret ; (1 found)
0x216aa: movups  [rdx+rdi-0x10], xmm8 ; ret ; (1 found)
0x2163a: movups  [rdx], xmm0 ; movups  [rcx], xmm0 ; ret ; (1 found)
0x21639: movups  [rdx], xmm8 ; movups  [rcx], xmm0 ; ret ; (1 found)
0x212df: movzx eax, byte [rdi+rax+0x10] ; sub eax, ecx ; ret ; (1 found)
0x213e8: movzx eax, byte [rdi+rax+0x10] ; sub eax, ecx ; ret ; (1 found)
0x21493: movzx eax, byte [rdi+rax+0x20] ; sub eax, ecx ; ret ; (1 found)
0x214c8: movzx eax, byte [rdi+rax+0x20] ; sub eax, ecx ; ret ; (1 found)
0x213d2: movzx eax, byte [rdi+rax+0x40] ; sub eax, ecx ; ret ; (1 found)
0x213d3: movzx eax, byte [rdi+rax+0x40] ; sub eax, ecx ; ret ; (1 found)
0x212f7: movzx eax, byte [rdi+rax] ; sub eax, ecx ; ret ; (1 found)
0x213b9: movzx eax, byte [rdi+rax] ; sub eax, ecx ; ret ; (1 found)
0x23678: movzx eax, byte [rdi+rdx] ; sub eax, ecx ; ret ; (1 found)
0x2522d: movzx eax, byte [rdi+rdx] ; sub eax, ecx ; ret ; (1 found)
0x23693: movzx eax, byte [rdi] ; sub eax, ecx ; ret ; (1 found)
0x25243: movzx eax, byte [rdi] ; sub eax, ecx ; ret ; (1 found)
0x21265: movzx ecx, byte [rsi] ; sub eax, ecx ; ret ; (1 found)
0xabf9: neg byte [rbx+0x48] ; mov eax, esi ; ret ; (1 found)
0x12c7f: neg eax ; ret ; (1 found)
0x2084b: neg eax ; ret ; (1 found)
0x2089b: neg eax ; ret ; (1 found)
0x12c2f: nop ; mov eax, 0x00000001 ; syscall ; (1 found)
0x207ae: nop ; mov eax, 0x00000003 ; syscall ; (1 found)
0x207af: nop ; mov eax, 0x00000003 ; syscall ; (1 found)
0x20bbe: nop ; mov eax, 0x0000003F ; syscall ; (1 found)
0x20bbf: nop ; mov eax, 0x0000003F ; syscall ; (1 found)
0x1436f: nop ; mov rax, qword [rax+0x08] ; ret ; (1 found)
0x207f: nop ; ret ; (1 found)
0x11d9f: nop ; xor eax, eax ; ret ; (1 found)
0x211de: nop ; xor eax, eax ; ret ; (1 found)
0x211df: nop ; xor eax, eax ; ret ; (1 found)
0x20541: nop  [rax+0x00000000] ; xor eax, eax ; ret ; (1 found)
0x20c2c: nop  [rax+0x00] ; mov eax, 0x00000027 ; syscall ; (1 found)
0x20bec: nop  [rax+0x00] ; mov eax, edx ; syscall ; (1 found)
0x20d1c: nop  [rax+0x00] ; mov rax, 0x000000000000000F ; syscall ; (1 found)
0x4e7c: nop  [rax+0x00] ; xor eax, eax ; ret ; (1 found)
0x10118: nop  [rax+rax+0x00000000] ; call rdx ; (1 found)
0x190f8: nop  [rax+rax+0x00000000] ; lea rax, qword [0x000000000002867F] ; ret ; (1 found)
0x190e8: nop  [rax+rax+0x00000000] ; lea rax, qword [0x0000000000028696] ; ret ; (1 found)
0x190b8: nop  [rax+rax+0x00000000] ; lea rax, qword [0x00000000000286A7] ; ret ; (1 found)
0x190a8: nop  [rax+rax+0x00000000] ; lea rax, qword [0x00000000000286C1] ; ret ; (1 found)
0x190c8: nop  [rax+rax+0x00000000] ; lea rax, qword [0x00000000000286D9] ; ret ; (1 found)
0x190d8: nop  [rax+rax+0x00000000] ; lea rax, qword [0x00000000000286EC] ; ret ; (1 found)
0x16577: nop  [rax+rax+0x00000000] ; lea rax, qword [0x0000000000031B10] ; ret ; (1 found)
0x16578: nop  [rax+rax+0x00000000] ; lea rax, qword [0x0000000000031B10] ; ret ; (1 found)
0x20648: nop  [rax+rax+0x00000000] ; mov eax,  [0x0000000000031AE0] ; ret ; (1 found)
0x20968: nop  [rax+rax+0x00000000] ; mov eax, 0x00000001 ; syscall ; (1 found)
0x20767: nop  [rax+rax+0x00000000] ; mov eax, 0x00000008 ; syscall ; (1 found)
0x20768: nop  [rax+rax+0x00000000] ; mov eax, 0x00000008 ; syscall ; (1 found)
0x20a88: nop  [rax+rax+0x00000000] ; mov eax, 0x0000000B ; syscall ; (1 found)
0x165c8: nop  [rax+rax+0x00000000] ; mov esi, r12d ; call rax ; (1 found)
0x2076: nop  [rax+rax+0x00000000] ; nop ; ret ; (1 found)
0x2077: nop  [rax+rax+0x00000000] ; nop ; ret ; (1 found)
0x5908: nop  [rax+rax+0x00000000] ; ret ; (1 found)
0x138c8: nop  [rax+rax+0x00000000] ; ret ; (1 found)
0x1a1d8: nop  [rax+rax+0x00000000] ; ret ; (1 found)
0x20917: nop  [rax+rax+0x00000000] ; xor eax, eax ; syscall ; (1 found)
0x20918: nop  [rax+rax+0x00000000] ; xor eax, eax ; syscall ; (1 found)
0x2567b: nop  [rax+rax+0x00] ; mov eax, 0x00000026 ; syscall ; (1 found)
0x4873: nop  [rax+rax+0x00] ; mov qword [rbp-0x38], rax ; call qword [rax] ; (1 found)
0x10423: nop  [rax+rax+0x00] ; mov qword [rsp+0x08], r8 ; call rax ; (1 found)
0x31c3: nop  [rax+rax+0x00] ; ret ; (1 found)
0x14033: nop  [rax+rax+0x00] ; ret ; (1 found)
0x16b1b: nop  [rax+rax+0x00] ; ret ; (1 found)
0x1700b: nop  [rax+rax+0x00] ; ret ; (1 found)
0x17f2b: nop  [rax+rax+0x00] ; ret ; (1 found)
0x20b6b: nop  [rax+rax+0x00] ; ret ; (1 found)
0x25ecb: nop  [rax+rax+0x00] ; ret ; (1 found)
0x256cb: nop  [rax+rax+0x00] ; xor eax, eax ; ret ; (1 found)
0x1115: nop  [rax] ; call qword [rbx] ; (1 found)
0x19255: nop  [rax] ; call rax ; (1 found)
0x166c5: nop  [rax] ; mov edx, r12d ; call rcx ; (1 found)
0x393d: nop  [rax] ; mov qword [rsi+0x18], 0x0000000000000000 ; ret ; (1 found)
0x10ad: nop  [rax] ; ret ; (1 found)
0xda1d: nop  [rax] ; ret ; (1 found)
0x20b15: nop  [rax] ; ret ; (1 found)
0x10117: nop word [rax+rax+0x00000000] ; call rdx ; (1 found)
0x190a7: nop word [rax+rax+0x00000000] ; lea rax, qword [0x00000000000286C1] ; ret ; (1 found)
0x16575: nop word [rax+rax+0x00000000] ; lea rax, qword [0x0000000000031B10] ; ret ; (1 found)
0x16576: nop word [rax+rax+0x00000000] ; lea rax, qword [0x0000000000031B10] ; ret ; (1 found)
0x20647: nop word [rax+rax+0x00000000] ; mov eax,  [0x0000000000031AE0] ; ret ; (1 found)
0x20766: nop word [rax+rax+0x00000000] ; mov eax, 0x00000008 ; syscall ; (1 found)
0x165c7: nop word [rax+rax+0x00000000] ; mov esi, r12d ; call rax ; (1 found)
0x2075: nop word [rax+rax+0x00000000] ; nop ; ret ; (1 found)
0x5907: nop word [rax+rax+0x00000000] ; ret ; (1 found)
0x1a1d7: nop word [rax+rax+0x00000000] ; ret ; (1 found)
0x20916: nop word [rax+rax+0x00000000] ; xor eax, eax ; syscall ; (1 found)
0x2567a: nop word [rax+rax+0x00] ; mov eax, 0x00000026 ; syscall ; (1 found)
0x4872: nop word [rax+rax+0x00] ; mov qword [rbp-0x38], rax ; call qword [rax] ; (1 found)
0x31c2: nop word [rax+rax+0x00] ; ret ; (1 found)
0x14032: nop word [rax+rax+0x00] ; ret ; (1 found)
0x1700a: nop word [rax+rax+0x00] ; ret ; (1 found)
0x17f2a: nop word [rax+rax+0x00] ; ret ; (1 found)
0x20b6a: nop word [rax+rax+0x00] ; ret ; (1 found)
0x256ca: nop word [rax+rax+0x00] ; xor eax, eax ; ret ; (1 found)
0x1be96: or  [rax+0x0F], ecx ; retn 0xDB31 ; (1 found)
0x20a4d: or  [rax], eax ; add byte [rax], al ; syscall ; (1 found)
0x1147e: or  [rbx+0x5D], ebx ; pop r12 ; ret ; (1 found)
0x43f2: or  [rcx-0x75], ecx ; sbb byte [r8+0x39], cl ; ret ; (1 found)
0x1f9f1: or al, 0x00 ; add byte [rax], al ; syscall ; (1 found)
0x21b9f: or al, 0x0B ; jmp rcx ; (1 found)
0x21bf7: or al, 0x0B ; jmp rcx ; (1 found)
0x21c14: or al, 0x0B ; jmp rcx ; (1 found)
0x21c39: or al, 0x0B ; jmp rcx ; (1 found)
0x21c5b: or al, 0x0B ; jmp rcx ; (1 found)
0x21c71: or al, 0x0B ; jmp rcx ; (1 found)
0x21c9d: or al, 0x0B ; jmp rcx ; (1 found)
0x21cd2: or al, 0x0B ; jmp rcx ; (1 found)
0x16a86: or al, 0x33 ; mov esi,  [rsp+0x14] ; call rax ; (1 found)
0x16c67: or al, 0x33 ; mov esi,  [rsp+0x18] ; call rax ; (1 found)
0x1453b: or al, 0x83 ; retn 0x8101 ; (1 found)
0x12592: or al, 0x85 ; sal byte [rax+rbx*2+0x48], 0x01 ; ret ; (1 found)
0x12593: or al, 0x85 ; sal byte [rax+rbx*2+0x48], 0x01 ; ret ; (1 found)
0x1f290: or al, 0x85 ; sal byte [rdi+rbx+0x49], 0x01 ; retn 0x82E9 ; (1 found)
0x1f291: or al, 0x85 ; sal byte [rdi+rbx+0x49], 0x01 ; retn 0x82E9 ; (1 found)
0x1c50a: or al, 0x8A ; add rcx, rdx ; jmp rcx ; (1 found)
0x222e3: or al, 0x8A ; lea r10, qword [r10+r9] ; jmp r10 ; (1 found)
0x23aa3: or al, 0x8A ; lea r10, qword [r10+r9] ; jmp r10 ; (1 found)
0x21b9b: or al, 0x93 ; lea rcx, qword [r11+rcx] ; jmp rcx ; (1 found)
0x21bf3: or al, 0x93 ; lea rcx, qword [r11+rcx] ; jmp rcx ; (1 found)
0x21c10: or al, 0x93 ; lea rcx, qword [r11+rcx] ; jmp rcx ; (1 found)
0x21c35: or al, 0x93 ; lea rcx, qword [r11+rcx] ; jmp rcx ; (1 found)
0x21c57: or al, 0x93 ; lea rcx, qword [r11+rcx] ; jmp rcx ; (1 found)
0x21c6d: or al, 0x93 ; lea rcx, qword [r11+rcx] ; jmp rcx ; (1 found)
0x21c99: or al, 0x93 ; lea rcx, qword [r11+rcx] ; jmp rcx ; (1 found)
0x21cce: or al, 0x93 ; lea rcx, qword [r11+rcx] ; jmp rcx ; (1 found)
0x20ab1: or al, byte [rax] ; add byte [rax], al ; syscall ; (1 found)
0x10f9b: or al, byte [rdx] ; add byte [rax-0x77], cl ; ret ; (1 found)
0x10fde: or al, byte [rdx] ; add byte [rax-0x77], cl ; ret ; (1 found)
0x11a48: or byte [r11+0x48], bl ; add eax, ecx ; ret ; (1 found)
0x1aa3c: or byte [r8+0x5A], bl ; pop rbx ; ret ; (1 found)
0x5942: or byte [r8-0x7B], cl ; sal byte [rdi+0x48], 0x89 ; ret ; (1 found)
0x1b9f2: or byte [r9-0x75], r9L ; add byte [r8-0x77], r9L ; retn 0xC148 ; (1 found)
0xebfc: or byte [rax+0x29], cl ; retn 0x8D48 ; (1 found)
0x1104e: or byte [rax+0x39], cl ; ret ; (1 found)
0x9ec9: or byte [rax+0x39], cl ; retn 0xED75 ; (1 found)
0x1aa3d: or byte [rax+0x5A], bl ; pop rbx ; ret ; (1 found)
0x7211: or byte [rax+rax], al ; add dh, dh ; retn 0x7402 ; (1 found)
0x1cb22: or byte [rax+rax], al ; add dh, dh ; retn 0x7402 ; (1 found)
0x18581: or byte [rax-0x75], cl ; mov r8, 0x8348014B8D084889 ; ret ; (1 found)
0x185ec: or byte [rax-0x75], cl ; mov r8, 0x8348014B8D084889 ; ret ; (1 found)
0xa973: or byte [rax-0x77], cl ; fcomp  [rbx+0x5D] ; ret ; (1 found)
0x1b46c: or byte [rax-0x77], cl ; fcomp  [rbx+0x5D] ; ret ; (1 found)
0x1b495: or byte [rax-0x77], cl ; fcomp  [rbx+0x5D] ; ret ; (1 found)
0x142d4: or byte [rax-0x77], cl ; ret ; (1 found)
0x61e7: or byte [rax-0x77], cl ; retn 0x014C ; (1 found)
0x1bdeb: or byte [rax-0x77], cl ; retn 0x2FBE ; (1 found)
0x5943: or byte [rax-0x7B], cl ; sal byte [rdi+0x48], 0x89 ; ret ; (1 found)
0x140c: or byte [rax-0x7D], cl ; retn 0x4808 ; (1 found)
0x140d: or byte [rax-0x7D], cl ; retn 0x4808 ; (1 found)
0x17f02: or byte [rax-0x7D], cl ; retn 0x4808 ; (1 found)
0x17f03: or byte [rax-0x7D], cl ; retn 0x4808 ; (1 found)
0x2338: or byte [rax-0x7D], cl ; retn 0x4818 ; (1 found)
0x9880: or byte [rax-0x7D], cl ; retn 0x4901 ; (1 found)
0x183fb: or byte [rax-0x7D], cl ; retn 0x4910 ; (1 found)
0x183fc: or byte [rax-0x7D], cl ; retn 0x4910 ; (1 found)
0x20771: or byte [rax], al ; add byte [rax], al ; syscall ; (1 found)
0x113a: or byte [rbp+0x41], bl ; pop rsp ; jmp rax ; (1 found)
0x113b: or byte [rbp+0x41], bl ; pop rsp ; jmp rax ; (1 found)
0xe4dc: or byte [rbp+0x450F4DF6], al ; retn 0x894C ; (1 found)
0x18587: or byte [rbp-0x7CB7FEB5], cl ; ret ; (1 found)
0x18588: or byte [rbp-0x7CB7FEB5], cl ; ret ; (1 found)
0x185f2: or byte [rbp-0x7CB7FEB5], cl ; ret ; (1 found)
0x185f3: or byte [rbp-0x7CB7FEB5], cl ; ret ; (1 found)
0x11a49: or byte [rbx+0x48], bl ; add eax, ecx ; ret ; (1 found)
0x3f39: or byte [rbx+0x5D], bl ; ret ; (1 found)
0xa7d4: or byte [rbx+0x5D], bl ; ret ; (1 found)
0x104a0: or byte [rbx+0x5D], bl ; ret ; (1 found)
0x10d69: or byte [rbx+0x5D], bl ; ret ; (1 found)
0x1835f: or byte [rbx+0x5D], bl ; ret ; (1 found)
0x18e93: or byte [rbx+0x5D], bl ; ret ; (1 found)
0x1b53c: or byte [rbx+0x5D], bl ; ret ; (1 found)
0x20153: or byte [rbx+0x5D], bl ; ret ; (1 found)
0x1cb1f: or byte [rcx+0x00040897], cl ; add dh, dh ; retn 0x7402 ; (1 found)
0x1bfb6: or byte [rcx+rcx*4+0x3D], al ; retn 0x015A ; (1 found)
0x1b88b: or byte [rcx-0x007F], cl ; ret ; (1 found)
0x1b9f3: or byte [rcx-0x75], cl ; add byte [r8-0x77], r9L ; retn 0xC148 ; (1 found)
0x16011: or byte [rcx-0x77], cl ; ret ; (1 found)
0x105e2: or cl, byte [rax-0x7D] ; retn 0x4808 ; (1 found)
0xe54c: or cl, byte [rdi] ; xchg eax, esp ; retn 0x8566 ; (1 found)
0xebb2: or cl, byte [rdi] ; xchg eax, esp ; retn 0x8566 ; (1 found)
0xefa7: or cl, byte [rdi] ; xchg eax, esp ; retn 0x8566 ; (1 found)
0x18c7e: or cl, ch ; ret ; (1 found)
0x190b3: or dh, dh ; add byte [rax], al ; ret ; (1 found)
0x20a91: or eax,  [rax] ; add byte [rax], al ; syscall ; (1 found)
0x10ecb: or eax,  [rdx] ; add byte [rax-0x77], cl ; ret ; (1 found)
0x1a198: or eax, 0x0001796B ; call rbx ; (1 found)
0x2122: or eax, 0x00030FF1 ; mov rax, rcx ; ret ; (1 found)
0x2127b: or eax, 0x01 ; ret ; (1 found)
0x1402a: or eax, 0x017C8D48 ; jmp rdx ; (1 found)
0x21fd1: or eax, 0x1C478D48 ; ret ; (1 found)
0x254b2: or eax, 0x48C0BC0F ; lea eax,  [rdi+rax] ; ret ; (1 found)
0x20c6e: or eax, 0xC1480001 ; retn 0x4811 ; (1 found)
0x20aac: or eax, 0xFFFFFFFF ; ret ; (1 found)
0x20acc: or eax, 0xFFFFFFFF ; ret ; (1 found)
0x20bdc: or eax, 0xFFFFFFFF ; ret ; (1 found)
0x21299: or eax, edi ; sub eax, ecx ; ret ; (1 found)
0x1706: or ecx,  [rax+0x39] ; retn 0x0974 ; (1 found)
0x1b293: or ecx,  [rax-0x7D] ; ret ; (1 found)
0x20aab: or rax, 0xFFFFFFFFFFFFFFFF ; ret ; (1 found)
0x20acb: or rax, 0xFFFFFFFFFFFFFFFF ; ret ; (1 found)
0x20bdb: or rax, 0xFFFFFFFFFFFFFFFF ; ret ; (1 found)
0x10eca: or rax, qword [rdx] ; add byte [rax-0x77], cl ; ret ; (1 found)
0x339f: out 0x02, al ; add byte [rax-0x77], cl ; ret ; (1 found)
0x3218: out 0x02, eax ; add byte [rax-0x77], cl ; ret ; (1 found)
0x14349: out 0x49, al ; mov edi,  [rsp+0x00] ; call qword [r12+0x18] ; (1 found)
0x4ab9: out 0x89, al ; out dx, eax ; call qword [rax] ; (1 found)
0x4be5: out 0x89, al ; out dx, eax ; call qword [rbx] ; (1 found)
0x4a74: out 0x89, al ; out dx, eax ; call rax ; (1 found)
0x1d288: out 0xE8, eax ; retn 0xFF32 ; (1 found)
0x1bb19: out 0xFF, al ; dec  [rax-0x77] ; ret ; (1 found)
0x1bfb1: out dx, eax ; add  [rax-0x7D], ecx ; ret ; (1 found)
0x1c36f: out dx, eax ; add  [rax-0x7D], ecx ; ret ; (1 found)
0x1eed0: out dx, eax ; add  [rax-0x7D], ecx ; ret ; (1 found)
0x1f452: out dx, eax ; add  [rax-0x7D], ecx ; ret ; (1 found)
0x1c3a3: out dx, eax ; add cl, byte [rax-0x7D] ; ret ; (1 found)
0x1c3e4: out dx, eax ; add cl, byte [rax-0x7D] ; ret ; (1 found)
0x1e382: out dx, eax ; add cl, byte [rax-0x7D] ; ret ; (1 found)
0x1e694: out dx, eax ; add cl, byte [rax-0x7D] ; ret ; (1 found)
0x1e70b: out dx, eax ; add cl, byte [rax-0x7D] ; ret ; (1 found)
0x1e763: out dx, eax ; add cl, byte [rax-0x7D] ; ret ; (1 found)
0x4abb: out dx, eax ; call qword [rax] ; (1 found)
0x4be7: out dx, eax ; call qword [rbx] ; (1 found)
0x4a76: out dx, eax ; call rax ; (1 found)
0x142df: out dx, eax ; call rax ; (1 found)
0x1e82b: out dx, eax ; mov eax, 0x0000003B ; syscall ; (1 found)
0xdf37: outsb ; retn 0x8D4C ; (1 found)
0x3d05: outsb ; retn 0xC748 ; (1 found)
0x22438: outsd ; fmul qword [rcx-0x7D] ; retn 0x7F10 ; (1 found)
0x22578: outsd ; fmul qword [rcx-0x7D] ; retn 0x7F10 ; (1 found)
0x226b8: outsd ; fmul qword [rcx-0x7D] ; retn 0x7F10 ; (1 found)
0x227f8: outsd ; fmul qword [rcx-0x7D] ; retn 0x7F10 ; (1 found)
0x22938: outsd ; fmul qword [rcx-0x7D] ; retn 0x7F10 ; (1 found)
0x22a78: outsd ; fmul qword [rcx-0x7D] ; retn 0x7F10 ; (1 found)
0x22bb8: outsd ; fmul qword [rcx-0x7D] ; retn 0x7F10 ; (1 found)
0x22cf8: outsd ; fmul qword [rcx-0x7D] ; retn 0x7F10 ; (1 found)
0x22e38: outsd ; fmul qword [rcx-0x7D] ; retn 0x7F10 ; (1 found)
0x22f78: outsd ; fmul qword [rcx-0x7D] ; retn 0x7F10 ; (1 found)
0x230b8: outsd ; fmul qword [rcx-0x7D] ; retn 0x7F10 ; (1 found)
0x231f8: outsd ; fmul qword [rcx-0x7D] ; retn 0x7F10 ; (1 found)
0x23338: outsd ; fmul qword [rcx-0x7D] ; retn 0x7F10 ; (1 found)
0x23478: outsd ; fmul qword [rcx-0x7D] ; retn 0x7F10 ; (1 found)
0x235b8: outsd ; fmul qword [rcx-0x7D] ; retn 0x7F10 ; (1 found)
0x23c52: outsd ; fmul qword [rcx-0x7D] ; retn 0x7F10 ; (1 found)
0x23dd2: outsd ; fmul qword [rcx-0x7D] ; retn 0x7F10 ; (1 found)
0x23f52: outsd ; fmul qword [rcx-0x7D] ; retn 0x7F10 ; (1 found)
0x240d2: outsd ; fmul qword [rcx-0x7D] ; retn 0x7F10 ; (1 found)
0x24252: outsd ; fmul qword [rcx-0x7D] ; retn 0x7F10 ; (1 found)
0x243d2: outsd ; fmul qword [rcx-0x7D] ; retn 0x7F10 ; (1 found)
0x24552: outsd ; fmul qword [rcx-0x7D] ; retn 0x7F10 ; (1 found)
0x246d2: outsd ; fmul qword [rcx-0x7D] ; retn 0x7F10 ; (1 found)
0x24852: outsd ; fmul qword [rcx-0x7D] ; retn 0x7F10 ; (1 found)
0x249d2: outsd ; fmul qword [rcx-0x7D] ; retn 0x7F10 ; (1 found)
0x24b52: outsd ; fmul qword [rcx-0x7D] ; retn 0x7F10 ; (1 found)
0x24cd2: outsd ; fmul qword [rcx-0x7D] ; retn 0x7F10 ; (1 found)
0x24e52: outsd ; fmul qword [rcx-0x7D] ; retn 0x7F10 ; (1 found)
0x24fd2: outsd ; fmul qword [rcx-0x7D] ; retn 0x7F10 ; (1 found)
0x25152: outsd ; fmul qword [rcx-0x7D] ; retn 0x7F10 ; (1 found)
0x190a1: outsd ; mov word [rax+0x04], dx ; ret ; (1 found)
0x1148d: pop qword [0x00000000315C1495] ; rcr byte [rbp+0x41], 0x5C ; ret ; (1 found)
0x113d: pop r12 ; jmp rax ; (1 found)
0x4c9e: pop r12 ; pop r13 ; ret ; (1 found)
0x4cfd: pop r12 ; pop r13 ; ret ; (1 found)
0x5961: pop r12 ; pop r13 ; ret ; (1 found)
0x59bd: pop r12 ; pop r13 ; ret ; (1 found)
0x5d00: pop r12 ; pop r13 ; ret ; (1 found)
0xa9e6: pop r12 ; pop r13 ; ret ; (1 found)
0xb2d9: pop r12 ; pop r13 ; ret ; (1 found)
0xb5b2: pop r12 ; pop r13 ; ret ; (1 found)
0xb5cf: pop r12 ; pop r13 ; ret ; (1 found)
0xc573: pop r12 ; pop r13 ; ret ; (1 found)
0x1003a: pop r12 ; pop r13 ; ret ; (1 found)
0x10684: pop r12 ; pop r13 ; ret ; (1 found)
0x10cfb: pop r12 ; pop r13 ; ret ; (1 found)
0x117f6: pop r12 ; pop r13 ; ret ; (1 found)
0x11b64: pop r12 ; pop r13 ; ret ; (1 found)
0x11b92: pop r12 ; pop r13 ; ret ; (1 found)
0x12c1b: pop r12 ; pop r13 ; ret ; (1 found)
0x12c2a: pop r12 ; pop r13 ; ret ; (1 found)
0x1841b: pop r12 ; pop r13 ; ret ; (1 found)
0x18f50: pop r12 ; pop r13 ; ret ; (1 found)
0x18f60: pop r12 ; pop r13 ; ret ; (1 found)
0x1a436: pop r12 ; pop r13 ; ret ; (1 found)
0x114a: pop r12 ; ret ; (1 found)
0x58ee: pop r12 ; ret ; (1 found)
0x11088: pop r12 ; ret ; (1 found)
0x11481: pop r12 ; ret ; (1 found)
0x11495: pop r12 ; ret ; (1 found)
0x14362: pop r12 ; ret ; (1 found)
0x14df7: pop r12 ; ret ; (1 found)
0x1830e: pop r12 ; ret ; (1 found)
0x1922f: pop r12 ; ret ; (1 found)
0x19557: pop r12 ; ret ; (1 found)
0x19577: pop r12 ; ret ; (1 found)
0x19707: pop r12 ; ret ; (1 found)
0x1ac37: pop r12 ; ret ; (1 found)
0x1affc: pop r12 ; ret ; (1 found)
0x1b01c: pop r12 ; ret ; (1 found)
0x20279: pop r12 ; ret ; (1 found)
0x2040d: pop r12 ; ret ; (1 found)
0x209e8: pop r12 ; ret ; (1 found)
0x20a23: pop r12 ; ret ; (1 found)
0x3b87: pop r13 ; pop r14 ; ret ; (1 found)
0x4aca: pop r13 ; pop r14 ; ret ; (1 found)
0x5a30: pop r13 ; pop r14 ; ret ; (1 found)
0x5aa8: pop r13 ; pop r14 ; ret ; (1 found)
0x8d22: pop r13 ; pop r14 ; ret ; (1 found)
0xa5d6: pop r13 ; pop r14 ; ret ; (1 found)
0x10fce: pop r13 ; pop r14 ; ret ; (1 found)
0x11d31: pop r13 ; pop r14 ; ret ; (1 found)
0x16896: pop r13 ; pop r14 ; ret ; (1 found)
0x1692e: pop r13 ; pop r14 ; ret ; (1 found)
0x1935c: pop r13 ; pop r14 ; ret ; (1 found)
0x1a2e0: pop r13 ; pop r14 ; ret ; (1 found)
0x1b325: pop r13 ; pop r14 ; ret ; (1 found)
0x4ca0: pop r13 ; ret ; (1 found)
0x4cff: pop r13 ; ret ; (1 found)
0x5963: pop r13 ; ret ; (1 found)
0x59bf: pop r13 ; ret ; (1 found)
0x5d02: pop r13 ; ret ; (1 found)
0xa9e8: pop r13 ; ret ; (1 found)
0xb2db: pop r13 ; ret ; (1 found)
0xb5b4: pop r13 ; ret ; (1 found)
0xb5d1: pop r13 ; ret ; (1 found)
0xc575: pop r13 ; ret ; (1 found)
0x1003c: pop r13 ; ret ; (1 found)
0x10686: pop r13 ; ret ; (1 found)
0x10cfd: pop r13 ; ret ; (1 found)
0x117f8: pop r13 ; ret ; (1 found)
0x11b66: pop r13 ; ret ; (1 found)
0x11b94: pop r13 ; ret ; (1 found)
0x12c1d: pop r13 ; ret ; (1 found)
0x12c2c: pop r13 ; ret ; (1 found)
0x1841d: pop r13 ; ret ; (1 found)
0x18f52: pop r13 ; ret ; (1 found)
0x18f62: pop r13 ; ret ; (1 found)
0x1a438: pop r13 ; ret ; (1 found)
0x326c: pop r14 ; pop r15 ; ret ; (1 found)
0x34b3: pop r14 ; pop r15 ; ret ; (1 found)
0x36d6: pop r14 ; pop r15 ; ret ; (1 found)
0x446e: pop r14 ; pop r15 ; ret ; (1 found)
0x4bb4: pop r14 ; pop r15 ; ret ; (1 found)
0x5b39: pop r14 ; pop r15 ; ret ; (1 found)
0x5fa5: pop r14 ; pop r15 ; ret ; (1 found)
0x6016: pop r14 ; pop r15 ; ret ; (1 found)
0x60bf: pop r14 ; pop r15 ; ret ; (1 found)
0x8062: pop r14 ; pop r15 ; ret ; (1 found)
0x8b4b: pop r14 ; pop r15 ; ret ; (1 found)
0x91df: pop r14 ; pop r15 ; ret ; (1 found)
0x9bbc: pop r14 ; pop r15 ; ret ; (1 found)
0xa68b: pop r14 ; pop r15 ; ret ; (1 found)
0xaf9a: pop r14 ; pop r15 ; ret ; (1 found)
0xb1fe: pop r14 ; pop r15 ; ret ; (1 found)
0xb514: pop r14 ; pop r15 ; ret ; (1 found)
0xb707: pop r14 ; pop r15 ; ret ; (1 found)
0xbe51: pop r14 ; pop r15 ; ret ; (1 found)
0x1034d: pop r14 ; pop r15 ; ret ; (1 found)
0x10e34: pop r14 ; pop r15 ; ret ; (1 found)
0x11375: pop r14 ; pop r15 ; ret ; (1 found)
0x11634: pop r14 ; pop r15 ; ret ; (1 found)
0x119be: pop r14 ; pop r15 ; ret ; (1 found)
0x12990: pop r14 ; pop r15 ; ret ; (1 found)
0x12fbf: pop r14 ; pop r15 ; ret ; (1 found)
0x13993: pop r14 ; pop r15 ; ret ; (1 found)
0x13f7b: pop r14 ; pop r15 ; ret ; (1 found)
0x14187: pop r14 ; pop r15 ; ret ; (1 found)
0x149ce: pop r14 ; pop r15 ; ret ; (1 found)
0x1504d: pop r14 ; pop r15 ; ret ; (1 found)
0x15077: pop r14 ; pop r15 ; ret ; (1 found)
0x15292: pop r14 ; pop r15 ; ret ; (1 found)
0x15a6b: pop r14 ; pop r15 ; ret ; (1 found)
0x16622: pop r14 ; pop r15 ; ret ; (1 found)
0x1672b: pop r14 ; pop r15 ; ret ; (1 found)
0x1680a: pop r14 ; pop r15 ; ret ; (1 found)
0x16ac3: pop r14 ; pop r15 ; ret ; (1 found)
0x16d3e: pop r14 ; pop r15 ; ret ; (1 found)
0x16d59: pop r14 ; pop r15 ; ret ; (1 found)
0x16fc9: pop r14 ; pop r15 ; ret ; (1 found)
0x17150: pop r14 ; pop r15 ; ret ; (1 found)
0x1bdc3: pop r14 ; pop r15 ; ret ; (1 found)
0x1fdc2: pop r14 ; pop r15 ; ret ; (1 found)
0x3b89: pop r14 ; ret ; (1 found)
0x4acc: pop r14 ; ret ; (1 found)
0x5a32: pop r14 ; ret ; (1 found)
0x5aaa: pop r14 ; ret ; (1 found)
0x8d24: pop r14 ; ret ; (1 found)
0xa5ba: pop r14 ; ret ; (1 found)
0xa5d8: pop r14 ; ret ; (1 found)
0x10fd0: pop r14 ; ret ; (1 found)
0x11d33: pop r14 ; ret ; (1 found)
0x16898: pop r14 ; ret ; (1 found)
0x16930: pop r14 ; ret ; (1 found)
0x1935e: pop r14 ; ret ; (1 found)
0x1a2e2: pop r14 ; ret ; (1 found)
0x1b327: pop r14 ; ret ; (1 found)
0x146b: pop r15 ; pop rbp ; ret ; (1 found)
0x2c89: pop r15 ; pop rbp ; ret ; (1 found)
0x4956: pop r15 ; pop rbp ; ret ; (1 found)
0x4dfe: pop r15 ; pop rbp ; ret ; (1 found)
0x5044: pop r15 ; pop rbp ; ret ; (1 found)
0x542a: pop r15 ; pop rbp ; ret ; (1 found)
0x645a: pop r15 ; pop rbp ; ret ; (1 found)
0x6519: pop r15 ; pop rbp ; ret ; (1 found)
0x6dff: pop r15 ; pop rbp ; ret ; (1 found)
0xc71a: pop r15 ; pop rbp ; ret ; (1 found)
0xd444: pop r15 ; pop rbp ; ret ; (1 found)
0xd48a: pop r15 ; pop rbp ; ret ; (1 found)
0xd613: pop r15 ; pop rbp ; ret ; (1 found)
0xe141: pop r15 ; pop rbp ; ret ; (1 found)
0xeda3: pop r15 ; pop rbp ; ret ; (1 found)
0x10997: pop r15 ; pop rbp ; ret ; (1 found)
0x18c09: pop r15 ; pop rbp ; ret ; (1 found)
0x1b139: pop r15 ; pop rbp ; ret ; (1 found)
0x1b226: pop r15 ; pop rbp ; ret ; (1 found)
0x1bb3d: pop r15 ; pop rbp ; ret ; (1 found)
0x1dd50: pop r15 ; pop rbp ; ret ; (1 found)
0x326e: pop r15 ; ret ; (1 found)
0x34b5: pop r15 ; ret ; (1 found)
0x36d8: pop r15 ; ret ; (1 found)
0x4470: pop r15 ; ret ; (1 found)
0x4bb6: pop r15 ; ret ; (1 found)
0x5b3b: pop r15 ; ret ; (1 found)
0x5fa7: pop r15 ; ret ; (1 found)
0x6018: pop r15 ; ret ; (1 found)
0x60c1: pop r15 ; ret ; (1 found)
0x8064: pop r15 ; ret ; (1 found)
0x8b4d: pop r15 ; ret ; (1 found)
0x91e1: pop r15 ; ret ; (1 found)
0x9bbe: pop r15 ; ret ; (1 found)
0xa68d: pop r15 ; ret ; (1 found)
0xaf9c: pop r15 ; ret ; (1 found)
0xb200: pop r15 ; ret ; (1 found)
0xb516: pop r15 ; ret ; (1 found)
0xb709: pop r15 ; ret ; (1 found)
0xbe53: pop r15 ; ret ; (1 found)
0x1034f: pop r15 ; ret ; (1 found)
0x10e36: pop r15 ; ret ; (1 found)
0x11377: pop r15 ; ret ; (1 found)
0x11636: pop r15 ; ret ; (1 found)
0x119c0: pop r15 ; ret ; (1 found)
0x12992: pop r15 ; ret ; (1 found)
0x12fc1: pop r15 ; ret ; (1 found)
0x13995: pop r15 ; ret ; (1 found)
0x13f7d: pop r15 ; ret ; (1 found)
0x14189: pop r15 ; ret ; (1 found)
0x149d0: pop r15 ; ret ; (1 found)
0x1504f: pop r15 ; ret ; (1 found)
0x15079: pop r15 ; ret ; (1 found)
0x15294: pop r15 ; ret ; (1 found)
0x15a6d: pop r15 ; ret ; (1 found)
0x16624: pop r15 ; ret ; (1 found)
0x1672d: pop r15 ; ret ; (1 found)
0x1680c: pop r15 ; ret ; (1 found)
0x16ac5: pop r15 ; ret ; (1 found)
0x16d40: pop r15 ; ret ; (1 found)
0x16d5b: pop r15 ; ret ; (1 found)
0x16fcb: pop r15 ; ret ; (1 found)
0x17152: pop r15 ; ret ; (1 found)
0x1bdc5: pop r15 ; ret ; (1 found)
0x1fdc4: pop r15 ; ret ; (1 found)
0x18131: pop rbp ; jmp rax ; (1 found)
0x181a8: pop rbp ; jmp rax ; (1 found)
0x10aa: pop rbp ; jmp rdx ; (1 found)
0x113c: pop rbp ; pop r12 ; jmp rax ; (1 found)
0x1149: pop rbp ; pop r12 ; ret ; (1 found)
0x58ed: pop rbp ; pop r12 ; ret ; (1 found)
0x11087: pop rbp ; pop r12 ; ret ; (1 found)
0x11480: pop rbp ; pop r12 ; ret ; (1 found)
0x11494: pop rbp ; pop r12 ; ret ; (1 found)
0x14361: pop rbp ; pop r12 ; ret ; (1 found)
0x14df6: pop rbp ; pop r12 ; ret ; (1 found)
0x1830d: pop rbp ; pop r12 ; ret ; (1 found)
0x1922e: pop rbp ; pop r12 ; ret ; (1 found)
0x19576: pop rbp ; pop r12 ; ret ; (1 found)
0x19706: pop rbp ; pop r12 ; ret ; (1 found)
0x1ac36: pop rbp ; pop r12 ; ret ; (1 found)
0x1affb: pop rbp ; pop r12 ; ret ; (1 found)
0x1b01b: pop rbp ; pop r12 ; ret ; (1 found)
0x20278: pop rbp ; pop r12 ; ret ; (1 found)
0x2040c: pop rbp ; pop r12 ; ret ; (1 found)
0x209e7: pop rbp ; pop r12 ; ret ; (1 found)
0x20a22: pop rbp ; pop r12 ; ret ; (1 found)
0x3b88: pop rbp ; pop r14 ; ret ; (1 found)
0x4acb: pop rbp ; pop r14 ; ret ; (1 found)
0x5a31: pop rbp ; pop r14 ; ret ; (1 found)
0x5aa9: pop rbp ; pop r14 ; ret ; (1 found)
0x8d23: pop rbp ; pop r14 ; ret ; (1 found)
0xa5d7: pop rbp ; pop r14 ; ret ; (1 found)
0x10fcf: pop rbp ; pop r14 ; ret ; (1 found)
0x11d32: pop rbp ; pop r14 ; ret ; (1 found)
0x16897: pop rbp ; pop r14 ; ret ; (1 found)
0x1692f: pop rbp ; pop r14 ; ret ; (1 found)
0x1935d: pop rbp ; pop r14 ; ret ; (1 found)
0x1a2e1: pop rbp ; pop r14 ; ret ; (1 found)
0x1b326: pop rbp ; pop r14 ; ret ; (1 found)
0x11d6: pop rbp ; ret ; (1 found)
0x1222: pop rbp ; ret ; (1 found)
0x146d: pop rbp ; ret ; (1 found)
0x2c8b: pop rbp ; ret ; (1 found)
0x37e6: pop rbp ; ret ; (1 found)
0x3f3b: pop rbp ; ret ; (1 found)
0x4958: pop rbp ; ret ; (1 found)
0x4ca1: pop rbp ; ret ; (1 found)
0x4d00: pop rbp ; ret ; (1 found)
0x4e00: pop rbp ; ret ; (1 found)
0x5046: pop rbp ; ret ; (1 found)
0x542c: pop rbp ; ret ; (1 found)
0x5964: pop rbp ; ret ; (1 found)
0x59c0: pop rbp ; ret ; (1 found)
0x5d03: pop rbp ; ret ; (1 found)
0x645c: pop rbp ; ret ; (1 found)
0x651b: pop rbp ; ret ; (1 found)
0x6e01: pop rbp ; ret ; (1 found)
0xa7d6: pop rbp ; ret ; (1 found)
0xa897: pop rbp ; ret ; (1 found)
0xa978: pop rbp ; ret ; (1 found)
0xa9e9: pop rbp ; ret ; (1 found)
0xaa8a: pop rbp ; ret ; (1 found)
0xaa97: pop rbp ; ret ; (1 found)
0xb2dc: pop rbp ; ret ; (1 found)
0xb5b5: pop rbp ; ret ; (1 found)
0xb5d2: pop rbp ; ret ; (1 found)
0xc576: pop rbp ; ret ; (1 found)
0xc71c: pop rbp ; ret ; (1 found)
0xd446: pop rbp ; ret ; (1 found)
0xd48c: pop rbp ; ret ; (1 found)
0xd615: pop rbp ; ret ; (1 found)
0xd9f1: pop rbp ; ret ; (1 found)
0xe143: pop rbp ; ret ; (1 found)
0xeda5: pop rbp ; ret ; (1 found)
0x1003d: pop rbp ; ret ; (1 found)
0x104a2: pop rbp ; ret ; (1 found)
0x10687: pop rbp ; ret ; (1 found)
0x10999: pop rbp ; ret ; (1 found)
0x10cfe: pop rbp ; ret ; (1 found)
0x10d6b: pop rbp ; ret ; (1 found)
0x117f9: pop rbp ; ret ; (1 found)
0x11b67: pop rbp ; ret ; (1 found)
0x11b95: pop rbp ; ret ; (1 found)
0x12c1e: pop rbp ; ret ; (1 found)
0x12c2d: pop rbp ; ret ; (1 found)
0x1446b: pop rbp ; ret ; (1 found)
0x171cb: pop rbp ; ret ; (1 found)
0x1722b: pop rbp ; ret ; (1 found)
0x17296: pop rbp ; ret ; (1 found)
0x17d80: pop rbp ; ret ; (1 found)
0x17e41: pop rbp ; ret ; (1 found)
0x18361: pop rbp ; ret ; (1 found)
0x1841e: pop rbp ; ret ; (1 found)
0x18c0b: pop rbp ; ret ; (1 found)
0x18e95: pop rbp ; ret ; (1 found)
0x18ea7: pop rbp ; ret ; (1 found)
0x18f53: pop rbp ; ret ; (1 found)
0x18f63: pop rbp ; ret ; (1 found)
0x1a439: pop rbp ; ret ; (1 found)
0x1b13b: pop rbp ; ret ; (1 found)
0x1b228: pop rbp ; ret ; (1 found)
0x1b471: pop rbp ; ret ; (1 found)
0x1b49a: pop rbp ; ret ; (1 found)
0x1b53e: pop rbp ; ret ; (1 found)
0x1bb3f: pop rbp ; ret ; (1 found)
0x1dd52: pop rbp ; ret ; (1 found)
0x1fa5d: pop rbp ; ret ; (1 found)
0x1fa81: pop rbp ; ret ; (1 found)
0x20155: pop rbp ; ret ; (1 found)
0x2021a: pop rbp ; ret ; (1 found)
0x2023b: pop rbp ; ret ; (1 found)
0x2047b: pop rbp ; ret ; (1 found)
0x2383f: pop rbp ; ret ; (1 found)
0x11a4a: pop rbx ; add rax, rcx ; ret ; (1 found)
0x1451d: pop rbx ; cmove rax, rdx ; ret ; (1 found)
0xabfa: pop rbx ; mov rax, rsi ; ret ; (1 found)
0xac1f: pop rbx ; mov rax, rsi ; ret ; (1 found)
0x18130: pop rbx ; pop rbp ; jmp rax ; (1 found)
0x10a9: pop rbx ; pop rbp ; jmp rdx ; (1 found)
0x11d5: pop rbx ; pop rbp ; ret ; (1 found)
0x1221: pop rbx ; pop rbp ; ret ; (1 found)
0x37e5: pop rbx ; pop rbp ; ret ; (1 found)
0x3f3a: pop rbx ; pop rbp ; ret ; (1 found)
0xa7d5: pop rbx ; pop rbp ; ret ; (1 found)
0xa896: pop rbx ; pop rbp ; ret ; (1 found)
0xa977: pop rbx ; pop rbp ; ret ; (1 found)
0xaa89: pop rbx ; pop rbp ; ret ; (1 found)
0xaa96: pop rbx ; pop rbp ; ret ; (1 found)
0xd9f0: pop rbx ; pop rbp ; ret ; (1 found)
0x104a1: pop rbx ; pop rbp ; ret ; (1 found)
0x10d6a: pop rbx ; pop rbp ; ret ; (1 found)
0x171ca: pop rbx ; pop rbp ; ret ; (1 found)
0x1722a: pop rbx ; pop rbp ; ret ; (1 found)
0x17295: pop rbx ; pop rbp ; ret ; (1 found)
0x17d7f: pop rbx ; pop rbp ; ret ; (1 found)
0x17e40: pop rbx ; pop rbp ; ret ; (1 found)
0x18360: pop rbx ; pop rbp ; ret ; (1 found)
0x18e94: pop rbx ; pop rbp ; ret ; (1 found)
0x18ea6: pop rbx ; pop rbp ; ret ; (1 found)
0x1b470: pop rbx ; pop rbp ; ret ; (1 found)
0x1b499: pop rbx ; pop rbp ; ret ; (1 found)
0x1b53d: pop rbx ; pop rbp ; ret ; (1 found)
0x1fa5c: pop rbx ; pop rbp ; ret ; (1 found)
0x1fa80: pop rbx ; pop rbp ; ret ; (1 found)
0x20154: pop rbx ; pop rbp ; ret ; (1 found)
0x20219: pop rbx ; pop rbp ; ret ; (1 found)
0x2023a: pop rbx ; pop rbp ; ret ; (1 found)
0x2047a: pop rbx ; pop rbp ; ret ; (1 found)
0x2383e: pop rbx ; pop rbp ; ret ; (1 found)
0x2285: pop rbx ; ret ; (1 found)
0x372d: pop rbx ; ret ; (1 found)
0x3a26: pop rbx ; ret ; (1 found)
0x4690: pop rbx ; ret ; (1 found)
0xdb20: pop rbx ; ret ; (1 found)
0xdb55: pop rbx ; ret ; (1 found)
0xdb79: pop rbx ; ret ; (1 found)
0xdbbd: pop rbx ; ret ; (1 found)
0x11f27: pop rbx ; ret ; (1 found)
0x14592: pop rbx ; ret ; (1 found)
0x14604: pop rbx ; ret ; (1 found)
0x148e6: pop rbx ; ret ; (1 found)
0x148fb: pop rbx ; ret ; (1 found)
0x172ee: pop rbx ; ret ; (1 found)
0x18fb6: pop rbx ; ret ; (1 found)
0x1a1a8: pop rbx ; ret ; (1 found)
0x1aa40: pop rbx ; ret ; (1 found)
0x1aab2: pop rbx ; ret ; (1 found)
0x1aae9: pop rbx ; ret ; (1 found)
0x1b5a2: pop rbx ; ret ; (1 found)
0x20386: pop rbx ; ret ; (1 found)
0x237ca: pop rbx ; ret ; (1 found)
0x237de: pop rbx ; ret ; (1 found)
0x237f5: pop rbx ; ret ; (1 found)
0x146c: pop rdi ; pop rbp ; ret ; (1 found)
0x2c8a: pop rdi ; pop rbp ; ret ; (1 found)
0x4957: pop rdi ; pop rbp ; ret ; (1 found)
0x4dff: pop rdi ; pop rbp ; ret ; (1 found)
0x5045: pop rdi ; pop rbp ; ret ; (1 found)
0x542b: pop rdi ; pop rbp ; ret ; (1 found)
0x645b: pop rdi ; pop rbp ; ret ; (1 found)
0x651a: pop rdi ; pop rbp ; ret ; (1 found)
0x6e00: pop rdi ; pop rbp ; ret ; (1 found)
0xc71b: pop rdi ; pop rbp ; ret ; (1 found)
0xd445: pop rdi ; pop rbp ; ret ; (1 found)
0xd48b: pop rdi ; pop rbp ; ret ; (1 found)
0xd614: pop rdi ; pop rbp ; ret ; (1 found)
0xe142: pop rdi ; pop rbp ; ret ; (1 found)
0xeda4: pop rdi ; pop rbp ; ret ; (1 found)
0x10998: pop rdi ; pop rbp ; ret ; (1 found)
0x18c0a: pop rdi ; pop rbp ; ret ; (1 found)
0x1b13a: pop rdi ; pop rbp ; ret ; (1 found)
0x1b227: pop rdi ; pop rbp ; ret ; (1 found)
0x1bb3e: pop rdi ; pop rbp ; ret ; (1 found)
0x1dd51: pop rdi ; pop rbp ; ret ; (1 found)
0x326f: pop rdi ; ret ; (1 found)
0x34b6: pop rdi ; ret ; (1 found)
0x36d9: pop rdi ; ret ; (1 found)
0x4471: pop rdi ; ret ; (1 found)
0x4bb7: pop rdi ; ret ; (1 found)
0x5b3c: pop rdi ; ret ; (1 found)
0x5fa8: pop rdi ; ret ; (1 found)
0x6019: pop rdi ; ret ; (1 found)
0x60c2: pop rdi ; ret ; (1 found)
0x8065: pop rdi ; ret ; (1 found)
0x8b4e: pop rdi ; ret ; (1 found)
0x91e2: pop rdi ; ret ; (1 found)
0x9bbf: pop rdi ; ret ; (1 found)
0xa68e: pop rdi ; ret ; (1 found)
0xaf9d: pop rdi ; ret ; (1 found)
0xb201: pop rdi ; ret ; (1 found)
0xb517: pop rdi ; ret ; (1 found)
0xb70a: pop rdi ; ret ; (1 found)
0xbe54: pop rdi ; ret ; (1 found)
0x10350: pop rdi ; ret ; (1 found)
0x10e37: pop rdi ; ret ; (1 found)
0x11378: pop rdi ; ret ; (1 found)
0x11637: pop rdi ; ret ; (1 found)
0x119c1: pop rdi ; ret ; (1 found)
0x12993: pop rdi ; ret ; (1 found)
0x12fc2: pop rdi ; ret ; (1 found)
0x13996: pop rdi ; ret ; (1 found)
0x13f7e: pop rdi ; ret ; (1 found)
0x1418a: pop rdi ; ret ; (1 found)
0x149d1: pop rdi ; ret ; (1 found)
0x15050: pop rdi ; ret ; (1 found)
0x1507a: pop rdi ; ret ; (1 found)
0x15295: pop rdi ; ret ; (1 found)
0x15a6e: pop rdi ; ret ; (1 found)
0x16625: pop rdi ; ret ; (1 found)
0x1672e: pop rdi ; ret ; (1 found)
0x1680d: pop rdi ; ret ; (1 found)
0x16ac6: pop rdi ; ret ; (1 found)
0x16d41: pop rdi ; ret ; (1 found)
0x16d5c: pop rdi ; ret ; (1 found)
0x16fcc: pop rdi ; ret ; (1 found)
0x17153: pop rdi ; ret ; (1 found)
0x1bdc6: pop rdi ; ret ; (1 found)
0x1fdc5: pop rdi ; ret ; (1 found)
0x1aa3f: pop rdx ; pop rbx ; ret ; (1 found)
0x326d: pop rsi ; pop r15 ; ret ; (1 found)
0x34b4: pop rsi ; pop r15 ; ret ; (1 found)
0x36d7: pop rsi ; pop r15 ; ret ; (1 found)
0x446f: pop rsi ; pop r15 ; ret ; (1 found)
0x4bb5: pop rsi ; pop r15 ; ret ; (1 found)
0x5b3a: pop rsi ; pop r15 ; ret ; (1 found)
0x5fa6: pop rsi ; pop r15 ; ret ; (1 found)
0x6017: pop rsi ; pop r15 ; ret ; (1 found)
0x60c0: pop rsi ; pop r15 ; ret ; (1 found)
0x8063: pop rsi ; pop r15 ; ret ; (1 found)
0x8b4c: pop rsi ; pop r15 ; ret ; (1 found)
0x91e0: pop rsi ; pop r15 ; ret ; (1 found)
0x9bbd: pop rsi ; pop r15 ; ret ; (1 found)
0xa68c: pop rsi ; pop r15 ; ret ; (1 found)
0xaf9b: pop rsi ; pop r15 ; ret ; (1 found)
0xb1ff: pop rsi ; pop r15 ; ret ; (1 found)
0xb515: pop rsi ; pop r15 ; ret ; (1 found)
0xb708: pop rsi ; pop r15 ; ret ; (1 found)
0xbe52: pop rsi ; pop r15 ; ret ; (1 found)
0x1034e: pop rsi ; pop r15 ; ret ; (1 found)
0x10e35: pop rsi ; pop r15 ; ret ; (1 found)
0x11376: pop rsi ; pop r15 ; ret ; (1 found)
0x11635: pop rsi ; pop r15 ; ret ; (1 found)
0x119bf: pop rsi ; pop r15 ; ret ; (1 found)
0x12991: pop rsi ; pop r15 ; ret ; (1 found)
0x12fc0: pop rsi ; pop r15 ; ret ; (1 found)
0x13994: pop rsi ; pop r15 ; ret ; (1 found)
0x13f7c: pop rsi ; pop r15 ; ret ; (1 found)
0x14188: pop rsi ; pop r15 ; ret ; (1 found)
0x149cf: pop rsi ; pop r15 ; ret ; (1 found)
0x1504e: pop rsi ; pop r15 ; ret ; (1 found)
0x15078: pop rsi ; pop r15 ; ret ; (1 found)
0x15293: pop rsi ; pop r15 ; ret ; (1 found)
0x15a6c: pop rsi ; pop r15 ; ret ; (1 found)
0x16623: pop rsi ; pop r15 ; ret ; (1 found)
0x1672c: pop rsi ; pop r15 ; ret ; (1 found)
0x1680b: pop rsi ; pop r15 ; ret ; (1 found)
0x16ac4: pop rsi ; pop r15 ; ret ; (1 found)
0x16d3f: pop rsi ; pop r15 ; ret ; (1 found)
0x16d5a: pop rsi ; pop r15 ; ret ; (1 found)
0x16fca: pop rsi ; pop r15 ; ret ; (1 found)
0x17151: pop rsi ; pop r15 ; ret ; (1 found)
0x1bdc4: pop rsi ; pop r15 ; ret ; (1 found)
0x1fdc3: pop rsi ; pop r15 ; ret ; (1 found)
0x3b8a: pop rsi ; ret ; (1 found)
0x4acd: pop rsi ; ret ; (1 found)
0x5a33: pop rsi ; ret ; (1 found)
0x5aab: pop rsi ; ret ; (1 found)
0x8d25: pop rsi ; ret ; (1 found)
0xa5bb: pop rsi ; ret ; (1 found)
0xa5d9: pop rsi ; ret ; (1 found)
0x10fd1: pop rsi ; ret ; (1 found)
0x11d34: pop rsi ; ret ; (1 found)
0x16899: pop rsi ; ret ; (1 found)
0x16931: pop rsi ; ret ; (1 found)
0x1935f: pop rsi ; ret ; (1 found)
0x1a2e3: pop rsi ; ret ; (1 found)
0x1b328: pop rsi ; ret ; (1 found)
0x15fba: pop rsp ; idiv edi ; jmp qword [rsi-0x70] ; (1 found)
0x113e: pop rsp ; jmp rax ; (1 found)
0x4c9f: pop rsp ; pop r13 ; ret ; (1 found)
0x4cfe: pop rsp ; pop r13 ; ret ; (1 found)
0x5962: pop rsp ; pop r13 ; ret ; (1 found)
0x59be: pop rsp ; pop r13 ; ret ; (1 found)
0x5d01: pop rsp ; pop r13 ; ret ; (1 found)
0xa9e7: pop rsp ; pop r13 ; ret ; (1 found)
0xb2da: pop rsp ; pop r13 ; ret ; (1 found)
0xb5b3: pop rsp ; pop r13 ; ret ; (1 found)
0xb5d0: pop rsp ; pop r13 ; ret ; (1 found)
0xc574: pop rsp ; pop r13 ; ret ; (1 found)
0x1003b: pop rsp ; pop r13 ; ret ; (1 found)
0x10685: pop rsp ; pop r13 ; ret ; (1 found)
0x10cfc: pop rsp ; pop r13 ; ret ; (1 found)
0x117f7: pop rsp ; pop r13 ; ret ; (1 found)
0x11b65: pop rsp ; pop r13 ; ret ; (1 found)
0x11b93: pop rsp ; pop r13 ; ret ; (1 found)
0x12c1c: pop rsp ; pop r13 ; ret ; (1 found)
0x12c2b: pop rsp ; pop r13 ; ret ; (1 found)
0x1841c: pop rsp ; pop r13 ; ret ; (1 found)
0x18f51: pop rsp ; pop r13 ; ret ; (1 found)
0x18f61: pop rsp ; pop r13 ; ret ; (1 found)
0x1a437: pop rsp ; pop r13 ; ret ; (1 found)
0x114b: pop rsp ; ret ; (1 found)
0x58ef: pop rsp ; ret ; (1 found)
0x11089: pop rsp ; ret ; (1 found)
0x11482: pop rsp ; ret ; (1 found)
0x11496: pop rsp ; ret ; (1 found)
0x14363: pop rsp ; ret ; (1 found)
0x14df8: pop rsp ; ret ; (1 found)
0x1830f: pop rsp ; ret ; (1 found)
0x19230: pop rsp ; ret ; (1 found)
0x19558: pop rsp ; ret ; (1 found)
0x19578: pop rsp ; ret ; (1 found)
0x19708: pop rsp ; ret ; (1 found)
0x1ac38: pop rsp ; ret ; (1 found)
0x1affd: pop rsp ; ret ; (1 found)
0x1b01d: pop rsp ; ret ; (1 found)
0x2027a: pop rsp ; ret ; (1 found)
0x2040e: pop rsp ; ret ; (1 found)
0x209e9: pop rsp ; ret ; (1 found)
0x20a24: pop rsp ; ret ; (1 found)
0x197ba: popfq ; ret ; (1 found)
0x11eaa: punpcklqdq mm0, mm0 ; movups  [rbx+0x000002D8], xmm0 ; syscall ; (1 found)
0x11ea9: punpcklqdq xmm0, xmm0 ; movups  [rbx+0x000002D8], xmm0 ; syscall ; (1 found)
0xaf35: push 0x00000002 ; add byte [rax-0x39], cl ; ret ; (1 found)
0xaf24: push 0x00000002 ; add byte [rax-0x77], cl ; ret ; (1 found)
0x20934: push 0x48000129 ; mov eax, 0xFFFFFFFF ; ret ; (1 found)
0x1bb59: push 0x48FFFFFF ; mov  [rbp-0x00000090], esi ; call r11 ; (1 found)
0x21eee: push cs ; lea rax, qword [rdi+0x15] ; ret ; (1 found)
0x21eef: push cs ; lea rax, qword [rdi+0x15] ; ret ; (1 found)
0x21ff1: push cs ; lea rax, qword [rdi+0x1D] ; ret ; (1 found)
0x21e30: push cs ; ret ; (1 found)
0x21e31: push cs ; ret ; (1 found)
0x21267: push cs ; sub eax, ecx ; ret ; (1 found)
0xe0ad: push qword [rbp+0x02] ; call rax ; (1 found)
0x1664f: push qword [rbp+0x06] ; ret ; (1 found)
0x14453: push qword [rbp+rax+0x48] ; add eax,  [rdi+0x08] ; ret ; (1 found)
0x14347: push qword [rbp-0x1A] ; mov rdi, qword [r12+0x00] ; call qword [r12+0x18] ; (1 found)
0x20a9c: push qword [rbx+0x01] ; ret ; (1 found)
0x20abc: push qword [rbx+0x01] ; ret ; (1 found)
0x20bcc: push qword [rbx+0x01] ; ret ; (1 found)
0x2077c: push qword [rdi+0x01] ; ret ; (1 found)
0x2079c: push qword [rdi+0x01] ; ret ; (1 found)
0x207bc: push qword [rdi+0x01] ; ret ; (1 found)
0x2097c: push qword [rdi+0x01] ; ret ; (1 found)
0x2568c: push qword [rdi+0x01] ; ret ; (1 found)
0x20929: push qword [rdi+0x04] ; ret ; (1 found)
0x204b8: push qword [rdi+0x05] ; ret ; (1 found)
0x200af: push qword [rdi+0x06] ; ret ; (1 found)
0x2094f: push qword [rdi+0x06] ; ret ; (1 found)
0x206de: push qword [rdi+0x07] ; xor eax, eax ; ret ; (1 found)
0x20861: push qword [rdi+0x1C] ; ret ; (1 found)
0x20a58: push qword [rdi+0x1D] ; ret ; (1 found)
0x20802: push qword [rdi+0x23] ; ret ; (1 found)
0x20727: push qword [rdi+0x2E] ; ret ; (1 found)
0x208d2: push qword [rdi+0x33] ; ret ; (1 found)
0x11a83: push qword [rdx+rdx+0x48] ; add eax,  [rdi+0x08] ; ret ; (1 found)
0x13849: push rax ; mov byte [rax+0x50], 0x01 ; ret ; (1 found)
0x1be95: push rax ; or  [rax+0x0F], ecx ; retn 0xDB31 ; (1 found)
0x138a9: push rax ; ret ; (1 found)
0xf3a7: push rbp ; adc byte [rcx-0x77], cl ; retn 0x8B49 ; (1 found)
0xc53a: push rbp ; add  [rax+0x39], ecx ; retn 0x1072 ; (1 found)
0x6668: push rbp ; add byte [rbp-0x36], dh ; ret ; (1 found)
0x6669: push rbp ; add byte [rbp-0x36], dh ; ret ; (1 found)
0x666a: push rbp ; add byte [rbp-0x36], dh ; ret ; (1 found)
0x266c: push rbx ; adc byte [rax-0x7D], cl ; ret ; (1 found)
0x1fab4: push rbx ; sub rsp, 0x00000000000000F8 ; syscall ; (1 found)
0xebfb: push rcx ; or byte [rax+0x29], cl ; retn 0x8D48 ; (1 found)
0x21dec: push rdi ; add eax, 0x0C478D48 ; ret ; (1 found)
0x21fd0: push rdi ; or eax, 0x1C478D48 ; ret ; (1 found)
0x21158: push rdi ; xor eax, eax ; ret ; (1 found)
0x2055a: push rdx ; sub eax, 0x89480001 ; retn 0x0D8B ; (1 found)
0xdaca: rcl byte [rbp+0x02], cl ; add byte [rax+0x39], cl ; retn 0x7D72 ; (1 found)
0x11493: rcr byte [rbp+0x41], 0x5C ; ret ; (1 found)
0x14df4: rcr byte [rbx+0x5D], 0x41 ; pop rsp ; ret ; (1 found)
0x1b019: rcr byte [rbx+0x5D], 0x41 ; pop rsp ; ret ; (1 found)
0x2040a: rcr byte [rbx+0x5D], 0x41 ; pop rsp ; ret ; (1 found)
0x10b0: ret ; (1 found)
0x114c: ret ; (1 found)
0x11d7: ret ; (1 found)
0x1223: ret ; (1 found)
0x12f9: ret ; (1 found)
0x146e: ret ; (1 found)
0x186d: ret ; (1 found)
0x2080: ret ; (1 found)
0x20b7: ret ; (1 found)
0x20d7: ret ; (1 found)
0x212a: ret ; (1 found)
0x21d6: ret ; (1 found)
0x2286: ret ; (1 found)
0x2670: ret ; (1 found)
0x2823: ret ; (1 found)
0x297b: ret ; (1 found)
0x2c8c: ret ; (1 found)
0x31c8: ret ; (1 found)
0x321d: ret ; (1 found)
0x3270: ret ; (1 found)
0x33a4: ret ; (1 found)
0x33d1: ret ; (1 found)
0x33d2: ret ; (1 found)
0x3420: ret ; (1 found)
0x3465: ret ; (1 found)
0x34b7: ret ; (1 found)
0x3651: ret ; (1 found)
0x36da: ret ; (1 found)
0x372e: ret ; (1 found)
0x37e7: ret ; (1 found)
0x38d6: ret ; (1 found)
0x393c: ret ; (1 found)
0x3948: ret ; (1 found)
0x39d8: ret ; (1 found)
0x3a06: ret ; (1 found)
0x3a27: ret ; (1 found)
0x3b8b: ret ; (1 found)
0x3bdd: ret ; (1 found)
0x3d13: ret ; (1 found)
0x3eb0: ret ; (1 found)
0x3ef3: ret ; (1 found)
0x3f3c: ret ; (1 found)
0x3f47: ret ; (1 found)
0x42b4: ret ; (1 found)
0x42b7: ret ; (1 found)
0x42b8: ret ; (1 found)
0x43f9: ret ; (1 found)
0x43fc: ret ; (1 found)
0x43fd: ret ; (1 found)
0x4472: ret ; (1 found)
0x454f: ret ; (1 found)
0x45a7: ret ; (1 found)
0x461f: ret ; (1 found)
0x462d: ret ; (1 found)
0x462e: ret ; (1 found)
0x4691: ret ; (1 found)
0x4959: ret ; (1 found)
0x4ab2: ret ; (1 found)
0x4ace: ret ; (1 found)
0x4bb8: ret ; (1 found)
0x4bec: ret ; (1 found)
0x4c7e: ret ; (1 found)
0x4ca2: ret ; (1 found)
0x4d01: ret ; (1 found)
0x4de5: ret ; (1 found)
0x4e01: ret ; (1 found)
0x4e82: ret ; (1 found)
0x5047: ret ; (1 found)
0x50ef: ret ; (1 found)
0x5327: ret ; (1 found)
0x542d: ret ; (1 found)
0x56b3: ret ; (1 found)
0x58f0: ret ; (1 found)
0x5910: ret ; (1 found)
0x594b: ret ; (1 found)
0x5965: ret ; (1 found)
0x59c1: ret ; (1 found)
0x5a34: ret ; (1 found)
0x5a8e: ret ; (1 found)
0x5aac: ret ; (1 found)
0x5b3d: ret ; (1 found)
0x5d04: ret ; (1 found)
0x5e4e: ret ; (1 found)
0x5f6f: ret ; (1 found)
0x5fa9: ret ; (1 found)
0x601a: ret ; (1 found)
0x60c3: ret ; (1 found)
0x61bd: ret ; (1 found)
0x638d: ret ; (1 found)
0x645d: ret ; (1 found)
0x651c: ret ; (1 found)
0x666e: ret ; (1 found)
0x6756: ret ; (1 found)
0x67a4: ret ; (1 found)
0x68d5: ret ; (1 found)
0x6bc1: ret ; (1 found)
0x6bc2: ret ; (1 found)
0x6cdb: ret ; (1 found)
0x6e02: ret ; (1 found)
0x6ecd: ret ; (1 found)
0x6efe: ret ; (1 found)
0x7590: ret ; (1 found)
0x7bd4: ret ; (1 found)
0x7f31: ret ; (1 found)
0x8066: ret ; (1 found)
0x8545: ret ; (1 found)
0x8b4f: ret ; (1 found)
0x8d26: ret ; (1 found)
0x91e3: ret ; (1 found)
0x9352: ret ; (1 found)
0x96c6: ret ; (1 found)
0x9bc0: ret ; (1 found)
0xa4e8: ret ; (1 found)
0xa5bc: ret ; (1 found)
0xa5da: ret ; (1 found)
0xa674: ret ; (1 found)
0xa68f: ret ; (1 found)
0xa7d7: ret ; (1 found)
0xa898: ret ; (1 found)
0xa8d7: ret ; (1 found)
0xa8ec: ret ; (1 found)
0xa913: ret ; (1 found)
0xa950: ret ; (1 found)
0xa979: ret ; (1 found)
0xa9ea: ret ; (1 found)
0xa9f6: ret ; (1 found)
0xaa8b: ret ; (1 found)
0xaa98: ret ; (1 found)
0xaadc: ret ; (1 found)
0xab53: ret ; (1 found)
0xabaf: ret ; (1 found)
0xabfe: ret ; (1 found)
0xac23: ret ; (1 found)
0xae0c: ret ; (1 found)
0xae2f: ret ; (1 found)
0xaf29: ret ; (1 found)
0xaf3a: ret ; (1 found)
0xaf7e: ret ; (1 found)
0xaf9e: ret ; (1 found)
0xb03b: ret ; (1 found)
0xb1b1: ret ; (1 found)
0xb202: ret ; (1 found)
0xb2dd: ret ; (1 found)
0xb518: ret ; (1 found)
0xb5b6: ret ; (1 found)
0xb5d3: ret ; (1 found)
0xb70b: ret ; (1 found)
0xb732: ret ; (1 found)
0xb9fc: ret ; (1 found)
0xba94: ret ; (1 found)
0xbafb: ret ; (1 found)
0xbe55: ret ; (1 found)
0xbe78: ret ; (1 found)
0xbf69: ret ; (1 found)
0xc4d2: ret ; (1 found)
0xc513: ret ; (1 found)
0xc577: ret ; (1 found)
0xc64a: ret ; (1 found)
0xc653: ret ; (1 found)
0xc6dc: ret ; (1 found)
0xc71d: ret ; (1 found)
0xc7b4: ret ; (1 found)
0xc7b6: ret ; (1 found)
0xc88d: ret ; (1 found)
0xc892: ret ; (1 found)
0xc9df: ret ; (1 found)
0xcb28: ret ; (1 found)
0xcb2a: ret ; (1 found)
0xcbc1: ret ; (1 found)
0xcc5e: ret ; (1 found)
0xcc5f: ret ; (1 found)
0xcc84: ret ; (1 found)
0xcd61: ret ; (1 found)
0xce11: ret ; (1 found)
0xceb3: ret ; (1 found)
0xcf5d: ret ; (1 found)
0xcffd: ret ; (1 found)
0xd163: ret ; (1 found)
0xd2ca: ret ; (1 found)
0xd3c9: ret ; (1 found)
0xd3f4: ret ; (1 found)
0xd447: ret ; (1 found)
0xd48d: ret ; (1 found)
0xd616: ret ; (1 found)
0xd9f2: ret ; (1 found)
0xda20: ret ; (1 found)
0xdb21: ret ; (1 found)
0xdb56: ret ; (1 found)
0xdb5c: ret ; (1 found)
0xdb7a: ret ; (1 found)
0xdbbe: ret ; (1 found)
0xe036: ret ; (1 found)
0xe054: ret ; (1 found)
0xe144: ret ; (1 found)
0xe396: ret ; (1 found)
0xe513: ret ; (1 found)
0xe5a6: ret ; (1 found)
0xe5aa: ret ; (1 found)
0xe5fa: ret ; (1 found)
0xe705: ret ; (1 found)
0xe757: ret ; (1 found)
0xead3: ret ; (1 found)
0xead4: ret ; (1 found)
0xeda6: ret ; (1 found)
0xee34: ret ; (1 found)
0xef6e: ret ; (1 found)
0xeffa: ret ; (1 found)
0xeffe: ret ; (1 found)
0xf052: ret ; (1 found)
0xf493: ret ; (1 found)
0xf494: ret ; (1 found)
0xf7c8: ret ; (1 found)
0x1003e: ret ; (1 found)
0x10351: ret ; (1 found)
0x104a3: ret ; (1 found)
0x105ba: ret ; (1 found)
0x105ff: ret ; (1 found)
0x10662: ret ; (1 found)
0x10688: ret ; (1 found)
0x10719: ret ; (1 found)
0x1099a: ret ; (1 found)
0x109de: ret ; (1 found)
0x10bd9: ret ; (1 found)
0x10c79: ret ; (1 found)
0x10cff: ret ; (1 found)
0x10d6c: ret ; (1 found)
0x10dd4: ret ; (1 found)
0x10e38: ret ; (1 found)
0x10ed0: ret ; (1 found)
0x10f39: ret ; (1 found)
0x10fa0: ret ; (1 found)
0x10fd2: ret ; (1 found)
0x10fe3: ret ; (1 found)
0x11051: ret ; (1 found)
0x1108a: ret ; (1 found)
0x110ca: ret ; (1 found)
0x111c3: ret ; (1 found)
0x112a6: ret ; (1 found)
0x11379: ret ; (1 found)
0x113f4: ret ; (1 found)
0x11429: ret ; (1 found)
0x11483: ret ; (1 found)
0x11497: ret ; (1 found)
0x11507: ret ; (1 found)
0x115f9: ret ; (1 found)
0x11638: ret ; (1 found)
0x117a2: ret ; (1 found)
0x117fa: ret ; (1 found)
0x1189c: ret ; (1 found)
0x118b9: ret ; (1 found)
0x118e8: ret ; (1 found)
0x119c2: ret ; (1 found)
0x11a4e: ret ; (1 found)
0x11a8a: ret ; (1 found)
0x11ad6: ret ; (1 found)
0x11ad7: ret ; (1 found)
0x11b1c: ret ; (1 found)
0x11b42: ret ; (1 found)
0x11b56: ret ; (1 found)
0x11b68: ret ; (1 found)
0x11b72: ret ; (1 found)
0x11b96: ret ; (1 found)
0x11d35: ret ; (1 found)
0x11da2: ret ; (1 found)
0x11e04: ret ; (1 found)
0x11ec4: ret ; (1 found)
0x11f28: ret ; (1 found)
0x11fd8: ret ; (1 found)
0x120c2: ret ; (1 found)
0x12115: ret ; (1 found)
0x121dc: ret ; (1 found)
0x1229c: ret ; (1 found)
0x12381: ret ; (1 found)
0x123c1: ret ; (1 found)
0x1259a: ret ; (1 found)
0x12994: ret ; (1 found)
0x12b56: ret ; (1 found)
0x12c1f: ret ; (1 found)
0x12c2e: ret ; (1 found)
0x12c37: ret ; (1 found)
0x12c81: ret ; (1 found)
0x12d02: ret ; (1 found)
0x12d08: ret ; (1 found)
0x12d0f: ret ; (1 found)
0x12d15: ret ; (1 found)
0x12dff: ret ; (1 found)
0x12e06: ret ; (1 found)
0x12fc3: ret ; (1 found)
0x13387: ret ; (1 found)
0x133b5: ret ; (1 found)
0x133cf: ret ; (1 found)
0x134ae: ret ; (1 found)
0x134fa: ret ; (1 found)
0x13528: ret ; (1 found)
0x13551: ret ; (1 found)
0x137ab: ret ; (1 found)
0x137d9: ret ; (1 found)
0x1384f: ret ; (1 found)
0x13896: ret ; (1 found)
0x138aa: ret ; (1 found)
0x138ab: ret ; (1 found)
0x138d0: ret ; (1 found)
0x13997: ret ; (1 found)
0x139fe: ret ; (1 found)
0x13ce1: ret ; (1 found)
0x13e58: ret ; (1 found)
0x13ef9: ret ; (1 found)
0x13f2f: ret ; (1 found)
0x13f65: ret ; (1 found)
0x13f7f: ret ; (1 found)
0x14038: ret ; (1 found)
0x1418b: ret ; (1 found)
0x142d7: ret ; (1 found)
0x142d9: ret ; (1 found)
0x14364: ret ; (1 found)
0x14374: ret ; (1 found)
0x1438d: ret ; (1 found)
0x143d8: ret ; (1 found)
0x1445a: ret ; (1 found)
0x1446c: ret ; (1 found)
0x144c6: ret ; (1 found)
0x14522: ret ; (1 found)
0x14552: ret ; (1 found)
0x14593: ret ; (1 found)
0x14605: ret ; (1 found)
0x148e7: ret ; (1 found)
0x148fc: ret ; (1 found)
0x149d2: ret ; (1 found)
0x14aec: ret ; (1 found)
0x14df9: ret ; (1 found)
0x14e08: ret ; (1 found)
0x15051: ret ; (1 found)
0x1507b: ret ; (1 found)
0x15083: ret ; (1 found)
0x1512e: ret ; (1 found)
0x15281: ret ; (1 found)
0x15296: ret ; (1 found)
0x152ae: ret ; (1 found)
0x156e3: ret ; (1 found)
0x15795: ret ; (1 found)
0x157b7: ret ; (1 found)
0x159a3: ret ; (1 found)
0x159a4: ret ; (1 found)
0x15a48: ret ; (1 found)
0x15a6f: ret ; (1 found)
0x15b74: ret ; (1 found)
0x15c8e: ret ; (1 found)
0x15d01: ret ; (1 found)
0x15ee6: ret ; (1 found)
0x15f59: ret ; (1 found)
0x15fde: ret ; (1 found)
0x16014: ret ; (1 found)
0x16052: ret ; (1 found)
0x1654c: ret ; (1 found)
0x1655f: ret ; (1 found)
0x1656a: ret ; (1 found)
0x16587: ret ; (1 found)
0x165d6: ret ; (1 found)
0x16626: ret ; (1 found)
0x16652: ret ; (1 found)
0x166d6: ret ; (1 found)
0x1672f: ret ; (1 found)
0x16733: ret ; (1 found)
0x1674a: ret ; (1 found)
0x16763: ret ; (1 found)
0x1680e: ret ; (1 found)
0x1681a: ret ; (1 found)
0x16883: ret ; (1 found)
0x1689a: ret ; (1 found)
0x168ca: ret ; (1 found)
0x16932: ret ; (1 found)
0x16a14: ret ; (1 found)
0x16aa3: ret ; (1 found)
0x16ac7: ret ; (1 found)
0x16b20: ret ; (1 found)
0x16cb5: ret ; (1 found)
0x16d42: ret ; (1 found)
0x16d5d: ret ; (1 found)
0x16eb8: ret ; (1 found)
0x16fcd: ret ; (1 found)
0x17010: ret ; (1 found)
0x17138: ret ; (1 found)
0x17154: ret ; (1 found)
0x171cc: ret ; (1 found)
0x17203: ret ; (1 found)
0x1722c: ret ; (1 found)
0x17273: ret ; (1 found)
0x17297: ret ; (1 found)
0x172ef: ret ; (1 found)
0x174ec: ret ; (1 found)
0x17685: ret ; (1 found)
0x1787f: ret ; (1 found)
0x17d81: ret ; (1 found)
0x17ded: ret ; (1 found)
0x17e42: ret ; (1 found)
0x17e9b: ret ; (1 found)
0x17f29: ret ; (1 found)
0x17f30: ret ; (1 found)
0x17f93: ret ; (1 found)
0x18289: ret ; (1 found)
0x18310: ret ; (1 found)
0x18351: ret ; (1 found)
0x18362: ret ; (1 found)
0x1841f: ret ; (1 found)
0x184c5: ret ; (1 found)
0x1850d: ret ; (1 found)
0x1856c: ret ; (1 found)
0x1858e: ret ; (1 found)
0x185d1: ret ; (1 found)
0x185f9: ret ; (1 found)
0x18baa: ret ; (1 found)
0x18c0c: ret ; (1 found)
0x18c80: ret ; (1 found)
0x18d68: ret ; (1 found)
0x18e1e: ret ; (1 found)
0x18e24: ret ; (1 found)
0x18e5e: ret ; (1 found)
0x18e96: ret ; (1 found)
0x18ea8: ret ; (1 found)
0x18f54: ret ; (1 found)
0x18f64: ret ; (1 found)
0x18f7a: ret ; (1 found)
0x18fb7: ret ; (1 found)
0x19008: ret ; (1 found)
0x19019: ret ; (1 found)
0x190a6: ret ; (1 found)
0x190b7: ret ; (1 found)
0x190c7: ret ; (1 found)
0x190d7: ret ; (1 found)
0x190e7: ret ; (1 found)
0x190f7: ret ; (1 found)
0x19107: ret ; (1 found)
0x19189: ret ; (1 found)
0x19231: ret ; (1 found)
0x19360: ret ; (1 found)
0x193c0: ret ; (1 found)
0x19401: ret ; (1 found)
0x1947e: ret ; (1 found)
0x1948c: ret ; (1 found)
0x19559: ret ; (1 found)
0x19579: ret ; (1 found)
0x19709: ret ; (1 found)
0x197bb: ret ; (1 found)
0x1a1a9: ret ; (1 found)
0x1a1e0: ret ; (1 found)
0x1a24d: ret ; (1 found)
0x1a24e: ret ; (1 found)
0x1a2bc: ret ; (1 found)
0x1a2e4: ret ; (1 found)
0x1a3e3: ret ; (1 found)
0x1a43a: ret ; (1 found)
0x1a43b: ret ; (1 found)
0x1aa41: ret ; (1 found)
0x1aab3: ret ; (1 found)
0x1aaea: ret ; (1 found)
0x1ac39: ret ; (1 found)
0x1affe: ret ; (1 found)
0x1b01e: ret ; (1 found)
0x1b082: ret ; (1 found)
0x1b13c: ret ; (1 found)
0x1b1f0: ret ; (1 found)
0x1b229: ret ; (1 found)
0x1b296: ret ; (1 found)
0x1b329: ret ; (1 found)
0x1b3a0: ret ; (1 found)
0x1b42e: ret ; (1 found)
0x1b472: ret ; (1 found)
0x1b49b: ret ; (1 found)
0x1b4c9: ret ; (1 found)
0x1b53f: ret ; (1 found)
0x1b5a3: ret ; (1 found)
0x1b665: ret ; (1 found)
0x1b88e: ret ; (1 found)
0x1bb1e: ret ; (1 found)
0x1bb40: ret ; (1 found)
0x1bb85: ret ; (1 found)
0x1bdc7: ret ; (1 found)
0x1bfb5: ret ; (1 found)
0x1c191: ret ; (1 found)
0x1c373: ret ; (1 found)
0x1c3a7: ret ; (1 found)
0x1c3e8: ret ; (1 found)
0x1c6d7: ret ; (1 found)
0x1ca44: ret ; (1 found)
0x1ca47: ret ; (1 found)
0x1ca87: ret ; (1 found)
0x1cec2: ret ; (1 found)
0x1dd53: ret ; (1 found)
0x1dfde: ret ; (1 found)
0x1e1a0: ret ; (1 found)
0x1e386: ret ; (1 found)
0x1e698: ret ; (1 found)
0x1e70f: ret ; (1 found)
0x1e767: ret ; (1 found)
0x1e7e2: ret ; (1 found)
0x1ecba: ret ; (1 found)
0x1ecff: ret ; (1 found)
0x1ee35: ret ; (1 found)
0x1eed4: ret ; (1 found)
0x1f1f9: ret ; (1 found)
0x1f2c7: ret ; (1 found)
0x1f456: ret ; (1 found)
0x1f537: ret ; (1 found)
0x1f679: ret ; (1 found)
0x1f74d: ret ; (1 found)
0x1f82e: ret ; (1 found)
0x1f9c4: ret ; (1 found)
0x1fa05: ret ; (1 found)
0x1fa1f: ret ; (1 found)
0x1fa5e: ret ; (1 found)
0x1fa82: ret ; (1 found)
0x1fb1b: ret ; (1 found)
0x1fdc6: ret ; (1 found)
0x1fe81: ret ; (1 found)
0x1ffdd: ret ; (1 found)
0x200b2: ret ; (1 found)
0x200c5: ret ; (1 found)
0x2010b: ret ; (1 found)
0x20117: ret ; (1 found)
0x20156: ret ; (1 found)
0x20180: ret ; (1 found)
0x2018c: ret ; (1 found)
0x201db: ret ; (1 found)
0x2021b: ret ; (1 found)
0x2023c: ret ; (1 found)
0x2024c: ret ; (1 found)
0x2027b: ret ; (1 found)
0x202bc: ret ; (1 found)
0x20355: ret ; (1 found)
0x20387: ret ; (1 found)
0x2040f: ret ; (1 found)
0x2047c: ret ; (1 found)
0x204bb: ret ; (1 found)
0x204cf: ret ; (1 found)
0x20540: ret ; (1 found)
0x2054a: ret ; (1 found)
0x20595: ret ; (1 found)
0x2063a: ret ; (1 found)
0x20656: ret ; (1 found)
0x206af: ret ; (1 found)
0x206e3: ret ; (1 found)
0x206f5: ret ; (1 found)
0x20729: ret ; (1 found)
0x2072a: ret ; (1 found)
0x20765: ret ; (1 found)
0x2077f: ret ; (1 found)
0x2078f: ret ; (1 found)
0x2079f: ret ; (1 found)
0x207ad: ret ; (1 found)
0x207bf: ret ; (1 found)
0x207cd: ret ; (1 found)
0x20805: ret ; (1 found)
0x20835: ret ; (1 found)
0x2084d: ret ; (1 found)
0x20864: ret ; (1 found)
0x2088d: ret ; (1 found)
0x2089d: ret ; (1 found)
0x208d5: ret ; (1 found)
0x20915: ret ; (1 found)
0x2092c: ret ; (1 found)
0x2093f: ret ; (1 found)
0x20952: ret ; (1 found)
0x20967: ret ; (1 found)
0x2097f: ret ; (1 found)
0x2098f: ret ; (1 found)
0x209ea: ret ; (1 found)
0x20a25: ret ; (1 found)
0x20a5b: ret ; (1 found)
0x20a71: ret ; (1 found)
0x20a87: ret ; (1 found)
0x20a9f: ret ; (1 found)
0x20aaf: ret ; (1 found)
0x20abf: ret ; (1 found)
0x20acf: ret ; (1 found)
0x20b18: ret ; (1 found)
0x20b70: ret ; (1 found)
0x20b94: ret ; (1 found)
0x20bb3: ret ; (1 found)
0x20bcf: ret ; (1 found)
0x20bdf: ret ; (1 found)
0x20c37: ret ; (1 found)
0x20c8e: ret ; (1 found)
0x20d07: ret ; (1 found)
0x20e84: ret ; (1 found)
0x20eb6: ret ; (1 found)
0x20f4b: ret ; (1 found)
0x20fa5: ret ; (1 found)
0x2100f: ret ; (1 found)
0x21024: ret ; (1 found)
0x210b2: ret ; (1 found)
0x210c7: ret ; (1 found)
0x2110a: ret ; (1 found)
0x2112f: ret ; (1 found)
0x2115b: ret ; (1 found)
0x21168: ret ; (1 found)
0x21176: ret ; (1 found)
0x21188: ret ; (1 found)
0x21198: ret ; (1 found)
0x211ab: ret ; (1 found)
0x211bd: ret ; (1 found)
0x211cd: ret ; (1 found)
0x211dd: ret ; (1 found)
0x211e2: ret ; (1 found)
0x21235: ret ; (1 found)
0x2125c: ret ; (1 found)
0x2126a: ret ; (1 found)
0x2126d: ret ; (1 found)
0x2127e: ret ; (1 found)
0x2129d: ret ; (1 found)
0x212d3: ret ; (1 found)
0x212e6: ret ; (1 found)
0x212fd: ret ; (1 found)
0x21347: ret ; (1 found)
0x21374: ret ; (1 found)
0x213a1: ret ; (1 found)
0x213a6: ret ; (1 found)
0x213bf: ret ; (1 found)
0x213da: ret ; (1 found)
0x213ef: ret ; (1 found)
0x21433: ret ; (1 found)
0x21472: ret ; (1 found)
0x2149a: ret ; (1 found)
0x214cf: ret ; (1 found)
0x214ff: ret ; (1 found)
0x2151f: ret ; (1 found)
0x2152c: ret ; (1 found)
0x21540: ret ; (1 found)
0x2155c: ret ; (1 found)
0x215b2: ret ; (1 found)
0x21640: ret ; (1 found)
0x216b0: ret ; (1 found)
0x216e8: ret ; (1 found)
0x216f1: ret ; (1 found)
0x21747: ret ; (1 found)
0x21769: ret ; (1 found)
0x21778: ret ; (1 found)
0x2177f: ret ; (1 found)
0x21788: ret ; (1 found)
0x217f3: ret ; (1 found)
0x21845: ret ; (1 found)
0x218a5: ret ; (1 found)
0x218ba: ret ; (1 found)
0x21930: ret ; (1 found)
0x21941: ret ; (1 found)
0x21958: ret ; (1 found)
0x21966: ret ; (1 found)
0x21978: ret ; (1 found)
0x21988: ret ; (1 found)
0x21a1b: ret ; (1 found)
0x21a97: ret ; (1 found)
0x21ce5: ret ; (1 found)
0x21cfa: ret ; (1 found)
0x21d0d: ret ; (1 found)
0x21d18: ret ; (1 found)
0x21d2b: ret ; (1 found)
0x21d40: ret ; (1 found)
0x21d5e: ret ; (1 found)
0x21d6a: ret ; (1 found)
0x21d7d: ret ; (1 found)
0x21d92: ret ; (1 found)
0x21db0: ret ; (1 found)
0x21dd0: ret ; (1 found)
0x21df2: ret ; (1 found)
0x21e12: ret ; (1 found)
0x21e32: ret ; (1 found)
0x21e4c: ret ; (1 found)
0x21e5f: ret ; (1 found)
0x21e74: ret ; (1 found)
0x21e92: ret ; (1 found)
0x21eb2: ret ; (1 found)
0x21ed5: ret ; (1 found)
0x21ef4: ret ; (1 found)
0x21f14: ret ; (1 found)
0x21f34: ret ; (1 found)
0x21f57: ret ; (1 found)
0x21f7c: ret ; (1 found)
0x21f9a: ret ; (1 found)
0x21fba: ret ; (1 found)
0x21fd6: ret ; (1 found)
0x21ff6: ret ; (1 found)
0x22016: ret ; (1 found)
0x22036: ret ; (1 found)
0x22096: ret ; (1 found)
0x220e5: ret ; (1 found)
0x2218a: ret ; (1 found)
0x221b4: ret ; (1 found)
0x221e7: ret ; (1 found)
0x22200: ret ; (1 found)
0x2222f: ret ; (1 found)
0x22493: ret ; (1 found)
0x225d3: ret ; (1 found)
0x22713: ret ; (1 found)
0x22853: ret ; (1 found)
0x22993: ret ; (1 found)
0x22ad3: ret ; (1 found)
0x22c13: ret ; (1 found)
0x22d53: ret ; (1 found)
0x22e93: ret ; (1 found)
0x22fd3: ret ; (1 found)
0x23113: ret ; (1 found)
0x23253: ret ; (1 found)
0x23393: ret ; (1 found)
0x234d3: ret ; (1 found)
0x23613: ret ; (1 found)
0x2367e: ret ; (1 found)
0x23681: ret ; (1 found)
0x23698: ret ; (1 found)
0x237cb: ret ; (1 found)
0x237df: ret ; (1 found)
0x237f6: ret ; (1 found)
0x23840: ret ; (1 found)
0x23899: ret ; (1 found)
0x238e6: ret ; (1 found)
0x23943: ret ; (1 found)
0x23977: ret ; (1 found)
0x2399a: ret ; (1 found)
0x239fb: ret ; (1 found)
0x23cb3: ret ; (1 found)
0x23e33: ret ; (1 found)
0x23fb3: ret ; (1 found)
0x24133: ret ; (1 found)
0x242b3: ret ; (1 found)
0x24433: ret ; (1 found)
0x245b3: ret ; (1 found)
0x24733: ret ; (1 found)
0x248b3: ret ; (1 found)
0x24a33: ret ; (1 found)
0x24bb3: ret ; (1 found)
0x24d33: ret ; (1 found)
0x24eb3: ret ; (1 found)
0x25033: ret ; (1 found)
0x251b3: ret ; (1 found)
0x25233: ret ; (1 found)
0x25236: ret ; (1 found)
0x25248: ret ; (1 found)
0x25258: ret ; (1 found)
0x252f6: ret ; (1 found)
0x25362: ret ; (1 found)
0x25373: ret ; (1 found)
0x253af: ret ; (1 found)
0x253c2: ret ; (1 found)
0x25410: ret ; (1 found)
0x25467: ret ; (1 found)
0x254ba: ret ; (1 found)
0x2550d: ret ; (1 found)
0x255ba: ret ; (1 found)
0x255d8: ret ; (1 found)
0x25607: ret ; (1 found)
0x25620: ret ; (1 found)
0x2564f: ret ; (1 found)
0x2568f: ret ; (1 found)
0x2569d: ret ; (1 found)
0x256c9: ret ; (1 found)
0x256d2: ret ; (1 found)
0x2580c: ret ; (1 found)
0x25ad8: ret ; (1 found)
0x25c10: ret ; (1 found)
0x25eca: ret ; (1 found)
0x25ed0: ret ; (1 found)
0x15392: retn 0x0000 ; (1 found)
0x154a4: retn 0x0000 ; (1 found)
0x15c88: retn 0x0000 ; (1 found)
0x15ee0: retn 0x0000 ; (1 found)
0x15fd8: retn 0x0000 ; (1 found)
0x17630: retn 0x0000 ; (1 found)
0x18dbf: retn 0x0000 ; (1 found)
0x1f940: retn 0x0000 ; (1 found)
0x1f9a5: retn 0x0000 ; (1 found)
0xcca3: retn 0x0001 ; (1 found)
0x1599e: retn 0x0001 ; (1 found)
0x159a9: retn 0x0001 ; (1 found)
0x159b0: retn 0x0001 ; (1 found)
0x159c4: retn 0x0001 ; (1 found)
0x159cb: retn 0x0001 ; (1 found)
0x15a12: retn 0x0001 ; (1 found)
0x57cf: retn 0x0002 ; (1 found)
0x5816: retn 0x0002 ; (1 found)
0x92e4: retn 0x0003 ; (1 found)
0x1b7e3: retn 0x0004 ; (1 found)
0x1e1b5: retn 0x0006 ; (1 found)
0x1853f: retn 0x0007 ; (1 found)
0x1848a: retn 0x0008 ; (1 found)
0x23a5a: retn 0x0017 ; (1 found)
0x1cf96: retn 0x001E ; (1 found)
0xaf81: retn 0x00C6 ; (1 found)
0xaf82: retn 0x00C6 ; (1 found)
0x16605: retn 0x00F5 ; (1 found)
0x167e7: retn 0x00F5 ; (1 found)
0x168a2: retn 0x00F5 ; (1 found)
0x1693a: retn 0x00F5 ; (1 found)
0x1e22a: retn 0x0138 ; (1 found)
0x61ea: retn 0x014C ; (1 found)
0x149bf: retn 0x014D ; (1 found)
0x1bfba: retn 0x015A ; (1 found)
0xbe7a: retn 0x0161 ; (1 found)
0x55a4: retn 0x01B8 ; (1 found)
0x18eba: retn 0x01B8 ; (1 found)
0x1a3db: retn 0x01BF ; (1 found)
0x15176: retn 0x01C9 ; (1 found)
0x49c3: retn 0x0230 ; (1 found)
0x1f35: retn 0x0259 ; (1 found)
0x1f0a: retn 0x026E ; (1 found)
0x1f416: retn 0x02B9 ; (1 found)
0x5e5a: retn 0x02BB ; (1 found)
0x405a: retn 0x02C9 ; (1 found)
0x199f7: retn 0x0589 ; (1 found)
0x199f8: retn 0x0589 ; (1 found)
0x19a4a: retn 0x0589 ; (1 found)
0x19a4b: retn 0x0589 ; (1 found)
0x19a94: retn 0x0589 ; (1 found)
0x19a95: retn 0x0589 ; (1 found)
0x19d19: retn 0x0589 ; (1 found)
0x19d1a: retn 0x0589 ; (1 found)
0x19d48: retn 0x0589 ; (1 found)
0x19d49: retn 0x0589 ; (1 found)
0x19d75: retn 0x0589 ; (1 found)
0x19d76: retn 0x0589 ; (1 found)
0x1c0ae: retn 0x0589 ; (1 found)
0x1c0af: retn 0x0589 ; (1 found)
0x8667: retn 0x05F6 ; (1 found)
0x87a5: retn 0x05F6 ; (1 found)
0x211d5: retn 0x0876 ; (1 found)
0x1cb76: retn 0x08A8 ; (1 found)
0x1d23f: retn 0x08A8 ; (1 found)
0x1709: retn 0x0974 ; (1 found)
0x20560: retn 0x0D8B ; (1 found)
0xe557: retn 0x0E74 ; (1 found)
0xefb2: retn 0x0E74 ; (1 found)
0x604f: retn 0x0F01 ; (1 found)
0x141ff: retn 0x0F01 ; (1 found)
0x14f43: retn 0x0F01 ; (1 found)
0x6a7b: retn 0x0F02 ; (1 found)
0x1c539: retn 0x0F02 ; (1 found)
0x7254: retn 0x0F08 ; (1 found)
0x223f2: retn 0x0F10 ; (1 found)
0x22532: retn 0x0F10 ; (1 found)
0x22672: retn 0x0F10 ; (1 found)
0x227b2: retn 0x0F10 ; (1 found)
0x228f2: retn 0x0F10 ; (1 found)
0x22a32: retn 0x0F10 ; (1 found)
0x22b72: retn 0x0F10 ; (1 found)
0x22cb2: retn 0x0F10 ; (1 found)
0x22df2: retn 0x0F10 ; (1 found)
0x22f32: retn 0x0F10 ; (1 found)
0x23072: retn 0x0F10 ; (1 found)
0x231b2: retn 0x0F10 ; (1 found)
0x232f2: retn 0x0F10 ; (1 found)
0x23432: retn 0x0F10 ; (1 found)
0x23572: retn 0x0F10 ; (1 found)
0x23c02: retn 0x0F10 ; (1 found)
0x23d82: retn 0x0F10 ; (1 found)
0x23f02: retn 0x0F10 ; (1 found)
0x24082: retn 0x0F10 ; (1 found)
0x24202: retn 0x0F10 ; (1 found)
0x24382: retn 0x0F10 ; (1 found)
0x24502: retn 0x0F10 ; (1 found)
0x24682: retn 0x0F10 ; (1 found)
0x24802: retn 0x0F10 ; (1 found)
0x24982: retn 0x0F10 ; (1 found)
0x24b02: retn 0x0F10 ; (1 found)
0x24c82: retn 0x0F10 ; (1 found)
0x24e02: retn 0x0F10 ; (1 found)
0x24f82: retn 0x0F10 ; (1 found)
0x25102: retn 0x0F10 ; (1 found)
0x6c92: retn 0x0F41 ; (1 found)
0xbd40: retn 0x0F41 ; (1 found)
0xc1ce: retn 0x0F41 ; (1 found)
0xef77: retn 0x0F41 ; (1 found)
0x2596: retn 0x0F48 ; (1 found)
0x27bc: retn 0x0F48 ; (1 found)
0x587f: retn 0x0F48 ; (1 found)
0x5c8b: retn 0x0F48 ; (1 found)
0xea23: retn 0x0F48 ; (1 found)
0x1ab62: retn 0x0F48 ; (1 found)
0x204a7: retn 0x0F48 ; (1 found)
0x1fcd0: retn 0x0F49 ; (1 found)
0x219fc: retn 0x0F66 ; (1 found)
0x21a78: retn 0x0F66 ; (1 found)
0x22239: retn 0x0F66 ; (1 found)
0x238b5: retn 0x0F66 ; (1 found)
0x23913: retn 0x0F66 ; (1 found)
0x239d7: retn 0x0F66 ; (1 found)
0x252af: retn 0x0F66 ; (1 found)
0x25323: retn 0x0F66 ; (1 found)
0x253e8: retn 0x0F66 ; (1 found)
0x25443: retn 0x0F66 ; (1 found)
0x25659: retn 0x0F66 ; (1 found)
0x14520: retn 0x0FC3 ; (1 found)
0x14521: retn 0x0FC3 ; (1 found)
0x14551: retn 0x0FC3 ; (1 found)
0x21bc0: retn 0x0FF3 ; (1 found)
0xc53e: retn 0x1072 ; (1 found)
0xebc4: retn 0x1074 ; (1 found)
0x1c41: retn 0x11EB ; (1 found)
0x211c5: retn 0x1876 ; (1 found)
0xd118: retn 0x2275 ; (1 found)
0x1089a: retn 0x2373 ; (1 found)
0x1b06f: retn 0x2773 ; (1 found)
0x25396: retn 0x2774 ; (1 found)
0x211b5: retn 0x2876 ; (1 found)
0x8a1b: retn 0x28E9 ; (1 found)
0xd168: retn 0x28F5 ; (1 found)
0x9c88: retn 0x290F ; (1 found)
0x2bbe: retn 0x2944 ; (1 found)
0x12d0b: retn 0x2944 ; (1 found)
0x18e7e: retn 0x2948 ; (1 found)
0x1ced: retn 0x2B49 ; (1 found)
0x1b346: retn 0x2FBE ; (1 found)
0x1bdee: retn 0x2FBE ; (1 found)
0x7a28: retn 0x3145 ; (1 found)
0x7a29: retn 0x3145 ; (1 found)
0x1aada: retn 0x3145 ; (1 found)
0x16f68: retn 0x3575 ; (1 found)
0x1313b: retn 0x3673 ; (1 found)
0x60e5: retn 0x3841 ; (1 found)
0x211a5: retn 0x3876 ; (1 found)
0xdd23: retn 0x3901 ; (1 found)
0x1d975: retn 0x3908 ; (1 found)
0x67bd: retn 0x3948 ; (1 found)
0x731d: retn 0x3948 ; (1 found)
0x1fc4c: retn 0x394C ; (1 found)
0x135d1: retn 0x3C72 ; (1 found)
0x349b: retn 0x3FE8 ; (1 found)
0x12922: retn 0x42F6 ; (1 found)
0x14c79: retn 0x440F ; (1 found)
0x14c7a: retn 0x440F ; (1 found)
0x1e58d: retn 0x45E9 ; (1 found)
0x1ba0c: retn 0x4674 ; (1 found)
0x9671: retn 0x4801 ; (1 found)
0x9cea: retn 0x4801 ; (1 found)
0x186d4: retn 0x4801 ; (1 found)
0x1cfc2: retn 0x4801 ; (1 found)
0x13c45: retn 0x4802 ; (1 found)
0x15452: retn 0x4804 ; (1 found)
0x745c: retn 0x4807 ; (1 found)
0x1c694: retn 0x4807 ; (1 found)
0x1410: retn 0x4808 ; (1 found)
0xbd7a: retn 0x4808 ; (1 found)
0xbfca: retn 0x4808 ; (1 found)
0xde7a: retn 0x4808 ; (1 found)
0x105e5: retn 0x4808 ; (1 found)
0x17f06: retn 0x4808 ; (1 found)
0x17f20: retn 0x4808 ; (1 found)
0x1b881: retn 0x4808 ; (1 found)
0x1d0e9: retn 0x4808 ; (1 found)
0x1d11c: retn 0x4808 ; (1 found)
0x6edb: retn 0x4810 ; (1 found)
0x19665: retn 0x4810 ; (1 found)
0x1b673: retn 0x4810 ; (1 found)
0x1ca55: retn 0x4810 ; (1 found)
0x1cd96: retn 0x4810 ; (1 found)
0x21c49: retn 0x4810 ; (1 found)
0x20c73: retn 0x4811 ; (1 found)
0x233b: retn 0x4818 ; (1 found)
0x14d12: retn 0x4853 ; (1 found)
0xdf32: retn 0x4866 ; (1 found)
0xdf33: retn 0x4866 ; (1 found)
0x23898: retn 0x48C3 ; (1 found)
0x25361: retn 0x48C3 ; (1 found)
0x1e7a: retn 0x4901 ; (1 found)
0x3a02: retn 0x4901 ; (1 found)
0x3e3d: retn 0x4901 ; (1 found)
0x9883: retn 0x4901 ; (1 found)
0x11117: retn 0x4901 ; (1 found)
0xbd98: retn 0x4902 ; (1 found)
0xc822: retn 0x4908 ; (1 found)
0xc947: retn 0x4908 ; (1 found)
0xca09: retn 0x4908 ; (1 found)
0xcb7a: retn 0x4908 ; (1 found)
0x183ff: retn 0x4910 ; (1 found)
0x1ead7: retn 0x4C01 ; (1 found)
0xde45: retn 0x4C08 ; (1 found)
0xae28: retn 0x4C10 ; (1 found)
0x10b2d: retn 0x4D01 ; (1 found)
0xab4f: retn 0x4D30 ; (1 found)
0x14547: retn 0x538D ; (1 found)
0x8c71: retn 0x5441 ; (1 found)
0x21131: retn 0x6620 ; (1 found)
0x221b2: retn 0x66C3 ; (1 found)
0x221b3: retn 0x66C3 ; (1 found)
0x238e5: retn 0x66C3 ; (1 found)
0x23942: retn 0x66C3 ; (1 found)
0x252f5: retn 0x66C3 ; (1 found)
0x25372: retn 0x66C3 ; (1 found)
0xa55c: retn 0x6D72 ; (1 found)
0x7216: retn 0x7402 ; (1 found)
0x1cb27: retn 0x7402 ; (1 found)
0x6a1d: retn 0x7404 ; (1 found)
0x7222: retn 0x7404 ; (1 found)
0x1cb33: retn 0x7404 ; (1 found)
0x20091: retn 0x7540 ; (1 found)
0x20706: retn 0x7540 ; (1 found)
0xdad0: retn 0x7D72 ; (1 found)
0x210d1: retn 0x7E20 ; (1 found)
0x2243c: retn 0x7F10 ; (1 found)
0x2257c: retn 0x7F10 ; (1 found)
0x226bc: retn 0x7F10 ; (1 found)
0x227fc: retn 0x7F10 ; (1 found)
0x2293c: retn 0x7F10 ; (1 found)
0x22a7c: retn 0x7F10 ; (1 found)
0x22bbc: retn 0x7F10 ; (1 found)
0x22cfc: retn 0x7F10 ; (1 found)
0x22e3c: retn 0x7F10 ; (1 found)
0x22f7c: retn 0x7F10 ; (1 found)
0x230bc: retn 0x7F10 ; (1 found)
0x231fc: retn 0x7F10 ; (1 found)
0x2333c: retn 0x7F10 ; (1 found)
0x2347c: retn 0x7F10 ; (1 found)
0x235bc: retn 0x7F10 ; (1 found)
0x23c56: retn 0x7F10 ; (1 found)
0x23dd6: retn 0x7F10 ; (1 found)
0x23f56: retn 0x7F10 ; (1 found)
0x240d6: retn 0x7F10 ; (1 found)
0x24256: retn 0x7F10 ; (1 found)
0x243d6: retn 0x7F10 ; (1 found)
0x24556: retn 0x7F10 ; (1 found)
0x246d6: retn 0x7F10 ; (1 found)
0x24856: retn 0x7F10 ; (1 found)
0x249d6: retn 0x7F10 ; (1 found)
0x24b56: retn 0x7F10 ; (1 found)
0x24cd6: retn 0x7F10 ; (1 found)
0x24e56: retn 0x7F10 ; (1 found)
0x24fd6: retn 0x7F10 ; (1 found)
0x25156: retn 0x7F10 ; (1 found)
0x23619: retn 0x8000 ; (1 found)
0x251b9: retn 0x8000 ; (1 found)
0x1333: retn 0x8001 ; (1 found)
0x1453d: retn 0x8101 ; (1 found)
0x17fd4: retn 0x8148 ; (1 found)
0x1f298: retn 0x82E9 ; (1 found)
0x14f32: retn 0x8301 ; (1 found)
0x15329: retn 0x8304 ; (1 found)
0x9499: retn 0x830F ; (1 found)
0xb45b: retn 0x830F ; (1 found)
0xea44: retn 0x830F ; (1 found)
0xf3b8: retn 0x830F ; (1 found)
0x14095: retn 0x830F ; (1 found)
0x21448: retn 0x8340 ; (1 found)
0x4884: retn 0x8348 ; (1 found)
0x9a64: retn 0x8348 ; (1 found)
0xa823: retn 0x8348 ; (1 found)
0xaf72: retn 0x8348 ; (1 found)
0xbd8a: retn 0x8348 ; (1 found)
0x13ab2: retn 0x8348 ; (1 found)
0x17ec0: retn 0x8348 ; (1 found)
0x182e2: retn 0x8348 ; (1 found)
0x1d92c: retn 0x8348 ; (1 found)
0xd94b: retn 0x8364 ; (1 found)
0x64b7: retn 0x8401 ; (1 found)
0xc69e: retn 0x8401 ; (1 found)
0x19466: retn 0x8401 ; (1 found)
0xdf60: retn 0x840F ; (1 found)
0x8842: retn 0x850F ; (1 found)
0x12c65: retn 0x850F ; (1 found)
0x94b3: retn 0x8545 ; (1 found)
0x457b: retn 0x8548 ; (1 found)
0x5ca5: retn 0x8548 ; (1 found)
0x11bb2: retn 0x8548 ; (1 found)
0x137fb: retn 0x8548 ; (1 found)
0x188b3: retn 0x8548 ; (1 found)
0x20de5: retn 0x854D ; (1 found)
0xe54f: retn 0x8566 ; (1 found)
0xebb5: retn 0x8566 ; (1 found)
0xefaa: retn 0x8566 ; (1 found)
0x186d8: retn 0x8575 ; (1 found)
0x20f3e: retn 0x860F ; (1 found)
0xbeba: retn 0x87F6 ; (1 found)
0xb466: retn 0x8941 ; (1 found)
0xb4f5: retn 0x8941 ; (1 found)
0x8ec9: retn 0x8944 ; (1 found)
0x6a94: retn 0x8948 ; (1 found)
0x7919: retn 0x8948 ; (1 found)
0xff19: retn 0x8948 ; (1 found)
0x10313: retn 0x8948 ; (1 found)
0x1074f: retn 0x8948 ; (1 found)
0x12da0: retn 0x8948 ; (1 found)
0x12da1: retn 0x8948 ; (1 found)
0x146a2: retn 0x8948 ; (1 found)
0x146a3: retn 0x8948 ; (1 found)
0x169bb: retn 0x8948 ; (1 found)
0x18645: retn 0x8948 ; (1 found)
0x1af41: retn 0x8948 ; (1 found)
0x1af42: retn 0x8948 ; (1 found)
0xf84b: retn 0x8949 ; (1 found)
0x1ad73: retn 0x8949 ; (1 found)
0x3634: retn 0x894C ; (1 found)
0x4c83: retn 0x894C ; (1 found)
0x4cd6: retn 0x894C ; (1 found)
0x7cec: retn 0x894C ; (1 found)
0xe4e1: retn 0x894C ; (1 found)
0xe4e2: retn 0x894C ; (1 found)
0x7478: retn 0x8B44 ; (1 found)
0x1c6b0: retn 0x8B44 ; (1 found)
0x3bf7: retn 0x8B48 ; (1 found)
0x93ad: retn 0x8B48 ; (1 found)
0xbb8a: retn 0x8B48 ; (1 found)
0xbc94: retn 0x8B48 ; (1 found)
0xe7c1: retn 0x8B48 ; (1 found)
0xf1c9: retn 0x8B48 ; (1 found)
0x1357c: retn 0x8B48 ; (1 found)
0x16f91: retn 0x8B48 ; (1 found)
0x16f92: retn 0x8B48 ; (1 found)
0x9e92: retn 0x8B49 ; (1 found)
0xdecd: retn 0x8B49 ; (1 found)
0xdece: retn 0x8B49 ; (1 found)
0xf3ab: retn 0x8B49 ; (1 found)
0x109bc: retn 0x8B49 ; (1 found)
0x664e: retn 0x8D48 ; (1 found)
0x917d: retn 0x8D48 ; (1 found)
0x9742: retn 0x8D48 ; (1 found)
0xebff: retn 0x8D48 ; (1 found)
0xfe34: retn 0x8D48 ; (1 found)
0xfe84: retn 0x8D48 ; (1 found)
0x1af45: retn 0x8D48 ; (1 found)
0x1b178: retn 0x8D48 ; (1 found)
0x1c4e6: retn 0x8D48 ; (1 found)
0x1ec71: retn 0x8D48 ; (1 found)
0x101d9: retn 0x8D49 ; (1 found)
0x73ce: retn 0x8D4A ; (1 found)
0x1c5fe: retn 0x8D4A ; (1 found)
0xdf38: retn 0x8D4C ; (1 found)
0x171ed: retn 0x9066 ; (1 found)
0x22094: retn 0x90C3 ; (1 found)
0x22095: retn 0x90C3 ; (1 found)
0x167ad: retn 0x9388 ; (1 found)
0x13362: retn 0x98E8 ; (1 found)
0x14f4a: retn 0xA5E9 ; (1 found)
0xa778: retn 0xA5EB ; (1 found)
0xa6b1: retn 0xB60F ; (1 found)
0xa6d3: retn 0xB60F ; (1 found)
0xb16c: retn 0xB60F ; (1 found)
0xbf8d: retn 0xB60F ; (1 found)
0x12802: retn 0xB70F ; (1 found)
0x1dc03: retn 0xB7E8 ; (1 found)
0x1fd22: retn 0xB8E8 ; (1 found)
0x7387: retn 0xBA41 ; (1 found)
0x1c5b4: retn 0xBA41 ; (1 found)
0x234d9: retn 0xC000 ; (1 found)
0x25039: retn 0xC000 ; (1 found)
0xb219: retn 0xC031 ; (1 found)
0xd431: retn 0xC031 ; (1 found)
0xfe56: retn 0xC031 ; (1 found)
0x1526a: retn 0xC031 ; (1 found)
0x173a6: retn 0xC031 ; (1 found)
0x1af87: retn 0xC031 ; (1 found)
0x336b: retn 0xC083 ; (1 found)
0x3521: retn 0xC083 ; (1 found)
0x3592: retn 0xC083 ; (1 found)
0x361a: retn 0xC083 ; (1 found)
0x47c7: retn 0xC084 ; (1 found)
0x51db: retn 0xC084 ; (1 found)
0x13c5e: retn 0xC084 ; (1 found)
0x20f90: retn 0xC085 ; (1 found)
0x20ffa: retn 0xC085 ; (1 found)
0x21098: retn 0xC085 ; (1 found)
0x210f5: retn 0xC085 ; (1 found)
0x21830: retn 0xC085 ; (1 found)
0x21890: retn 0xC085 ; (1 found)
0x2191a: retn 0xC085 ; (1 found)
0x3e52: retn 0xC148 ; (1 found)
0x4344: retn 0xC148 ; (1 found)
0x678d: retn 0xC148 ; (1 found)
0x7861: retn 0xC148 ; (1 found)
0xa700: retn 0xC148 ; (1 found)
0xd8f2: retn 0xC148 ; (1 found)
0x166f1: retn 0xC148 ; (1 found)
0x16a2a: retn 0xC148 ; (1 found)
0x16cbb: retn 0xC148 ; (1 found)
0x192bd: retn 0xC148 ; (1 found)
0x1b9fa: retn 0xC148 ; (1 found)
0x204f3: retn 0xC148 ; (1 found)
0x22181: retn 0xC148 ; (1 found)
0x255b1: retn 0xC148 ; (1 found)
0x180f9: retn 0xC1E8 ; (1 found)
0x3d06: retn 0xC748 ; (1 found)
0xb783: retn 0xC748 ; (1 found)
0x2c19: retn 0xC931 ; (1 found)
0xb426: retn 0xCF89 ; (1 found)
0x12fd6: retn 0xD039 ; (1 found)
0x1fb71: retn 0xD108 ; (1 found)
0x14c75: retn 0xD284 ; (1 found)
0x8ed3: retn 0xD348 ; (1 found)
0x10a33: retn 0xD375 ; (1 found)
0x14f39: retn 0xDA89 ; (1 found)
0x17f9c: retn 0xDAEB ; (1 found)
0x1be99: retn 0xDB31 ; (1 found)
0x1be9a: retn 0xDB31 ; (1 found)
0x152c: retn 0xDE89 ; (1 found)
0x23399: retn 0xE000 ; (1 found)
0x24eb9: retn 0xE000 ; (1 found)
0x9095: retn 0xE083 ; (1 found)
0x199eb: retn 0xE083 ; (1 found)
0x19a3e: retn 0xE083 ; (1 found)
0x19a88: retn 0xE083 ; (1 found)
0x19d3c: retn 0xE083 ; (1 found)
0x7287: retn 0xE281 ; (1 found)
0x153ee: retn 0xE281 ; (1 found)
0x15c01: retn 0xE281 ; (1 found)
0x15fb: retn 0xE283 ; (1 found)
0x1a13: retn 0xE283 ; (1 found)
0x226e: retn 0xE283 ; (1 found)
0x8edf: retn 0xE283 ; (1 found)
0x1447b: retn 0xE283 ; (1 found)
0x144b0: retn 0xE283 ; (1 found)
0x147ce: retn 0xE283 ; (1 found)
0x14e13: retn 0xE283 ; (1 found)
0x14e41: retn 0xE283 ; (1 found)
0x151e2: retn 0xE283 ; (1 found)
0xdc91: retn 0xE2C1 ; (1 found)
0x19d0d: retn 0xE480 ; (1 found)
0x19d69: retn 0xE480 ; (1 found)
0x1091b: retn 0xE883 ; (1 found)
0x11a55: retn 0xE95B ; (1 found)
0x9161: retn 0xEA31 ; (1 found)
0x1479a: retn 0xEAC1 ; (1 found)
0x147b6: retn 0xEAC1 ; (1 found)
0x147c0: retn 0xEAC1 ; (1 found)
0x18f98: retn 0xEAD1 ; (1 found)
0x140ce: retn 0xEB01 ; (1 found)
0x1b091: retn 0xEC72 ; (1 found)
0x14aa7: retn 0xED31 ; (1 found)
0x9ecc: retn 0xED75 ; (1 found)
0x23259: retn 0xF000 ; (1 found)
0x24d39: retn 0xF000 ; (1 found)
0x1d71: retn 0xF631 ; (1 found)
0xc13e: retn 0xF641 ; (1 found)
0x18bba: retn 0xF701 ; (1 found)
0xa7ba: retn 0xF748 ; (1 found)
0x23119: retn 0xF800 ; (1 found)
0x24bb9: retn 0xF800 ; (1 found)
0x8115: retn 0xF883 ; (1 found)
0x821b: retn 0xF883 ; (1 found)
0x82cb: retn 0xF883 ; (1 found)
0x16336: retn 0xF883 ; (1 found)
0x20459: retn 0xF883 ; (1 found)
0x4f22: retn 0xF8E8 ; (1 found)
0x14b1b: retn 0xF981 ; (1 found)
0x84e9: retn 0xFA83 ; (1 found)
0x22fd9: retn 0xFC00 ; (1 found)
0x24a39: retn 0xFC00 ; (1 found)
0x22e99: retn 0xFE00 ; (1 found)
0x248b9: retn 0xFE00 ; (1 found)
0x22d59: retn 0xFF00 ; (1 found)
0x24739: retn 0xFF00 ; (1 found)
0x1d28a: retn 0xFF32 ; (1 found)
0x22c19: retn 0xFF80 ; (1 found)
0x245b9: retn 0xFF80 ; (1 found)
0x22ad9: retn 0xFFC0 ; (1 found)
0x24439: retn 0xFFC0 ; (1 found)
0x1b57a: retn 0xFFDB ; (1 found)
0x22999: retn 0xFFE0 ; (1 found)
0x242b9: retn 0xFFE0 ; (1 found)
0x22859: retn 0xFFF0 ; (1 found)
0x24139: retn 0xFFF0 ; (1 found)
0x22719: retn 0xFFF8 ; (1 found)
0x23fb9: retn 0xFFF8 ; (1 found)
0xf607: retn 0xFFF9 ; (1 found)
0x2d07: retn 0xFFFB ; (1 found)
0x1a07b: retn 0xFFFB ; (1 found)
0x225d9: retn 0xFFFC ; (1 found)
0x23e39: retn 0xFFFC ; (1 found)
0x198ea: retn 0xFFFE ; (1 found)
0x22499: retn 0xFFFE ; (1 found)
0x23cb9: retn 0xFFFE ; (1 found)
0x12d8d: retn 0xFFFF ; (1 found)
0x17424: retn 0xFFFF ; (1 found)
0x1e209: retn 0xFFFF ; (1 found)
0x1eca1: retn 0xFFFF ; (1 found)
0x21154: rol  [rbp+0x315775C0], 0xFFFFFFC0 ; ret ; (1 found)
0x2112e: rol bl, 0x83 ; retn 0x6620 ; (1 found)
0x1469c: rol byte [rax+0x0F48F0E5], 0x45 ; retn 0x8948 ; (1 found)
0x25392: rol byte [rax+0x49], 0x39 ; retn 0x2774 ; (1 found)
0x721d: rol byte [rax], 0x00 ; add dh, dh ; retn 0x7404 ; (1 found)
0x1cb2e: rol byte [rax], 0x00 ; add dh, dh ; retn 0x7404 ; (1 found)
0x20e80: rol byte [rax], 1 ; add byte [rax], al ; ret ; (1 found)
0x20eb2: rol byte [rax], 1 ; add byte [rax], al ; ret ; (1 found)
0x21912: rol byte [rbp+0x664975C0], 0x0F ; xlatb ; retn 0xC085 ; (1 found)
0x17f24: rol byte [rbx], 0x48 ; mov  [rdi], edx ; ret ; (1 found)
0x14f35: rol byte [rcx], 0x0F ; scasd ; retn 0xDA89 ; (1 found)
0x18e1c: rol byte [rsi], 0xC3 ; mov eax, 0x00000004 ; ret ; (1 found)
0x1b662: ror  [rax+0x29], cl ; ret ; (1 found)
0x5c87: ror  [rax+0x39], 1 ; retn 0x0F48 ; (1 found)
0x5c88: ror  [rax+0x39], 1 ; retn 0x0F48 ; (1 found)
0x6ed4: ror  [rax-0x75], 0x42 ; adc byte [rax-0x7D], cl ; retn 0x4810 ; (1 found)
0x1b66c: ror  [rax-0x75], 0x42 ; adc byte [rax-0x7D], cl ; retn 0x4810 ; (1 found)
0x1ca4e: ror  [rax-0x75], 0x42 ; adc byte [rax-0x7D], cl ; retn 0x4810 ; (1 found)
0x180f6: ror  [rax-0x77], 1 ; retn 0xC1E8 ; (1 found)
0x8ed0: ror  [rax-0x77], 1 ; retn 0xD348 ; (1 found)
0x17fd1: ror  [rax-0x77], cl ; retn 0x8148 ; (1 found)
0x1330: ror  [rax], 0xFFFFFF83 ; retn 0x8001 ; (1 found)
0x1454e: ror  [rdi], 0xFFFFFFAF ; retn 0x0FC3 ; (1 found)
0x14f47: ror  [rdi], 0xFFFFFFAF ; retn 0xA5E9 ; (1 found)
0xdf2b: ror byte [r8-0x7B], 1 ; ror byte [rax+0x0F], 0x44 ; retn 0x4866 ; (1 found)
0x217ec: ror byte [rax+0x01], 0xF8 ; add rax, rcx ; ret ; (1 found)
0x21172: ror byte [rax+0x01], 0xF8 ; ret ; (1 found)
0x21962: ror byte [rax+0x01], 0xF8 ; ret ; (1 found)
0xead0: ror byte [rax+0x0F], 0x44 ; ret ; (1 found)
0xf490: ror byte [rax+0x0F], 0x44 ; ret ; (1 found)
0xdf2f: ror byte [rax+0x0F], 0x44 ; retn 0x4866 ; (1 found)
0x1af3e: ror byte [rax+0x0F], 0x44 ; retn 0x8948 ; (1 found)
0x239f7: ror byte [rax+0x29], 1 ; clc ; ret ; (1 found)
0x2540c: ror byte [rax+0x29], 1 ; clc ; ret ; (1 found)
0x25463: ror byte [rax+0x29], 1 ; clc ; ret ; (1 found)
0x21162: ror byte [rax-0x73], 0x44 ; cmp al, dh ; ret ; (1 found)
0x21952: ror byte [rax-0x73], 0x44 ; cmp al, dh ; ret ; (1 found)
0x21192: ror byte [rax-0x73], 0x44 ; cmp byte [rax], ah ; ret ; (1 found)
0x21982: ror byte [rax-0x73], 0x44 ; cmp byte [rax], ah ; ret ; (1 found)
0x21182: ror byte [rax-0x73], 0x44 ; cmp byte [rax], dl ; ret ; (1 found)
0x21972: ror byte [rax-0x73], 0x44 ; cmp byte [rax], dl ; ret ; (1 found)
0x94b0: ror byte [rax-0x77], 1 ; retn 0x8545 ; (1 found)
0xa6fd: ror byte [rax-0x77], 1 ; retn 0xC148 ; (1 found)
0x192ba: ror byte [rax-0x77], 1 ; retn 0xC148 ; (1 found)
0xdf2c: ror byte [rax-0x7B], 1 ; ror byte [rax+0x0F], 0x44 ; retn 0x4866 ; (1 found)
0x1049c: ror byte [rax-0x7D], 0xC4 ; or byte [rbx+0x5D], bl ; ret ; (1 found)
0xe754: ror byte [rax-0x7D], 1 ; ret ; (1 found)
0x10b2a: ror byte [rax-0x7D], 1 ; retn 0x4D01 ; (1 found)
0xb4f2: ror byte [rax], 0x89 ; retn 0x8941 ; (1 found)
0x21c2b: ror byte [rbp+rcx*4+0x1D], cl ; call qword [rbp+0x00] ; (1 found)
0x1070e: ror byte [rcx+0x02169B05], 0x00 ; add rsp, 0x18 ; ret ; (1 found)
0x16330: ror byte [rcx-0x769BDBBC], 1 ; retn 0xF883 ; (1 found)
0x3e3a: ror byte [rcx-0x7D], 1 ; retn 0x4901 ; (1 found)
0x20d22: ror byte [rdi], 0x00 ; add byte [rax], al ; syscall ; (1 found)
0x13e55: ror byte [rdi], 0x85 ; ret ; (1 found)
0x1dc00: ror byte [rdi], 0x95 ; retn 0xB7E8 ; (1 found)
0x215ac: ror byte [rdi], 1 ; adc  [rdi+rdx-0x40], edi ; ret ; (1 found)
0x14c77: ror byte [rdi], cl ; retn 0x440F ; (1 found)
0x17f99: ror byte [rdi], cl ; xchg eax, esp ; retn 0xDAEB ; (1 found)
0xaad7: sal  [rbp-0x2A], 1 ; mov eax,  [rcx] ; ret ; (1 found)
0x3ead: sal  [rbp-0x78], cl ; ret ; (1 found)
0x1469a: sal  [rcx], 1 ; rol byte [rax+0x0F48F0E5], 0x45 ; retn 0x8948 ; (1 found)
0x23617: sal bh, 1 ; retn 0x8000 ; (1 found)
0x251b7: sal bh, 1 ; retn 0x8000 ; (1 found)
0x234d7: sal bh, 1 ; retn 0xC000 ; (1 found)
0x25037: sal bh, 1 ; retn 0xC000 ; (1 found)
0x23397: sal bh, 1 ; retn 0xE000 ; (1 found)
0x24eb7: sal bh, 1 ; retn 0xE000 ; (1 found)
0x23257: sal bh, 1 ; retn 0xF000 ; (1 found)
0x24d37: sal bh, 1 ; retn 0xF000 ; (1 found)
0x23117: sal bh, 1 ; retn 0xF800 ; (1 found)
0x24bb7: sal bh, 1 ; retn 0xF800 ; (1 found)
0x22fd7: sal bh, 1 ; retn 0xFC00 ; (1 found)
0x24a37: sal bh, 1 ; retn 0xFC00 ; (1 found)
0x22e97: sal bh, 1 ; retn 0xFE00 ; (1 found)
0x248b7: sal bh, 1 ; retn 0xFE00 ; (1 found)
0x22d57: sal bh, 1 ; retn 0xFF00 ; (1 found)
0x24737: sal bh, 1 ; retn 0xFF00 ; (1 found)
0x22c17: sal bh, 1 ; retn 0xFF80 ; (1 found)
0x245b7: sal bh, 1 ; retn 0xFF80 ; (1 found)
0x22ad7: sal bh, 1 ; retn 0xFFC0 ; (1 found)
0x24437: sal bh, 1 ; retn 0xFFC0 ; (1 found)
0x22997: sal bh, 1 ; retn 0xFFE0 ; (1 found)
0x242b7: sal bh, 1 ; retn 0xFFE0 ; (1 found)
0x22857: sal bh, 1 ; retn 0xFFF0 ; (1 found)
0x24137: sal bh, 1 ; retn 0xFFF0 ; (1 found)
0x22717: sal bh, 1 ; retn 0xFFF8 ; (1 found)
0x23fb7: sal bh, 1 ; retn 0xFFF8 ; (1 found)
0x225d7: sal bh, 1 ; retn 0xFFFC ; (1 found)
0x23e37: sal bh, 1 ; retn 0xFFFC ; (1 found)
0x22497: sal bh, 1 ; retn 0xFFFE ; (1 found)
0x23cb7: sal bh, 1 ; retn 0xFFFE ; (1 found)
0x12595: sal byte [rax+rbx*2+0x48], 0x01 ; ret ; (1 found)
0xdb76: sal byte [rbp+0x02], 0x5B ; ret ; (1 found)
0xf176: sal byte [rbp+0x02], cl ; call rax ; (1 found)
0x1b59f: sal byte [rbp+0x06], 0x5B ; ret ; (1 found)
0xe96e: sal byte [rbp+0x10], 0x4C ; mov  [rbp-0x000000C0], edx ; call rax ; (1 found)
0x1664a: sal byte [rbp+rax+0x48], 0x85 ; push qword [rbp+0x06] ; ret ; (1 found)
0x14028: sal byte [rbp+rcx+0x48], cl ; lea edi,  [rcx+rax+0x48] ; jmp rdx ; (1 found)
0x45a4: sal byte [rbp-0x17], cl ; ret ; (1 found)
0xa8d2: sal byte [rbx+rbp*8+0x31], 0xC0 ; ret ; (1 found)
0x1147c: sal byte [rcx+rcx+0x5B], 0x5D ; pop r12 ; ret ; (1 found)
0x1f1f4: sal byte [rcx+rdi*2+0x48], 0x01 ; ret ; (1 found)
0x2393c: sal byte [rcx+rdx+0x48], cl ; bsf eax, edx ; ret ; (1 found)
0x2536c: sal byte [rcx+rdx+0x48], cl ; bsf eax, edx ; ret ; (1 found)
0x5946: sal byte [rdi+0x48], 0x89 ; ret ; (1 found)
0x1f293: sal byte [rdi+rbx+0x49], 0x01 ; retn 0x82E9 ; (1 found)
0x2535b: sal byte [rdx+0x48], cl ; bsf eax, edx ; ret ; (1 found)
0x16547: sal byte [rsi+rax+0x31], 0xC0 ; ret ; (1 found)
0x10dcf: sal byte [rsi+rbp*2+0x48], 0x01 ; ret ; (1 found)
0x127fd: sal byte [rsp+rbx+0x48], 0x01 ; retn 0xB70F ; (1 found)
0x7252: sal dh, 1 ; retn 0x0F08 ; (1 found)
0xaad9: salc ; mov eax,  [rcx] ; ret ; (1 found)
0x1ecfb: sar bh, 1 ; inc  [rcx] ; ret ; (1 found)
0x1dfd9: sar bh, cl ; dec  [rax-0x77] ; ret ; (1 found)
0x204aa: sar byte [r8+0x000000D9], 1 ; syscall ; (1 found)
0x204ab: sar byte [rax+0x000000D9], 1 ; syscall ; (1 found)
0x20ba6: sar byte [rdx+0x00000001], cl ; mov eax, 0x000000CA ; syscall ; (1 found)
0x180fb: sar esi, 0xFFFFFFFF ; call qword [rax+0x53FD8955] ; (1 found)
0xea41: sbb  [rax+0x39], ecx ; retn 0x830F ; (1 found)
0xf3b5: sbb  [rax+0x39], ecx ; retn 0x830F ; (1 found)
0x12142: sbb al, 0x24 ; add rsp, 0x18 ; jmp r11 ; (1 found)
0x12210: sbb al, 0x24 ; add rsp, 0x18 ; jmp r11 ; (1 found)
0x122d0: sbb al, 0x24 ; add rsp, 0x18 ; jmp r11 ; (1 found)
0x1203c: sbb al, 0x24 ; add rsp, 0x30 ; jmp r11 ; (1 found)
0x259e8: sbb al, 0x24 ; add rsp, 0x30 ; jmp r11 ; (1 found)
0x25df0: sbb al, 0x24 ; add rsp, 0x30 ; jmp r11 ; (1 found)
0x120bc: sbb al, 0x24 ; add rsp, 0x30 ; ret ; (1 found)
0x25ad2: sbb al, 0x24 ; add rsp, 0x30 ; ret ; (1 found)
0x25ec4: sbb al, 0x24 ; add rsp, 0x30 ; ret ; (1 found)
0x20bfb: sbb al, 0xF4 ; mov eax, esi ; syscall ; (1 found)
0x115f4: sbb al, byte [rdx] ; add byte [rax-0x7D], cl ; ret ; (1 found)
0x207f5: sbb bh, byte [rax+0x00000048] ; syscall ; (1 found)
0x42b0: sbb byte [r8+0x39], cl ; ret ; (1 found)
0x43f5: sbb byte [r8+0x39], cl ; ret ; (1 found)
0xbaf7: sbb byte [r8-0x77], r9L ; ret ; (1 found)
0x42b1: sbb byte [rax+0x39], cl ; ret ; (1 found)
0x43f6: sbb byte [rax+0x39], cl ; ret ; (1 found)
0xe5a7: sbb byte [rax+0x39], cl ; ret ; (1 found)
0xeffb: sbb byte [rax+0x39], cl ; ret ; (1 found)
0xbaf8: sbb byte [rax-0x77], cl ; ret ; (1 found)
0x1e589: sbb byte [rax-0x77], cl ; retn 0x45E9 ; (1 found)
0x1e58a: sbb byte [rax-0x77], cl ; retn 0x45E9 ; (1 found)
0x1065f: sbb byte [rax-0x7D], cl ; ret ; (1 found)
0x16f2e: sbb byte [rbp+rcx*4+0x4C], cl ; and al, 0x34 ; call rax ; (1 found)
0x37e4: sbb byte [rbx+0x5D], bl ; ret ; (1 found)
0x171c9: sbb byte [rbx+0x5D], bl ; ret ; (1 found)
0x17229: sbb byte [rbx+0x5D], bl ; ret ; (1 found)
0x17294: sbb byte [rbx+0x5D], bl ; ret ; (1 found)
0x1712d: sbb byte [rbx+rcx*4+0x44], cl ; and al, 0x10 ; call rax ; (1 found)
0x18285: sbb byte [rcx], al ; add byte [rax], al ; ret ; (1 found)
0x1c5af: sbb eax, 0x01480000 ; retn 0xBA41 ; (1 found)
0x11eaf: sbb eax, 0x02 ; add byte [rax], al ; syscall ; (1 found)
0x21279: sbb eax, eax ; or eax, 0x01 ; ret ; (1 found)
0x1b4f0: sbb edi, edi ; jmp qword [rsi+0x66] ; (1 found)
0x364b: sbb esi, 0x89480001 ; ret ; (1 found)
0x18349: scasb ; add  [rax], eax ; call rsi ; (1 found)
0xe57c: scasb ; add rax, rsi ; jmp rax ; (1 found)
0xefd7: scasd ; add rax, rdi ; jmp rax ; (1 found)
0x14550: scasd ; retn 0x0FC3 ; (1 found)
0x14d11: scasd ; retn 0x4853 ; (1 found)
0x14546: scasd ; retn 0x538D ; (1 found)
0x14f49: scasd ; retn 0xA5E9 ; (1 found)
0x14f38: scasd ; retn 0xDA89 ; (1 found)
0x1454d: scasd ; ror  [rdi], 0xFFFFFFAF ; retn 0x0FC3 ; (1 found)
0x14f46: scasd ; ror  [rdi], 0xFFFFFFAF ; retn 0xA5E9 ; (1 found)
0x11b19: scasd ; xor eax, eax ; ret ; (1 found)
0x19186: setne al ; ret ; (1 found)
0x20f8c: shl  [rsi+0x0F], 1 ; xlatb ; retn 0xC085 ; (1 found)
0x20ff6: shl  [rsi+0x0F], 1 ; xlatb ; retn 0xC085 ; (1 found)
0x210f1: shl  [rsi+0x0F], 1 ; xlatb ; retn 0xC085 ; (1 found)
0x2182c: shl  [rsi+0x0F], 1 ; xlatb ; retn 0xC085 ; (1 found)
0x2188c: shl  [rsi+0x0F], 1 ; xlatb ; retn 0xC085 ; (1 found)
0x93a9: shl  [rsi+0x0F], cl ; insb ; retn 0x8B48 ; (1 found)
0x3d0f: shl byte [rsi+0x0F], 0x6C ; ret ; (1 found)
0x22235: shl byte [rsi+0x0F], 0xEB ; retn 0x0F66 ; (1 found)
0x25655: shl byte [rsi+0x0F], 0xEB ; retn 0x0F66 ; (1 found)
0xef73: shl byte [rsi+0x0F], cl ; insb ; retn 0x0F41 ; (1 found)
0x1670d: shl eax, 0x04 ; lea rsi, qword [rax+r14] ; call rcx ; (1 found)
0x98f0: shl ebp, 0x05 ; add r13, rax ; call qword [r13+0x68] ; (1 found)
0x98ee: shl r13, 0x05 ; add r13, rax ; call qword [r13+0x68] ; (1 found)
0x98ef: shl r13, 0x05 ; add r13, rax ; call qword [r13+0x68] ; (1 found)
0x1670c: shl rax, 0x04 ; lea rsi, qword [rax+r14] ; call rcx ; (1 found)
0x1b4ed: shr al, 0x0D ; sbb edi, edi ; jmp qword [rsi+0x66] ; (1 found)
0x1af4e: shr cl, 0x0C ; and bh, bh ; jmp qword [rsi+0x66] ; (1 found)
0x18e18: shr eax, 0x1F ; add eax, 0x06 ; ret ; (1 found)
0x18d61: stc ; add byte [rcx+0x08740000], al ; ret ; (1 found)
0xc7ae: stc ; and eax, 0x63485875 ; ret ; (1 found)
0x2ebb: stosd ; idiv edi ; call qword [rax+0x4CF7894C] ; (1 found)
0x20383: sub  [rbx+0x10], eax ; pop rbx ; ret ; (1 found)
0x2090d: sub  [rcx], eax ; add byte [rax-0x00000001], bh ; ret ; (1 found)
0x207a5: sub al, byte [rcx] ; add byte [rax-0x00000001], bh ; ret ; (1 found)
0x207c5: sub al, byte [rcx] ; add byte [rax-0x00000001], bh ; ret ; (1 found)
0x2082d: sub al, byte [rcx] ; add byte [rax-0x00000001], bh ; ret ; (1 found)
0x20885: sub al, byte [rcx] ; add byte [rax-0x00000001], bh ; ret ; (1 found)
0x13384: sub byte [rax+0x39], cl ; ret ; (1 found)
0x1ffda: sub byte [rax+0x39], cl ; ret ; (1 found)
0xa7b7: sub byte [rax-0x77], cl ; retn 0xF748 ; (1 found)
0x20538: sub byte [rbx-0x1B], dh ; mov eax, 0x00000001 ; ret ; (1 found)
0x20537: sub byte [rbx-0x1B], sil ; mov eax, 0x00000001 ; ret ; (1 found)
0x105b6: sub byte [rbx], al ; add byte [rax], al ; ret ; (1 found)
0x13138: sub byte [rcx+0x39], cl ; retn 0x3673 ; (1 found)
0x20ccf: sub byte [rcx-0x3B76B310], cl ; mov rbp, r9 ; jmp rdx ; (1 found)
0x143cc: sub eax,  [0x00000000] ; mov rdi, qword [rsp-0x08] ; ret ; (1 found)
0x14386: sub eax,  [0x00000000] ; ret ; (1 found)
0x206ed: sub eax,  [rcx] ; add byte [rax-0x00000001], bh ; ret ; (1 found)
0x2075c: sub eax,  [rcx] ; add byte [rax-0x00000001], bh ; ret ; (1 found)
0x2075d: sub eax,  [rcx] ; add byte [rax-0x00000001], bh ; ret ; (1 found)
0x2055b: sub eax, 0x89480001 ; retn 0x0D8B ; (1 found)
0x12d0d: sub eax, eax ; ret ; (1 found)
0x237f3: sub eax, ebx ; pop rbx ; ret ; (1 found)
0x21268: sub eax, ecx ; ret ; (1 found)
0x2129b: sub eax, ecx ; ret ; (1 found)
0x212e4: sub eax, ecx ; ret ; (1 found)
0x212fb: sub eax, ecx ; ret ; (1 found)
0x213bd: sub eax, ecx ; ret ; (1 found)
0x213d7: sub eax, ecx ; ret ; (1 found)
0x213d8: sub eax, ecx ; ret ; (1 found)
0x213ed: sub eax, ecx ; ret ; (1 found)
0x21498: sub eax, ecx ; ret ; (1 found)
0x214cd: sub eax, ecx ; ret ; (1 found)
0x2367c: sub eax, ecx ; ret ; (1 found)
0x23696: sub eax, ecx ; ret ; (1 found)
0x25231: sub eax, ecx ; ret ; (1 found)
0x25246: sub eax, ecx ; ret ; (1 found)
0x239f9: sub eax, edi ; ret ; (1 found)
0x2540e: sub eax, edi ; ret ; (1 found)
0x25465: sub eax, edi ; ret ; (1 found)
0x237dc: sub eax, esi ; pop rbx ; ret ; (1 found)
0x12d00: sub eax, esi ; ret ; (1 found)
0x12d0c: sub eax, r8d ; ret ; (1 found)
0x10f38: sub ebx, eax ; call rdx ; (1 found)
0x1fab6: sub esp, 0x000000F8 ; syscall ; (1 found)
0x143cb: sub rax, qword [0x00000000] ; mov rdi, qword [rsp-0x08] ; ret ; (1 found)
0x14385: sub rax, qword [0x00000000] ; ret ; (1 found)
0x143ca: sub rax, qword [fs:0x00000000] ; mov rdi, qword [rsp-0x08] ; ret ; (1 found)
0x14384: sub rax, qword [fs:0x00000000] ; ret ; (1 found)
0x237f2: sub rax, rbx ; pop rbx ; ret ; (1 found)
0x239f8: sub rax, rdi ; ret ; (1 found)
0x2540d: sub rax, rdi ; ret ; (1 found)
0x25464: sub rax, rdi ; ret ; (1 found)
0x237db: sub rax, rsi ; pop rbx ; ret ; (1 found)
0x10f37: sub rbx, rax ; call rdx ; (1 found)
0x1fab5: sub rsp, 0x00000000000000F8 ; syscall ; (1 found)
0x12c35: syscall ; ret ; (1 found)
0x20b92: syscall ; ret ; (1 found)
0x20bb1: syscall ; ret ; (1 found)
0x20c35: syscall ; ret ; (1 found)
0xa173: syscall ; (1 found)
0xc494: syscall ; (1 found)
0xc70d: syscall ; (1 found)
0x10072: syscall ; (1 found)
0x1038a: syscall ; (1 found)
0x10c1a: syscall ; (1 found)
0x10cba: syscall ; (1 found)
0x11e58: syscall ; (1 found)
0x11eb4: syscall ; (1 found)
0x11eeb: syscall ; (1 found)
0x12c35: syscall ; (1 found)
0x13e4b: syscall ; (1 found)
0x1b457: syscall ; (1 found)
0x1dca4: syscall ; (1 found)
0x1e831: syscall ; (1 found)
0x1f9f5: syscall ; (1 found)
0x1fabc: syscall ; (1 found)
0x200a8: syscall ; (1 found)
0x204b1: syscall ; (1 found)
0x206d8: syscall ; (1 found)
0x20720: syscall ; (1 found)
0x20775: syscall ; (1 found)
0x20795: syscall ; (1 found)
0x207b5: syscall ; (1 found)
0x207fb: syscall ; (1 found)
0x2081f: syscall ; (1 found)
0x2085a: syscall ; (1 found)
0x20877: syscall ; (1 found)
0x208cb: syscall ; (1 found)
0x20922: syscall ; (1 found)
0x20948: syscall ; (1 found)
0x20975: syscall ; (1 found)
0x20a51: syscall ; (1 found)
0x20a95: syscall ; (1 found)
0x20ab5: syscall ; (1 found)
0x20af4: syscall ; (1 found)
0x20b49: syscall ; (1 found)
0x20b92: syscall ; (1 found)
0x20bb1: syscall ; (1 found)
0x20bc5: syscall ; (1 found)
0x20bf2: syscall ; (1 found)
0x20bff: syscall ; (1 found)
0x20c35: syscall ; (1 found)
0x20d27: syscall ; (1 found)
0x20dd6: syscall ; (1 found)
0x25685: syscall ; (1 found)
0x19d10: test  [rax-0x7FBFF732], 0x450F2DFE ; retn 0x0589 ; (1 found)
0x1befe: test  [rax], eax ; add rax, r13 ; jmp rax ; (1 found)
0x1befd: test  [rax], r8d ; add rax, r13 ; jmp rax ; (1 found)
0x21128: test  [rbx+0x31000000], esp ; rol bl, 0x83 ; retn 0x6620 ; (1 found)
0xc886: test  [rbx+rax+0x00], ebp ; add byte [rax+0x63], cl ; ret ; (1 found)
0x19d3f: test  [rbx-0x7FBFF736], 0x450F2DFE ; retn 0x0589 ; (1 found)
0x1e916: test byte [rax-0x73], 0x3D ; call qword [rdi+0x6DE80000] ; (1 found)
0xbf89: test byte [rax-0x75], 0x3C ; retn 0xB60F ; (1 found)
0x190b4: test byte [rax], 0x00 ; ret ; (1 found)
0x190d4: test byte [rax], 0x00 ; ret ; (1 found)
0x190e4: test byte [rax], 0x00 ; ret ; (1 found)
0xe4de: test byte [rbp+0x0F], 0x45 ; retn 0x894C ; (1 found)
0x9a5e: test byte [rcx+0x04], 0x00 ; add byte [rcx], al ; retn 0x8348 ; (1 found)
0x1fb13: test byte [rcx+rcx*4+0x44], 0x24 ; adc byte [rax+0x01], cl ; ret ; (1 found)
0x1e19b: test byte [rcx+rcx*4-0x11], 0x83 ; ret ; (1 found)
0xab4c: test byte [rcx-0x7D], 0xC2 ; xor byte [rbp+0x63], cl ; ret ; (1 found)
0x19554: test byte [rcx], al ; add byte [rcx+0x5C], al ; ret ; (1 found)
0x14aa4: test byte [rdi], 0x9F ; retn 0xED31 ; (1 found)
0x252ed: test byte [rsi+0x48000000], bl ; bsf eax, edx ; ret ; (1 found)
0xd738: test byte [rsi-0x16000003], dl ; cmp ah, 0xFF ; jmp qword [rsi+0x0F] ; (1 found)
0x1a9f3: test eax, 0x4CFFFE9C ; mov esp, ebp ; jmp r12 ; (1 found)
0x18eb5: test eax, 0x89480000 ; retn 0x01B8 ; (1 found)
0x25806: test eax, 0x8949FFFE ; ret ; (1 found)
0x25807: test eax, 0x8949FFFE ; ret ; (1 found)
0x20b67: test edi, edi ; jmp qword [rsi+0x0F] ; (1 found)
0x1c5ad: xchg bl, bl ; sbb eax, 0x01480000 ; retn 0xBA41 ; (1 found)
0x1aad9: xchg eax, ebp ; retn 0x3145 ; (1 found)
0x137fa: xchg eax, ebp ; retn 0x8548 ; (1 found)
0x1dc02: xchg eax, ebp ; retn 0xB7E8 ; (1 found)
0x51da: xchg eax, ebp ; retn 0xC084 ; (1 found)
0x2c18: xchg eax, ebp ; retn 0xC931 ; (1 found)
0x1fb70: xchg eax, ebp ; retn 0xD108 ; (1 found)
0x21b9c: xchg eax, ebx ; lea rcx, qword [r11+rcx] ; jmp rcx ; (1 found)
0x21bf4: xchg eax, ebx ; lea rcx, qword [r11+rcx] ; jmp rcx ; (1 found)
0x21c11: xchg eax, ebx ; lea rcx, qword [r11+rcx] ; jmp rcx ; (1 found)
0x21c36: xchg eax, ebx ; lea rcx, qword [r11+rcx] ; jmp rcx ; (1 found)
0x21c58: xchg eax, ebx ; lea rcx, qword [r11+rcx] ; jmp rcx ; (1 found)
0x21c6e: xchg eax, ebx ; lea rcx, qword [r11+rcx] ; jmp rcx ; (1 found)
0x21c9a: xchg eax, ebx ; lea rcx, qword [r11+rcx] ; jmp rcx ; (1 found)
0x21ccf: xchg eax, ebx ; lea rcx, qword [r11+rcx] ; jmp rcx ; (1 found)
0x318a: xchg eax, edx ; fdivp st7, st0 ; jmp qword [rsi-0x70] ; (1 found)
0xb425: xchg eax, edx ; retn 0xCF89 ; (1 found)
0x14c74: xchg eax, edx ; retn 0xD284 ; (1 found)
0x1468c: xchg eax, esi ; add rax, rsi ; jmp rax ; (1 found)
0x11506: xchg eax, esp ; ret ; (1 found)
0x1189b: xchg eax, esp ; ret ; (1 found)
0x144c5: xchg eax, esp ; ret ; (1 found)
0x1fc4b: xchg eax, esp ; retn 0x394C ; (1 found)
0xe54e: xchg eax, esp ; retn 0x8566 ; (1 found)
0xebb4: xchg eax, esp ; retn 0x8566 ; (1 found)
0xefa9: xchg eax, esp ; retn 0x8566 ; (1 found)
0x47c6: xchg eax, esp ; retn 0xC084 ; (1 found)
0x17f9b: xchg eax, esp ; retn 0xDAEB ; (1 found)
0x152b: xchg eax, esp ; retn 0xDE89 ; (1 found)
0x1d70: xchg eax, esp ; retn 0xF631 ; (1 found)
0x1829d: xlatb ; call rsi ; (1 found)
0x20fa4: xlatb ; ret ; (1 found)
0x2100e: xlatb ; ret ; (1 found)
0x21023: xlatb ; ret ; (1 found)
0x210b1: xlatb ; ret ; (1 found)
0x21109: xlatb ; ret ; (1 found)
0x21346: xlatb ; ret ; (1 found)
0x21373: xlatb ; ret ; (1 found)
0x213a0: xlatb ; ret ; (1 found)
0x21432: xlatb ; ret ; (1 found)
0x21471: xlatb ; ret ; (1 found)
0x21844: xlatb ; ret ; (1 found)
0x218a4: xlatb ; ret ; (1 found)
0x218b9: xlatb ; ret ; (1 found)
0x2192f: xlatb ; ret ; (1 found)
0x22189: xlatb ; ret ; (1 found)
0x221e6: xlatb ; ret ; (1 found)
0x221ff: xlatb ; ret ; (1 found)
0x255b9: xlatb ; ret ; (1 found)
0x25606: xlatb ; ret ; (1 found)
0x2561f: xlatb ; ret ; (1 found)
0x238b4: xlatb ; retn 0x0F66 ; (1 found)
0x23912: xlatb ; retn 0x0F66 ; (1 found)
0x239d6: xlatb ; retn 0x0F66 ; (1 found)
0x252ae: xlatb ; retn 0x0F66 ; (1 found)
0x25322: xlatb ; retn 0x0F66 ; (1 found)
0x253e7: xlatb ; retn 0x0F66 ; (1 found)
0x25442: xlatb ; retn 0x0F66 ; (1 found)
0x20f8f: xlatb ; retn 0xC085 ; (1 found)
0x20ff9: xlatb ; retn 0xC085 ; (1 found)
0x21097: xlatb ; retn 0xC085 ; (1 found)
0x210f4: xlatb ; retn 0xC085 ; (1 found)
0x2182f: xlatb ; retn 0xC085 ; (1 found)
0x2188f: xlatb ; retn 0xC085 ; (1 found)
0x21919: xlatb ; retn 0xC085 ; (1 found)
0x22180: xlatb ; retn 0xC148 ; (1 found)
0x255b0: xlatb ; retn 0xC148 ; (1 found)
0x21153: xlatb ; rol  [rbp+0x315775C0], 0xFFFFFFC0 ; ret ; (1 found)
0x23616: xlatb ; sal bh, 1 ; retn 0x8000 ; (1 found)
0x251b6: xlatb ; sal bh, 1 ; retn 0x8000 ; (1 found)
0x234d6: xlatb ; sal bh, 1 ; retn 0xC000 ; (1 found)
0x25036: xlatb ; sal bh, 1 ; retn 0xC000 ; (1 found)
0x23396: xlatb ; sal bh, 1 ; retn 0xE000 ; (1 found)
0x24eb6: xlatb ; sal bh, 1 ; retn 0xE000 ; (1 found)
0x23256: xlatb ; sal bh, 1 ; retn 0xF000 ; (1 found)
0x24d36: xlatb ; sal bh, 1 ; retn 0xF000 ; (1 found)
0x23116: xlatb ; sal bh, 1 ; retn 0xF800 ; (1 found)
0x24bb6: xlatb ; sal bh, 1 ; retn 0xF800 ; (1 found)
0x22fd6: xlatb ; sal bh, 1 ; retn 0xFC00 ; (1 found)
0x24a36: xlatb ; sal bh, 1 ; retn 0xFC00 ; (1 found)
0x22e96: xlatb ; sal bh, 1 ; retn 0xFE00 ; (1 found)
0x248b6: xlatb ; sal bh, 1 ; retn 0xFE00 ; (1 found)
0x22d56: xlatb ; sal bh, 1 ; retn 0xFF00 ; (1 found)
0x24736: xlatb ; sal bh, 1 ; retn 0xFF00 ; (1 found)
0x22c16: xlatb ; sal bh, 1 ; retn 0xFF80 ; (1 found)
0x245b6: xlatb ; sal bh, 1 ; retn 0xFF80 ; (1 found)
0x22ad6: xlatb ; sal bh, 1 ; retn 0xFFC0 ; (1 found)
0x24436: xlatb ; sal bh, 1 ; retn 0xFFC0 ; (1 found)
0x22996: xlatb ; sal bh, 1 ; retn 0xFFE0 ; (1 found)
0x242b6: xlatb ; sal bh, 1 ; retn 0xFFE0 ; (1 found)
0x22856: xlatb ; sal bh, 1 ; retn 0xFFF0 ; (1 found)
0x24136: xlatb ; sal bh, 1 ; retn 0xFFF0 ; (1 found)
0x22716: xlatb ; sal bh, 1 ; retn 0xFFF8 ; (1 found)
0x23fb6: xlatb ; sal bh, 1 ; retn 0xFFF8 ; (1 found)
0x225d6: xlatb ; sal bh, 1 ; retn 0xFFFC ; (1 found)
0x23e36: xlatb ; sal bh, 1 ; retn 0xFFFC ; (1 found)
0x22496: xlatb ; sal bh, 1 ; retn 0xFFFE ; (1 found)
0x23cb6: xlatb ; sal bh, 1 ; retn 0xFFFE ; (1 found)
0x197b5: xor  [rax-0x7C], eax ; div byte [rbp-0x63] ; ret ; (1 found)
0x200bd: xor  [rcx], eax ; add byte [rax-0x00000001], bh ; ret ; (1 found)
0x16712: xor al, 0x30 ; call rcx ; (1 found)
0xdb8c: xor al, 0xFF ; call qword [rax+0x21058B48] ; (1 found)
0x25ec9: xor bl, al ; nop  [rax+rax+0x00] ; ret ; (1 found)
0x210ad: xor byte [r14+0x0F], r12L ; xlatb ; ret ; (1 found)
0x2192b: xor byte [r14+0x0F], r12L ; xlatb ; ret ; (1 found)
0x221af: xor byte [rax+0x0F], cl ; retn 0x66C3 ; (1 found)
0x22091: xor byte [rax+0x0F], cl ; retn 0x90C3 ; (1 found)
0x169b8: xor byte [rax+0x29], cl ; retn 0x8948 ; (1 found)
0xdec7: xor byte [rax-0x7C], al ; dec  [rax+0x0F] ; retn 0x8B49 ; (1 found)
0xab50: xor byte [rbp+0x63], cl ; ret ; (1 found)
0x216a9: xor byte [rdi+rcx+0x11], al ; cmp r14L, al ; ret ; (1 found)
0x1fc49: xor byte [rdi], cl ; xchg eax, esp ; retn 0x394C ; (1 found)
0x210ae: xor byte [rsi+0x0F], ah ; xlatb ; ret ; (1 found)
0x2192c: xor byte [rsi+0x0F], ah ; xlatb ; ret ; (1 found)
0x1b87e: xor cl, byte [rax-0x7D] ; retn 0x4808 ; (1 found)
0x20b46: xor dh, 0x80 ; syscall ; (1 found)
0x18280: xor eax, eax ; add rsp, 0x0000000000000118 ; ret ; (1 found)
0x16559: xor eax, eax ; add rsp, 0x08 ; ret ; (1 found)
0xdb1e: xor eax, eax ; pop rbx ; ret ; (1 found)
0x14590: xor eax, eax ; pop rbx ; ret ; (1 found)
0x4e80: xor eax, eax ; ret ; (1 found)
0xa8d5: xor eax, eax ; ret ; (1 found)
0x11b1a: xor eax, eax ; ret ; (1 found)
0x11da0: xor eax, eax ; ret ; (1 found)
0x14e06: xor eax, eax ; ret ; (1 found)
0x1654a: xor eax, eax ; ret ; (1 found)
0x17f91: xor eax, eax ; ret ; (1 found)
0x19017: xor eax, eax ; ret ; (1 found)
0x1fa03: xor eax, eax ; ret ; (1 found)
0x2024a: xor eax, eax ; ret ; (1 found)
0x20548: xor eax, eax ; ret ; (1 found)
0x206e1: xor eax, eax ; ret ; (1 found)
0x20c8c: xor eax, eax ; ret ; (1 found)
0x2112d: xor eax, eax ; ret ; (1 found)
0x21159: xor eax, eax ; ret ; (1 found)
0x211e0: xor eax, eax ; ret ; (1 found)
0x21233: xor eax, eax ; ret ; (1 found)
0x2125a: xor eax, eax ; ret ; (1 found)
0x2126b: xor eax, eax ; ret ; (1 found)
0x2367f: xor eax, eax ; ret ; (1 found)
0x25234: xor eax, eax ; ret ; (1 found)
0x25256: xor eax, eax ; ret ; (1 found)
0x256d0: xor eax, eax ; ret ; (1 found)
0x20920: xor eax, eax ; syscall ; (1 found)
0x25255: xor rax, rax ; ret ; (1 found)
0x20b45: xor sil, 0x80 ; syscall ; (1 found)
